80000000:	0500006f          	j	80000050 <reset_vector>
80000004:	34202f73          	csrr	t5,mcause
80000008:	00800f93          	li	t6,8
8000000c:	03ff0863          	beq	t5,t6,8000003c <write_tohost>
80000010:	00900f93          	li	t6,9
80000014:	03ff0463          	beq	t5,t6,8000003c <write_tohost>
80000018:	00b00f93          	li	t6,11
8000001c:	03ff0063          	beq	t5,t6,8000003c <write_tohost>
80000020:	00000f13          	li	t5,0
80000024:	000f0463          	beqz	t5,8000002c <trap_vector+0x28>
80000028:	000f0067          	jr	t5
8000002c:	34202f73          	csrr	t5,mcause
80000030:	000f5463          	bgez	t5,80000038 <handle_exception>
80000034:	0040006f          	j	80000038 <handle_exception>
80000038:	5391e193          	ori	gp,gp,1337
8000003c:	20000f17          	auipc	t5,0x20000
80000040:	003f2223          	sw	gp,4(t5) # a0000040 <tohost>
80000044:	20000f17          	auipc	t5,0x20000
80000048:	000f2023          	sw	zero,0(t5) # a0000044 <tohost+0x4>
8000004c:	ff1ff06f          	j	8000003c <write_tohost>
80000050:	00000093          	li	ra,0
80000054:	00000113          	li	sp,0
80000058:	00000193          	li	gp,0
8000005c:	00000213          	li	tp,0
80000060:	00000293          	li	t0,0
80000064:	00000313          	li	t1,0
80000068:	00000393          	li	t2,0
8000006c:	00000413          	li	s0,0
80000070:	00000493          	li	s1,0
80000074:	00000513          	li	a0,0
80000078:	00000593          	li	a1,0
8000007c:	00000613          	li	a2,0
80000080:	00000693          	li	a3,0
80000084:	00000713          	li	a4,0
80000088:	00000793          	li	a5,0
8000008c:	00000813          	li	a6,0
80000090:	00000893          	li	a7,0
80000094:	00000913          	li	s2,0
80000098:	00000993          	li	s3,0
8000009c:	00000a13          	li	s4,0
800000a0:	00000a93          	li	s5,0
800000a4:	00000b13          	li	s6,0
800000a8:	00000b93          	li	s7,0
800000ac:	00000c13          	li	s8,0
800000b0:	00000c93          	li	s9,0
800000b4:	00000d13          	li	s10,0
800000b8:	00000d93          	li	s11,0
800000bc:	00000e13          	li	t3,0
800000c0:	00000e93          	li	t4,0
800000c4:	00000f13          	li	t5,0
800000c8:	00000f93          	li	t6,0
800000cc:	f1402573          	csrr	a0,mhartid
800000d0:	00051063          	bnez	a0,800000d0 <reset_vector+0x80>
800000d4:	00000297          	auipc	t0,0x0
800000d8:	01028293          	addi	t0,t0,16 # 800000e4 <reset_vector+0x94>
800000dc:	30529073          	csrw	mtvec,t0
800000e0:	74445073          	csrwi	0x744,8
800000e4:	00000297          	auipc	t0,0x0
800000e8:	01028293          	addi	t0,t0,16 # 800000f4 <reset_vector+0xa4>
800000ec:	30529073          	csrw	mtvec,t0
800000f0:	18005073          	csrwi	satp,0
800000f4:	00000297          	auipc	t0,0x0
800000f8:	02028293          	addi	t0,t0,32 # 80000114 <reset_vector+0xc4>
800000fc:	30529073          	csrw	mtvec,t0
80000100:	800002b7          	lui	t0,0x80000
80000104:	fff28293          	addi	t0,t0,-1 # 7fffffff <__stack_size+0x7ffff7ff>
80000108:	3b029073          	csrw	pmpaddr0,t0
8000010c:	01f00293          	li	t0,31
80000110:	3a029073          	csrw	pmpcfg0,t0
80000114:	30405073          	csrwi	mie,0
80000118:	00000297          	auipc	t0,0x0
8000011c:	01428293          	addi	t0,t0,20 # 8000012c <reset_vector+0xdc>
80000120:	30529073          	csrw	mtvec,t0
80000124:	30205073          	csrwi	medeleg,0
80000128:	30305073          	csrwi	mideleg,0
8000012c:	00000193          	li	gp,0
80000130:	00000297          	auipc	t0,0x0
80000134:	ed428293          	addi	t0,t0,-300 # 80000004 <trap_vector>
80000138:	30529073          	csrw	mtvec,t0
8000013c:	00100513          	li	a0,1
80000140:	01f51513          	slli	a0,a0,0x1f
80000144:	00054c63          	bltz	a0,8000015c <reset_vector+0x10c>
80000148:	0ff0000f          	fence
8000014c:	00100193          	li	gp,1
80000150:	05d00893          	li	a7,93
80000154:	00000513          	li	a0,0
80000158:	00000073          	ecall
8000015c:	00000293          	li	t0,0
80000160:	00028a63          	beqz	t0,80000174 <reset_vector+0x124>
80000164:	10529073          	csrw	stvec,t0
80000168:	0000b2b7          	lui	t0,0xb
8000016c:	10928293          	addi	t0,t0,265 # b109 <__stack_size+0xa909>
80000170:	30229073          	csrw	medeleg,t0
80000174:	30005073          	csrwi	mstatus,0
80000178:	00000297          	auipc	t0,0x0
8000017c:	01428293          	addi	t0,t0,20 # 8000018c <reset_vector+0x13c>
80000180:	34129073          	csrw	mepc,t0
80000184:	f1402573          	csrr	a0,mhartid
80000188:	30200073          	mret
8000018c:	06f00693          	li	a3,111
80000190:	20000517          	auipc	a0,0x20000
80000194:	e7051503          	lh	a0,-400(a0) # a0000000 <begin_signature>
80000198:	20000597          	auipc	a1,0x20000
8000019c:	e6a59583          	lh	a1,-406(a1) # a0000002 <begin_signature+0x2>
800001a0:	00000013          	nop
800001a4:	00000013          	nop
800001a8:	00000013          	nop
800001ac:	00000013          	nop
800001b0:	00000013          	nop
800001b4:	00000013          	nop
800001b8:	00000013          	nop
800001bc:	00000013          	nop
800001c0:	20000297          	auipc	t0,0x20000
800001c4:	e4a29223          	sh	a0,-444(t0) # a0000004 <begin_signature+0x4>
800001c8:	20000297          	auipc	t0,0x20000
800001cc:	e2b29f23          	sh	a1,-450(t0) # a0000006 <begin_signature+0x6>
800001d0:	0000100f          	fence.i
800001d4:	20000797          	auipc	a5,0x20000
800001d8:	e3078793          	addi	a5,a5,-464 # a0000004 <begin_signature+0x4>
800001dc:	00078367          	jalr	t1,a5
800001e0:	00200193          	li	gp,2
800001e4:	00000013          	nop
800001e8:	1bc00393          	li	t2,444
800001ec:	06769a63          	bne	a3,t2,80000260 <fail>
800001f0:	06400713          	li	a4,100
800001f4:	fff70713          	addi	a4,a4,-1
800001f8:	fe071ee3          	bnez	a4,800001f4 <test_2+0x14>
800001fc:	20000297          	auipc	t0,0x20000
80000200:	e0a29823          	sh	a0,-496(t0) # a000000c <begin_signature+0xc>
80000204:	20000297          	auipc	t0,0x20000
80000208:	e0b29523          	sh	a1,-502(t0) # a000000e <begin_signature+0xe>
8000020c:	0000100f          	fence.i
80000210:	00000013          	nop
80000214:	00000013          	nop
80000218:	00000013          	nop
8000021c:	00000013          	nop
80000220:	00000013          	nop
80000224:	00000013          	nop
80000228:	00000013          	nop
8000022c:	00000013          	nop
80000230:	00000013          	nop
80000234:	00000013          	nop
80000238:	00000013          	nop
8000023c:	00000013          	nop
80000240:	20000797          	auipc	a5,0x20000
80000244:	dcc78793          	addi	a5,a5,-564 # a000000c <begin_signature+0xc>
80000248:	00078367          	jalr	t1,a5
8000024c:	00300193          	li	gp,3
80000250:	00000013          	nop
80000254:	30900393          	li	t2,777
80000258:	00769463          	bne	a3,t2,80000260 <fail>
8000025c:	02301063          	bne	zero,gp,8000027c <pass>
80000260:	0ff0000f          	fence
80000264:	00018063          	beqz	gp,80000264 <fail+0x4>
80000268:	00119193          	slli	gp,gp,0x1
8000026c:	0011e193          	ori	gp,gp,1
80000270:	05d00893          	li	a7,93
80000274:	00018513          	mv	a0,gp
80000278:	00000073          	ecall
8000027c:	0ff0000f          	fence
80000280:	00100193          	li	gp,1
80000284:	05d00893          	li	a7,93
80000288:	00000513          	li	a0,0
8000028c:	00000073          	ecall
80000290:	c0001073          	unimp
a0000000:	14d68693          	addi	a3,a3,333
a0000004:	0de68693          	addi	a3,a3,222
a0000008:	000307e7          	jalr	a5,t1
a000000c:	22b68693          	addi	a3,a3,555
a0000010:	000307e7          	jalr	a5,t1
a0000014:	0000                	.insn	2, 0x
a0000016:	0000                	.insn	2, 0x
a0000018:	0000                	.insn	2, 0x
a000001a:	0000                	.insn	2, 0x
a000001c:	0000                	.insn	2, 0x
a000001e:	0000                	.insn	2, 0x
80000000:	0500006f          	j	80000050 <reset_vector>
80000004:	34202f73          	csrr	t5,mcause
80000008:	00800f93          	li	t6,8
8000000c:	03ff0863          	beq	t5,t6,8000003c <write_tohost>
80000010:	00900f93          	li	t6,9
80000014:	03ff0463          	beq	t5,t6,8000003c <write_tohost>
80000018:	00b00f93          	li	t6,11
8000001c:	03ff0063          	beq	t5,t6,8000003c <write_tohost>
80000020:	00000f13          	li	t5,0
80000024:	000f0463          	beqz	t5,8000002c <trap_vector+0x28>
80000028:	000f0067          	jr	t5
8000002c:	34202f73          	csrr	t5,mcause
80000030:	000f5463          	bgez	t5,80000038 <handle_exception>
80000034:	0040006f          	j	80000038 <handle_exception>
80000038:	5391e193          	ori	gp,gp,1337
8000003c:	20000f17          	auipc	t5,0x20000
80000040:	fc3f2223          	sw	gp,-60(t5) # a0000000 <tohost>
80000044:	20000f17          	auipc	t5,0x20000
80000048:	fc0f2023          	sw	zero,-64(t5) # a0000004 <tohost+0x4>
8000004c:	ff1ff06f          	j	8000003c <write_tohost>
80000050:	00000093          	li	ra,0
80000054:	00000113          	li	sp,0
80000058:	00000193          	li	gp,0
8000005c:	00000213          	li	tp,0
80000060:	00000293          	li	t0,0
80000064:	00000313          	li	t1,0
80000068:	00000393          	li	t2,0
8000006c:	00000413          	li	s0,0
80000070:	00000493          	li	s1,0
80000074:	00000513          	li	a0,0
80000078:	00000593          	li	a1,0
8000007c:	00000613          	li	a2,0
80000080:	00000693          	li	a3,0
80000084:	00000713          	li	a4,0
80000088:	00000793          	li	a5,0
8000008c:	00000813          	li	a6,0
80000090:	00000893          	li	a7,0
80000094:	00000913          	li	s2,0
80000098:	00000993          	li	s3,0
8000009c:	00000a13          	li	s4,0
800000a0:	00000a93          	li	s5,0
800000a4:	00000b13          	li	s6,0
800000a8:	00000b93          	li	s7,0
800000ac:	00000c13          	li	s8,0
800000b0:	00000c93          	li	s9,0
800000b4:	00000d13          	li	s10,0
800000b8:	00000d93          	li	s11,0
800000bc:	00000e13          	li	t3,0
800000c0:	00000e93          	li	t4,0
800000c4:	00000f13          	li	t5,0
800000c8:	00000f93          	li	t6,0
800000cc:	f1402573          	csrr	a0,mhartid
800000d0:	00051063          	bnez	a0,800000d0 <reset_vector+0x80>
800000d4:	00000297          	auipc	t0,0x0
800000d8:	01028293          	addi	t0,t0,16 # 800000e4 <reset_vector+0x94>
800000dc:	30529073          	csrw	mtvec,t0
800000e0:	74445073          	csrwi	0x744,8
800000e4:	00000297          	auipc	t0,0x0
800000e8:	01028293          	addi	t0,t0,16 # 800000f4 <reset_vector+0xa4>
800000ec:	30529073          	csrw	mtvec,t0
800000f0:	18005073          	csrwi	satp,0
800000f4:	00000297          	auipc	t0,0x0
800000f8:	02028293          	addi	t0,t0,32 # 80000114 <reset_vector+0xc4>
800000fc:	30529073          	csrw	mtvec,t0
80000100:	800002b7          	lui	t0,0x80000
80000104:	fff28293          	addi	t0,t0,-1 # 7fffffff <__stack_size+0x7ffff7ff>
80000108:	3b029073          	csrw	pmpaddr0,t0
8000010c:	01f00293          	li	t0,31
80000110:	3a029073          	csrw	pmpcfg0,t0
80000114:	30405073          	csrwi	mie,0
80000118:	00000297          	auipc	t0,0x0
8000011c:	01428293          	addi	t0,t0,20 # 8000012c <reset_vector+0xdc>
80000120:	30529073          	csrw	mtvec,t0
80000124:	30205073          	csrwi	medeleg,0
80000128:	30305073          	csrwi	mideleg,0
8000012c:	00000193          	li	gp,0
80000130:	00000297          	auipc	t0,0x0
80000134:	ed428293          	addi	t0,t0,-300 # 80000004 <trap_vector>
80000138:	30529073          	csrw	mtvec,t0
8000013c:	00100513          	li	a0,1
80000140:	01f51513          	slli	a0,a0,0x1f
80000144:	00054c63          	bltz	a0,8000015c <reset_vector+0x10c>
80000148:	0ff0000f          	fence
8000014c:	00100193          	li	gp,1
80000150:	05d00893          	li	a7,93
80000154:	00000513          	li	a0,0
80000158:	00000073          	ecall
8000015c:	00000293          	li	t0,0
80000160:	00028a63          	beqz	t0,80000174 <reset_vector+0x124>
80000164:	10529073          	csrw	stvec,t0
80000168:	0000b2b7          	lui	t0,0xb
8000016c:	10928293          	addi	t0,t0,265 # b109 <__stack_size+0xa909>
80000170:	30229073          	csrw	medeleg,t0
80000174:	30005073          	csrwi	mstatus,0
80000178:	00000297          	auipc	t0,0x0
8000017c:	01428293          	addi	t0,t0,20 # 8000018c <test_2>
80000180:	34129073          	csrw	mepc,t0
80000184:	f1402573          	csrr	a0,mhartid
80000188:	30200073          	mret
8000018c:	00200193          	li	gp,2
80000190:	00000093          	li	ra,0
80000194:	00000113          	li	sp,0
80000198:	0020f663          	bgeu	ra,sp,800001a4 <test_2+0x18>
8000019c:	34301263          	bne	zero,gp,800004e0 <fail>
800001a0:	00301663          	bne	zero,gp,800001ac <test_3>
800001a4:	fe20fee3          	bgeu	ra,sp,800001a0 <test_2+0x14>
800001a8:	32301c63          	bne	zero,gp,800004e0 <fail>
800001ac:	00300193          	li	gp,3
800001b0:	00100093          	li	ra,1
800001b4:	00100113          	li	sp,1
800001b8:	0020f663          	bgeu	ra,sp,800001c4 <test_3+0x18>
800001bc:	32301263          	bne	zero,gp,800004e0 <fail>
800001c0:	00301663          	bne	zero,gp,800001cc <test_4>
800001c4:	fe20fee3          	bgeu	ra,sp,800001c0 <test_3+0x14>
800001c8:	30301c63          	bne	zero,gp,800004e0 <fail>
800001cc:	00400193          	li	gp,4
800001d0:	fff00093          	li	ra,-1
800001d4:	fff00113          	li	sp,-1
800001d8:	0020f663          	bgeu	ra,sp,800001e4 <test_4+0x18>
800001dc:	30301263          	bne	zero,gp,800004e0 <fail>
800001e0:	00301663          	bne	zero,gp,800001ec <test_5>
800001e4:	fe20fee3          	bgeu	ra,sp,800001e0 <test_4+0x14>
800001e8:	2e301c63          	bne	zero,gp,800004e0 <fail>
800001ec:	00500193          	li	gp,5
800001f0:	00100093          	li	ra,1
800001f4:	00000113          	li	sp,0
800001f8:	0020f663          	bgeu	ra,sp,80000204 <test_5+0x18>
800001fc:	2e301263          	bne	zero,gp,800004e0 <fail>
80000200:	00301663          	bne	zero,gp,8000020c <test_6>
80000204:	fe20fee3          	bgeu	ra,sp,80000200 <test_5+0x14>
80000208:	2c301c63          	bne	zero,gp,800004e0 <fail>
8000020c:	00600193          	li	gp,6
80000210:	fff00093          	li	ra,-1
80000214:	ffe00113          	li	sp,-2
80000218:	0020f663          	bgeu	ra,sp,80000224 <test_6+0x18>
8000021c:	2c301263          	bne	zero,gp,800004e0 <fail>
80000220:	00301663          	bne	zero,gp,8000022c <test_7>
80000224:	fe20fee3          	bgeu	ra,sp,80000220 <test_6+0x14>
80000228:	2a301c63          	bne	zero,gp,800004e0 <fail>
8000022c:	00700193          	li	gp,7
80000230:	fff00093          	li	ra,-1
80000234:	00000113          	li	sp,0
80000238:	0020f663          	bgeu	ra,sp,80000244 <test_7+0x18>
8000023c:	2a301263          	bne	zero,gp,800004e0 <fail>
80000240:	00301663          	bne	zero,gp,8000024c <test_8>
80000244:	fe20fee3          	bgeu	ra,sp,80000240 <test_7+0x14>
80000248:	28301c63          	bne	zero,gp,800004e0 <fail>
8000024c:	00800193          	li	gp,8
80000250:	00000093          	li	ra,0
80000254:	00100113          	li	sp,1
80000258:	0020f463          	bgeu	ra,sp,80000260 <test_8+0x14>
8000025c:	00301463          	bne	zero,gp,80000264 <test_8+0x18>
80000260:	28301063          	bne	zero,gp,800004e0 <fail>
80000264:	fe20fee3          	bgeu	ra,sp,80000260 <test_8+0x14>
80000268:	00900193          	li	gp,9
8000026c:	ffe00093          	li	ra,-2
80000270:	fff00113          	li	sp,-1
80000274:	0020f463          	bgeu	ra,sp,8000027c <test_9+0x14>
80000278:	00301463          	bne	zero,gp,80000280 <test_9+0x18>
8000027c:	26301263          	bne	zero,gp,800004e0 <fail>
80000280:	fe20fee3          	bgeu	ra,sp,8000027c <test_9+0x14>
80000284:	00a00193          	li	gp,10
80000288:	00000093          	li	ra,0
8000028c:	fff00113          	li	sp,-1
80000290:	0020f463          	bgeu	ra,sp,80000298 <test_10+0x14>
80000294:	00301463          	bne	zero,gp,8000029c <test_10+0x18>
80000298:	24301463          	bne	zero,gp,800004e0 <fail>
8000029c:	fe20fee3          	bgeu	ra,sp,80000298 <test_10+0x14>
800002a0:	00b00193          	li	gp,11
800002a4:	800000b7          	lui	ra,0x80000
800002a8:	fff08093          	addi	ra,ra,-1 # 7fffffff <__stack_size+0x7ffff7ff>
800002ac:	80000137          	lui	sp,0x80000
800002b0:	0020f463          	bgeu	ra,sp,800002b8 <test_11+0x18>
800002b4:	00301463          	bne	zero,gp,800002bc <test_11+0x1c>
800002b8:	22301463          	bne	zero,gp,800004e0 <fail>
800002bc:	fe20fee3          	bgeu	ra,sp,800002b8 <test_11+0x18>
800002c0:	00c00193          	li	gp,12
800002c4:	00000213          	li	tp,0
800002c8:	f00000b7          	lui	ra,0xf0000
800002cc:	fff08093          	addi	ra,ra,-1 # efffffff <_end+0x4ffff5b7>
800002d0:	f0000137          	lui	sp,0xf0000
800002d4:	2020f663          	bgeu	ra,sp,800004e0 <fail>
800002d8:	00120213          	addi	tp,tp,1 # 1 <__heap_size-0x1ff>
800002dc:	00200293          	li	t0,2
800002e0:	fe5214e3          	bne	tp,t0,800002c8 <test_12+0x8>
800002e4:	00d00193          	li	gp,13
800002e8:	00000213          	li	tp,0
800002ec:	f00000b7          	lui	ra,0xf0000
800002f0:	fff08093          	addi	ra,ra,-1 # efffffff <_end+0x4ffff5b7>
800002f4:	f0000137          	lui	sp,0xf0000
800002f8:	00000013          	nop
800002fc:	1e20f263          	bgeu	ra,sp,800004e0 <fail>
80000300:	00120213          	addi	tp,tp,1 # 1 <__heap_size-0x1ff>
80000304:	00200293          	li	t0,2
80000308:	fe5212e3          	bne	tp,t0,800002ec <test_13+0x8>
8000030c:	00e00193          	li	gp,14
80000310:	00000213          	li	tp,0
80000314:	f00000b7          	lui	ra,0xf0000
80000318:	fff08093          	addi	ra,ra,-1 # efffffff <_end+0x4ffff5b7>
8000031c:	f0000137          	lui	sp,0xf0000
80000320:	00000013          	nop
80000324:	00000013          	nop
80000328:	1a20fc63          	bgeu	ra,sp,800004e0 <fail>
8000032c:	00120213          	addi	tp,tp,1 # 1 <__heap_size-0x1ff>
80000330:	00200293          	li	t0,2
80000334:	fe5210e3          	bne	tp,t0,80000314 <test_14+0x8>
80000338:	00f00193          	li	gp,15
8000033c:	00000213          	li	tp,0
80000340:	f00000b7          	lui	ra,0xf0000
80000344:	fff08093          	addi	ra,ra,-1 # efffffff <_end+0x4ffff5b7>
80000348:	00000013          	nop
8000034c:	f0000137          	lui	sp,0xf0000
80000350:	1820f863          	bgeu	ra,sp,800004e0 <fail>
80000354:	00120213          	addi	tp,tp,1 # 1 <__heap_size-0x1ff>
80000358:	00200293          	li	t0,2
8000035c:	fe5212e3          	bne	tp,t0,80000340 <test_15+0x8>
80000360:	01000193          	li	gp,16
80000364:	00000213          	li	tp,0
80000368:	f00000b7          	lui	ra,0xf0000
8000036c:	fff08093          	addi	ra,ra,-1 # efffffff <_end+0x4ffff5b7>
80000370:	00000013          	nop
80000374:	f0000137          	lui	sp,0xf0000
80000378:	00000013          	nop
8000037c:	1620f263          	bgeu	ra,sp,800004e0 <fail>
80000380:	00120213          	addi	tp,tp,1 # 1 <__heap_size-0x1ff>
80000384:	00200293          	li	t0,2
80000388:	fe5210e3          	bne	tp,t0,80000368 <test_16+0x8>
8000038c:	01100193          	li	gp,17
80000390:	00000213          	li	tp,0
80000394:	f00000b7          	lui	ra,0xf0000
80000398:	fff08093          	addi	ra,ra,-1 # efffffff <_end+0x4ffff5b7>
8000039c:	00000013          	nop
800003a0:	00000013          	nop
800003a4:	f0000137          	lui	sp,0xf0000
800003a8:	1220fc63          	bgeu	ra,sp,800004e0 <fail>
800003ac:	00120213          	addi	tp,tp,1 # 1 <__heap_size-0x1ff>
800003b0:	00200293          	li	t0,2
800003b4:	fe5210e3          	bne	tp,t0,80000394 <test_17+0x8>
800003b8:	01200193          	li	gp,18
800003bc:	00000213          	li	tp,0
800003c0:	f00000b7          	lui	ra,0xf0000
800003c4:	fff08093          	addi	ra,ra,-1 # efffffff <_end+0x4ffff5b7>
800003c8:	f0000137          	lui	sp,0xf0000
800003cc:	1020fa63          	bgeu	ra,sp,800004e0 <fail>
800003d0:	00120213          	addi	tp,tp,1 # 1 <__heap_size-0x1ff>
800003d4:	00200293          	li	t0,2
800003d8:	fe5214e3          	bne	tp,t0,800003c0 <test_18+0x8>
800003dc:	01300193          	li	gp,19
800003e0:	00000213          	li	tp,0
800003e4:	f00000b7          	lui	ra,0xf0000
800003e8:	fff08093          	addi	ra,ra,-1 # efffffff <_end+0x4ffff5b7>
800003ec:	f0000137          	lui	sp,0xf0000
800003f0:	00000013          	nop
800003f4:	0e20f663          	bgeu	ra,sp,800004e0 <fail>
800003f8:	00120213          	addi	tp,tp,1 # 1 <__heap_size-0x1ff>
800003fc:	00200293          	li	t0,2
80000400:	fe5212e3          	bne	tp,t0,800003e4 <test_19+0x8>
80000404:	01400193          	li	gp,20
80000408:	00000213          	li	tp,0
8000040c:	f00000b7          	lui	ra,0xf0000
80000410:	fff08093          	addi	ra,ra,-1 # efffffff <_end+0x4ffff5b7>
80000414:	f0000137          	lui	sp,0xf0000
80000418:	00000013          	nop
8000041c:	00000013          	nop
80000420:	0c20f063          	bgeu	ra,sp,800004e0 <fail>
80000424:	00120213          	addi	tp,tp,1 # 1 <__heap_size-0x1ff>
80000428:	00200293          	li	t0,2
8000042c:	fe5210e3          	bne	tp,t0,8000040c <test_20+0x8>
80000430:	01500193          	li	gp,21
80000434:	00000213          	li	tp,0
80000438:	f00000b7          	lui	ra,0xf0000
8000043c:	fff08093          	addi	ra,ra,-1 # efffffff <_end+0x4ffff5b7>
80000440:	00000013          	nop
80000444:	f0000137          	lui	sp,0xf0000
80000448:	0820fc63          	bgeu	ra,sp,800004e0 <fail>
8000044c:	00120213          	addi	tp,tp,1 # 1 <__heap_size-0x1ff>
80000450:	00200293          	li	t0,2
80000454:	fe5212e3          	bne	tp,t0,80000438 <test_21+0x8>
80000458:	01600193          	li	gp,22
8000045c:	00000213          	li	tp,0
80000460:	f00000b7          	lui	ra,0xf0000
80000464:	fff08093          	addi	ra,ra,-1 # efffffff <_end+0x4ffff5b7>
80000468:	00000013          	nop
8000046c:	f0000137          	lui	sp,0xf0000
80000470:	00000013          	nop
80000474:	0620f663          	bgeu	ra,sp,800004e0 <fail>
80000478:	00120213          	addi	tp,tp,1 # 1 <__heap_size-0x1ff>
8000047c:	00200293          	li	t0,2
80000480:	fe5210e3          	bne	tp,t0,80000460 <test_22+0x8>
80000484:	01700193          	li	gp,23
80000488:	00000213          	li	tp,0
8000048c:	f00000b7          	lui	ra,0xf0000
80000490:	fff08093          	addi	ra,ra,-1 # efffffff <_end+0x4ffff5b7>
80000494:	00000013          	nop
80000498:	00000013          	nop
8000049c:	f0000137          	lui	sp,0xf0000
800004a0:	0420f063          	bgeu	ra,sp,800004e0 <fail>
800004a4:	00120213          	addi	tp,tp,1 # 1 <__heap_size-0x1ff>
800004a8:	00200293          	li	t0,2
800004ac:	fe5210e3          	bne	tp,t0,8000048c <test_23+0x8>
800004b0:	01800193          	li	gp,24
800004b4:	00100093          	li	ra,1
800004b8:	0000fa63          	bgeu	ra,zero,800004cc <test_24+0x1c>
800004bc:	00108093          	addi	ra,ra,1
800004c0:	00108093          	addi	ra,ra,1
800004c4:	00108093          	addi	ra,ra,1
800004c8:	00108093          	addi	ra,ra,1
800004cc:	00108093          	addi	ra,ra,1
800004d0:	00108093          	addi	ra,ra,1
800004d4:	00300393          	li	t2,3
800004d8:	00709463          	bne	ra,t2,800004e0 <fail>
800004dc:	02301063          	bne	zero,gp,800004fc <pass>
800004e0:	0ff0000f          	fence
800004e4:	00018063          	beqz	gp,800004e4 <fail+0x4>
800004e8:	00119193          	slli	gp,gp,0x1
800004ec:	0011e193          	ori	gp,gp,1
800004f0:	05d00893          	li	a7,93
800004f4:	00018513          	mv	a0,gp
800004f8:	00000073          	ecall
800004fc:	0ff0000f          	fence
80000500:	00100193          	li	gp,1
80000504:	05d00893          	li	a7,93
80000508:	00000513          	li	a0,0
8000050c:	00000073          	ecall
80000510:	c0001073          	unimp
80000514:	0000                	.insn	2, 0x
80000516:	0000                	.insn	2, 0x
80000518:	0000                	.insn	2, 0x
8000051a:	0000                	.insn	2, 0x
8000051c:	0000                	.insn	2, 0x
8000051e:	0000                	.insn	2, 0x
80000520:	0000                	.insn	2, 0x
80000522:	0000                	.insn	2, 0x
80000524:	0000                	.insn	2, 0x
80000526:	0000                	.insn	2, 0x
80000528:	0000                	.insn	2, 0x
8000052a:	0000                	.insn	2, 0x
8000052c:	0000                	.insn	2, 0x
8000052e:	0000                	.insn	2, 0x
80000530:	0000                	.insn	2, 0x
80000532:	0000                	.insn	2, 0x
80000534:	0000                	.insn	2, 0x
80000536:	0000                	.insn	2, 0x
80000538:	0000                	.insn	2, 0x
8000053a:	0000                	.insn	2, 0x
80000000:	0500006f          	j	80000050 <reset_vector>
80000004:	34202f73          	csrr	t5,mcause
80000008:	00800f93          	li	t6,8
8000000c:	03ff0863          	beq	t5,t6,8000003c <write_tohost>
80000010:	00900f93          	li	t6,9
80000014:	03ff0463          	beq	t5,t6,8000003c <write_tohost>
80000018:	00b00f93          	li	t6,11
8000001c:	03ff0063          	beq	t5,t6,8000003c <write_tohost>
80000020:	00000f13          	li	t5,0
80000024:	000f0463          	beqz	t5,8000002c <trap_vector+0x28>
80000028:	000f0067          	jr	t5
8000002c:	34202f73          	csrr	t5,mcause
80000030:	000f5463          	bgez	t5,80000038 <handle_exception>
80000034:	0040006f          	j	80000038 <handle_exception>
80000038:	5391e193          	ori	gp,gp,1337
8000003c:	20000f17          	auipc	t5,0x20000
80000040:	fc3f2223          	sw	gp,-60(t5) # a0000000 <tohost>
80000044:	20000f17          	auipc	t5,0x20000
80000048:	fc0f2023          	sw	zero,-64(t5) # a0000004 <tohost+0x4>
8000004c:	ff1ff06f          	j	8000003c <write_tohost>
80000050:	00000093          	li	ra,0
80000054:	00000113          	li	sp,0
80000058:	00000193          	li	gp,0
8000005c:	00000213          	li	tp,0
80000060:	00000293          	li	t0,0
80000064:	00000313          	li	t1,0
80000068:	00000393          	li	t2,0
8000006c:	00000413          	li	s0,0
80000070:	00000493          	li	s1,0
80000074:	00000513          	li	a0,0
80000078:	00000593          	li	a1,0
8000007c:	00000613          	li	a2,0
80000080:	00000693          	li	a3,0
80000084:	00000713          	li	a4,0
80000088:	00000793          	li	a5,0
8000008c:	00000813          	li	a6,0
80000090:	00000893          	li	a7,0
80000094:	00000913          	li	s2,0
80000098:	00000993          	li	s3,0
8000009c:	00000a13          	li	s4,0
800000a0:	00000a93          	li	s5,0
800000a4:	00000b13          	li	s6,0
800000a8:	00000b93          	li	s7,0
800000ac:	00000c13          	li	s8,0
800000b0:	00000c93          	li	s9,0
800000b4:	00000d13          	li	s10,0
800000b8:	00000d93          	li	s11,0
800000bc:	00000e13          	li	t3,0
800000c0:	00000e93          	li	t4,0
800000c4:	00000f13          	li	t5,0
800000c8:	00000f93          	li	t6,0
800000cc:	f1402573          	csrr	a0,mhartid
800000d0:	00051063          	bnez	a0,800000d0 <reset_vector+0x80>
800000d4:	00000297          	auipc	t0,0x0
800000d8:	01028293          	addi	t0,t0,16 # 800000e4 <reset_vector+0x94>
800000dc:	30529073          	csrw	mtvec,t0
800000e0:	74445073          	csrwi	0x744,8
800000e4:	00000297          	auipc	t0,0x0
800000e8:	01028293          	addi	t0,t0,16 # 800000f4 <reset_vector+0xa4>
800000ec:	30529073          	csrw	mtvec,t0
800000f0:	18005073          	csrwi	satp,0
800000f4:	00000297          	auipc	t0,0x0
800000f8:	02028293          	addi	t0,t0,32 # 80000114 <reset_vector+0xc4>
800000fc:	30529073          	csrw	mtvec,t0
80000100:	800002b7          	lui	t0,0x80000
80000104:	fff28293          	addi	t0,t0,-1 # 7fffffff <__stack_size+0x7ffff7ff>
80000108:	3b029073          	csrw	pmpaddr0,t0
8000010c:	01f00293          	li	t0,31
80000110:	3a029073          	csrw	pmpcfg0,t0
80000114:	30405073          	csrwi	mie,0
80000118:	00000297          	auipc	t0,0x0
8000011c:	01428293          	addi	t0,t0,20 # 8000012c <reset_vector+0xdc>
80000120:	30529073          	csrw	mtvec,t0
80000124:	30205073          	csrwi	medeleg,0
80000128:	30305073          	csrwi	mideleg,0
8000012c:	00000193          	li	gp,0
80000130:	00000297          	auipc	t0,0x0
80000134:	ed428293          	addi	t0,t0,-300 # 80000004 <trap_vector>
80000138:	30529073          	csrw	mtvec,t0
8000013c:	00100513          	li	a0,1
80000140:	01f51513          	slli	a0,a0,0x1f
80000144:	00054c63          	bltz	a0,8000015c <reset_vector+0x10c>
80000148:	0ff0000f          	fence
8000014c:	00100193          	li	gp,1
80000150:	05d00893          	li	a7,93
80000154:	00000513          	li	a0,0
80000158:	00000073          	ecall
8000015c:	00000293          	li	t0,0
80000160:	00028a63          	beqz	t0,80000174 <reset_vector+0x124>
80000164:	10529073          	csrw	stvec,t0
80000168:	0000b2b7          	lui	t0,0xb
8000016c:	10928293          	addi	t0,t0,265 # b109 <__stack_size+0xa909>
80000170:	30229073          	csrw	medeleg,t0
80000174:	30005073          	csrwi	mstatus,0
80000178:	00000297          	auipc	t0,0x0
8000017c:	01428293          	addi	t0,t0,20 # 8000018c <test_2>
80000180:	34129073          	csrw	mepc,t0
80000184:	f1402573          	csrr	a0,mhartid
80000188:	30200073          	mret
8000018c:	00200193          	li	gp,2
80000190:	00000093          	li	ra,0
80000194:	00000113          	li	sp,0
80000198:	0020d663          	bge	ra,sp,800001a4 <test_2+0x18>
8000019c:	30301863          	bne	zero,gp,800004ac <fail>
800001a0:	00301663          	bne	zero,gp,800001ac <test_3>
800001a4:	fe20dee3          	bge	ra,sp,800001a0 <test_2+0x14>
800001a8:	30301263          	bne	zero,gp,800004ac <fail>
800001ac:	00300193          	li	gp,3
800001b0:	00100093          	li	ra,1
800001b4:	00100113          	li	sp,1
800001b8:	0020d663          	bge	ra,sp,800001c4 <test_3+0x18>
800001bc:	2e301863          	bne	zero,gp,800004ac <fail>
800001c0:	00301663          	bne	zero,gp,800001cc <test_4>
800001c4:	fe20dee3          	bge	ra,sp,800001c0 <test_3+0x14>
800001c8:	2e301263          	bne	zero,gp,800004ac <fail>
800001cc:	00400193          	li	gp,4
800001d0:	fff00093          	li	ra,-1
800001d4:	fff00113          	li	sp,-1
800001d8:	0020d663          	bge	ra,sp,800001e4 <test_4+0x18>
800001dc:	2c301863          	bne	zero,gp,800004ac <fail>
800001e0:	00301663          	bne	zero,gp,800001ec <test_5>
800001e4:	fe20dee3          	bge	ra,sp,800001e0 <test_4+0x14>
800001e8:	2c301263          	bne	zero,gp,800004ac <fail>
800001ec:	00500193          	li	gp,5
800001f0:	00100093          	li	ra,1
800001f4:	00000113          	li	sp,0
800001f8:	0020d663          	bge	ra,sp,80000204 <test_5+0x18>
800001fc:	2a301863          	bne	zero,gp,800004ac <fail>
80000200:	00301663          	bne	zero,gp,8000020c <test_6>
80000204:	fe20dee3          	bge	ra,sp,80000200 <test_5+0x14>
80000208:	2a301263          	bne	zero,gp,800004ac <fail>
8000020c:	00600193          	li	gp,6
80000210:	00100093          	li	ra,1
80000214:	fff00113          	li	sp,-1
80000218:	0020d663          	bge	ra,sp,80000224 <test_6+0x18>
8000021c:	28301863          	bne	zero,gp,800004ac <fail>
80000220:	00301663          	bne	zero,gp,8000022c <test_7>
80000224:	fe20dee3          	bge	ra,sp,80000220 <test_6+0x14>
80000228:	28301263          	bne	zero,gp,800004ac <fail>
8000022c:	00700193          	li	gp,7
80000230:	fff00093          	li	ra,-1
80000234:	ffe00113          	li	sp,-2
80000238:	0020d663          	bge	ra,sp,80000244 <test_7+0x18>
8000023c:	26301863          	bne	zero,gp,800004ac <fail>
80000240:	00301663          	bne	zero,gp,8000024c <test_8>
80000244:	fe20dee3          	bge	ra,sp,80000240 <test_7+0x14>
80000248:	26301263          	bne	zero,gp,800004ac <fail>
8000024c:	00800193          	li	gp,8
80000250:	00000093          	li	ra,0
80000254:	00100113          	li	sp,1
80000258:	0020d463          	bge	ra,sp,80000260 <test_8+0x14>
8000025c:	00301463          	bne	zero,gp,80000264 <test_8+0x18>
80000260:	24301663          	bne	zero,gp,800004ac <fail>
80000264:	fe20dee3          	bge	ra,sp,80000260 <test_8+0x14>
80000268:	00900193          	li	gp,9
8000026c:	fff00093          	li	ra,-1
80000270:	00100113          	li	sp,1
80000274:	0020d463          	bge	ra,sp,8000027c <test_9+0x14>
80000278:	00301463          	bne	zero,gp,80000280 <test_9+0x18>
8000027c:	22301863          	bne	zero,gp,800004ac <fail>
80000280:	fe20dee3          	bge	ra,sp,8000027c <test_9+0x14>
80000284:	00a00193          	li	gp,10
80000288:	ffe00093          	li	ra,-2
8000028c:	fff00113          	li	sp,-1
80000290:	0020d463          	bge	ra,sp,80000298 <test_10+0x14>
80000294:	00301463          	bne	zero,gp,8000029c <test_10+0x18>
80000298:	20301a63          	bne	zero,gp,800004ac <fail>
8000029c:	fe20dee3          	bge	ra,sp,80000298 <test_10+0x14>
800002a0:	00b00193          	li	gp,11
800002a4:	ffe00093          	li	ra,-2
800002a8:	00100113          	li	sp,1
800002ac:	0020d463          	bge	ra,sp,800002b4 <test_11+0x14>
800002b0:	00301463          	bne	zero,gp,800002b8 <test_11+0x18>
800002b4:	1e301c63          	bne	zero,gp,800004ac <fail>
800002b8:	fe20dee3          	bge	ra,sp,800002b4 <test_11+0x14>
800002bc:	00c00193          	li	gp,12
800002c0:	00000213          	li	tp,0
800002c4:	fff00093          	li	ra,-1
800002c8:	00000113          	li	sp,0
800002cc:	1e20d063          	bge	ra,sp,800004ac <fail>
800002d0:	00120213          	addi	tp,tp,1 # 1 <__heap_size-0x1ff>
800002d4:	00200293          	li	t0,2
800002d8:	fe5216e3          	bne	tp,t0,800002c4 <test_12+0x8>
800002dc:	00d00193          	li	gp,13
800002e0:	00000213          	li	tp,0
800002e4:	fff00093          	li	ra,-1
800002e8:	00000113          	li	sp,0
800002ec:	00000013          	nop
800002f0:	1a20de63          	bge	ra,sp,800004ac <fail>
800002f4:	00120213          	addi	tp,tp,1 # 1 <__heap_size-0x1ff>
800002f8:	00200293          	li	t0,2
800002fc:	fe5214e3          	bne	tp,t0,800002e4 <test_13+0x8>
80000300:	00e00193          	li	gp,14
80000304:	00000213          	li	tp,0
80000308:	fff00093          	li	ra,-1
8000030c:	00000113          	li	sp,0
80000310:	00000013          	nop
80000314:	00000013          	nop
80000318:	1820da63          	bge	ra,sp,800004ac <fail>
8000031c:	00120213          	addi	tp,tp,1 # 1 <__heap_size-0x1ff>
80000320:	00200293          	li	t0,2
80000324:	fe5212e3          	bne	tp,t0,80000308 <test_14+0x8>
80000328:	00f00193          	li	gp,15
8000032c:	00000213          	li	tp,0
80000330:	fff00093          	li	ra,-1
80000334:	00000013          	nop
80000338:	00000113          	li	sp,0
8000033c:	1620d863          	bge	ra,sp,800004ac <fail>
80000340:	00120213          	addi	tp,tp,1 # 1 <__heap_size-0x1ff>
80000344:	00200293          	li	t0,2
80000348:	fe5214e3          	bne	tp,t0,80000330 <test_15+0x8>
8000034c:	01000193          	li	gp,16
80000350:	00000213          	li	tp,0
80000354:	fff00093          	li	ra,-1
80000358:	00000013          	nop
8000035c:	00000113          	li	sp,0
80000360:	00000013          	nop
80000364:	1420d463          	bge	ra,sp,800004ac <fail>
80000368:	00120213          	addi	tp,tp,1 # 1 <__heap_size-0x1ff>
8000036c:	00200293          	li	t0,2
80000370:	fe5212e3          	bne	tp,t0,80000354 <test_16+0x8>
80000374:	01100193          	li	gp,17
80000378:	00000213          	li	tp,0
8000037c:	fff00093          	li	ra,-1
80000380:	00000013          	nop
80000384:	00000013          	nop
80000388:	00000113          	li	sp,0
8000038c:	1220d063          	bge	ra,sp,800004ac <fail>
80000390:	00120213          	addi	tp,tp,1 # 1 <__heap_size-0x1ff>
80000394:	00200293          	li	t0,2
80000398:	fe5212e3          	bne	tp,t0,8000037c <test_17+0x8>
8000039c:	01200193          	li	gp,18
800003a0:	00000213          	li	tp,0
800003a4:	fff00093          	li	ra,-1
800003a8:	00000113          	li	sp,0
800003ac:	1020d063          	bge	ra,sp,800004ac <fail>
800003b0:	00120213          	addi	tp,tp,1 # 1 <__heap_size-0x1ff>
800003b4:	00200293          	li	t0,2
800003b8:	fe5216e3          	bne	tp,t0,800003a4 <test_18+0x8>
800003bc:	01300193          	li	gp,19
800003c0:	00000213          	li	tp,0
800003c4:	fff00093          	li	ra,-1
800003c8:	00000113          	li	sp,0
800003cc:	00000013          	nop
800003d0:	0c20de63          	bge	ra,sp,800004ac <fail>
800003d4:	00120213          	addi	tp,tp,1 # 1 <__heap_size-0x1ff>
800003d8:	00200293          	li	t0,2
800003dc:	fe5214e3          	bne	tp,t0,800003c4 <test_19+0x8>
800003e0:	01400193          	li	gp,20
800003e4:	00000213          	li	tp,0
800003e8:	fff00093          	li	ra,-1
800003ec:	00000113          	li	sp,0
800003f0:	00000013          	nop
800003f4:	00000013          	nop
800003f8:	0a20da63          	bge	ra,sp,800004ac <fail>
800003fc:	00120213          	addi	tp,tp,1 # 1 <__heap_size-0x1ff>
80000400:	00200293          	li	t0,2
80000404:	fe5212e3          	bne	tp,t0,800003e8 <test_20+0x8>
80000408:	01500193          	li	gp,21
8000040c:	00000213          	li	tp,0
80000410:	fff00093          	li	ra,-1
80000414:	00000013          	nop
80000418:	00000113          	li	sp,0
8000041c:	0820d863          	bge	ra,sp,800004ac <fail>
80000420:	00120213          	addi	tp,tp,1 # 1 <__heap_size-0x1ff>
80000424:	00200293          	li	t0,2
80000428:	fe5214e3          	bne	tp,t0,80000410 <test_21+0x8>
8000042c:	01600193          	li	gp,22
80000430:	00000213          	li	tp,0
80000434:	fff00093          	li	ra,-1
80000438:	00000013          	nop
8000043c:	00000113          	li	sp,0
80000440:	00000013          	nop
80000444:	0620d463          	bge	ra,sp,800004ac <fail>
80000448:	00120213          	addi	tp,tp,1 # 1 <__heap_size-0x1ff>
8000044c:	00200293          	li	t0,2
80000450:	fe5212e3          	bne	tp,t0,80000434 <test_22+0x8>
80000454:	01700193          	li	gp,23
80000458:	00000213          	li	tp,0
8000045c:	fff00093          	li	ra,-1
80000460:	00000013          	nop
80000464:	00000013          	nop
80000468:	00000113          	li	sp,0
8000046c:	0420d063          	bge	ra,sp,800004ac <fail>
80000470:	00120213          	addi	tp,tp,1 # 1 <__heap_size-0x1ff>
80000474:	00200293          	li	t0,2
80000478:	fe5212e3          	bne	tp,t0,8000045c <test_23+0x8>
8000047c:	01800193          	li	gp,24
80000480:	00100093          	li	ra,1
80000484:	0000da63          	bgez	ra,80000498 <test_24+0x1c>
80000488:	00108093          	addi	ra,ra,1
8000048c:	00108093          	addi	ra,ra,1
80000490:	00108093          	addi	ra,ra,1
80000494:	00108093          	addi	ra,ra,1
80000498:	00108093          	addi	ra,ra,1
8000049c:	00108093          	addi	ra,ra,1
800004a0:	00300393          	li	t2,3
800004a4:	00709463          	bne	ra,t2,800004ac <fail>
800004a8:	02301063          	bne	zero,gp,800004c8 <pass>
800004ac:	0ff0000f          	fence
800004b0:	00018063          	beqz	gp,800004b0 <fail+0x4>
800004b4:	00119193          	slli	gp,gp,0x1
800004b8:	0011e193          	ori	gp,gp,1
800004bc:	05d00893          	li	a7,93
800004c0:	00018513          	mv	a0,gp
800004c4:	00000073          	ecall
800004c8:	0ff0000f          	fence
800004cc:	00100193          	li	gp,1
800004d0:	05d00893          	li	a7,93
800004d4:	00000513          	li	a0,0
800004d8:	00000073          	ecall
800004dc:	c0001073          	unimp
800004e0:	0000                	.insn	2, 0x
800004e2:	0000                	.insn	2, 0x
800004e4:	0000                	.insn	2, 0x
800004e6:	0000                	.insn	2, 0x
800004e8:	0000                	.insn	2, 0x
800004ea:	0000                	.insn	2, 0x
800004ec:	0000                	.insn	2, 0x
800004ee:	0000                	.insn	2, 0x
800004f0:	0000                	.insn	2, 0x
800004f2:	0000                	.insn	2, 0x
800004f4:	0000                	.insn	2, 0x
800004f6:	0000                	.insn	2, 0x
800004f8:	0000                	.insn	2, 0x
800004fa:	0000                	.insn	2, 0x
80000000:	0500006f          	j	80000050 <reset_vector>
80000004:	34202f73          	csrr	t5,mcause
80000008:	00800f93          	li	t6,8
8000000c:	03ff0863          	beq	t5,t6,8000003c <write_tohost>
80000010:	00900f93          	li	t6,9
80000014:	03ff0463          	beq	t5,t6,8000003c <write_tohost>
80000018:	00b00f93          	li	t6,11
8000001c:	03ff0063          	beq	t5,t6,8000003c <write_tohost>
80000020:	00000f13          	li	t5,0
80000024:	000f0463          	beqz	t5,8000002c <trap_vector+0x28>
80000028:	000f0067          	jr	t5
8000002c:	34202f73          	csrr	t5,mcause
80000030:	000f5463          	bgez	t5,80000038 <handle_exception>
80000034:	0040006f          	j	80000038 <handle_exception>
80000038:	5391e193          	ori	gp,gp,1337
8000003c:	20000f17          	auipc	t5,0x20000
80000040:	fc3f2223          	sw	gp,-60(t5) # a0000000 <tohost>
80000044:	20000f17          	auipc	t5,0x20000
80000048:	fc0f2023          	sw	zero,-64(t5) # a0000004 <tohost+0x4>
8000004c:	ff1ff06f          	j	8000003c <write_tohost>
80000050:	00000093          	li	ra,0
80000054:	00000113          	li	sp,0
80000058:	00000193          	li	gp,0
8000005c:	00000213          	li	tp,0
80000060:	00000293          	li	t0,0
80000064:	00000313          	li	t1,0
80000068:	00000393          	li	t2,0
8000006c:	00000413          	li	s0,0
80000070:	00000493          	li	s1,0
80000074:	00000513          	li	a0,0
80000078:	00000593          	li	a1,0
8000007c:	00000613          	li	a2,0
80000080:	00000693          	li	a3,0
80000084:	00000713          	li	a4,0
80000088:	00000793          	li	a5,0
8000008c:	00000813          	li	a6,0
80000090:	00000893          	li	a7,0
80000094:	00000913          	li	s2,0
80000098:	00000993          	li	s3,0
8000009c:	00000a13          	li	s4,0
800000a0:	00000a93          	li	s5,0
800000a4:	00000b13          	li	s6,0
800000a8:	00000b93          	li	s7,0
800000ac:	00000c13          	li	s8,0
800000b0:	00000c93          	li	s9,0
800000b4:	00000d13          	li	s10,0
800000b8:	00000d93          	li	s11,0
800000bc:	00000e13          	li	t3,0
800000c0:	00000e93          	li	t4,0
800000c4:	00000f13          	li	t5,0
800000c8:	00000f93          	li	t6,0
800000cc:	f1402573          	csrr	a0,mhartid
800000d0:	00051063          	bnez	a0,800000d0 <reset_vector+0x80>
800000d4:	00000297          	auipc	t0,0x0
800000d8:	01028293          	addi	t0,t0,16 # 800000e4 <reset_vector+0x94>
800000dc:	30529073          	csrw	mtvec,t0
800000e0:	74445073          	csrwi	0x744,8
800000e4:	00000297          	auipc	t0,0x0
800000e8:	01028293          	addi	t0,t0,16 # 800000f4 <reset_vector+0xa4>
800000ec:	30529073          	csrw	mtvec,t0
800000f0:	18005073          	csrwi	satp,0
800000f4:	00000297          	auipc	t0,0x0
800000f8:	02028293          	addi	t0,t0,32 # 80000114 <reset_vector+0xc4>
800000fc:	30529073          	csrw	mtvec,t0
80000100:	800002b7          	lui	t0,0x80000
80000104:	fff28293          	addi	t0,t0,-1 # 7fffffff <__stack_size+0x7ffff7ff>
80000108:	3b029073          	csrw	pmpaddr0,t0
8000010c:	01f00293          	li	t0,31
80000110:	3a029073          	csrw	pmpcfg0,t0
80000114:	30405073          	csrwi	mie,0
80000118:	00000297          	auipc	t0,0x0
8000011c:	01428293          	addi	t0,t0,20 # 8000012c <reset_vector+0xdc>
80000120:	30529073          	csrw	mtvec,t0
80000124:	30205073          	csrwi	medeleg,0
80000128:	30305073          	csrwi	mideleg,0
8000012c:	00000193          	li	gp,0
80000130:	00000297          	auipc	t0,0x0
80000134:	ed428293          	addi	t0,t0,-300 # 80000004 <trap_vector>
80000138:	30529073          	csrw	mtvec,t0
8000013c:	00100513          	li	a0,1
80000140:	01f51513          	slli	a0,a0,0x1f
80000144:	00054c63          	bltz	a0,8000015c <reset_vector+0x10c>
80000148:	0ff0000f          	fence
8000014c:	00100193          	li	gp,1
80000150:	05d00893          	li	a7,93
80000154:	00000513          	li	a0,0
80000158:	00000073          	ecall
8000015c:	00000293          	li	t0,0
80000160:	00028a63          	beqz	t0,80000174 <reset_vector+0x124>
80000164:	10529073          	csrw	stvec,t0
80000168:	0000b2b7          	lui	t0,0xb
8000016c:	10928293          	addi	t0,t0,265 # b109 <__stack_size+0xa909>
80000170:	30229073          	csrw	medeleg,t0
80000174:	30005073          	csrwi	mstatus,0
80000178:	00000297          	auipc	t0,0x0
8000017c:	01428293          	addi	t0,t0,20 # 8000018c <test_2>
80000180:	34129073          	csrw	mepc,t0
80000184:	f1402573          	csrr	a0,mhartid
80000188:	30200073          	mret
8000018c:	00200193          	li	gp,2
80000190:	00100693          	li	a3,1
80000194:	00069713          	slli	a4,a3,0x0
80000198:	00100393          	li	t2,1
8000019c:	26771a63          	bne	a4,t2,80000410 <fail>
800001a0:	00300193          	li	gp,3
800001a4:	00100693          	li	a3,1
800001a8:	00169713          	slli	a4,a3,0x1
800001ac:	00200393          	li	t2,2
800001b0:	26771063          	bne	a4,t2,80000410 <fail>
800001b4:	00400193          	li	gp,4
800001b8:	00100693          	li	a3,1
800001bc:	00769713          	slli	a4,a3,0x7
800001c0:	08000393          	li	t2,128
800001c4:	24771663          	bne	a4,t2,80000410 <fail>
800001c8:	00500193          	li	gp,5
800001cc:	00100693          	li	a3,1
800001d0:	00e69713          	slli	a4,a3,0xe
800001d4:	000043b7          	lui	t2,0x4
800001d8:	22771c63          	bne	a4,t2,80000410 <fail>
800001dc:	00600193          	li	gp,6
800001e0:	00100693          	li	a3,1
800001e4:	01f69713          	slli	a4,a3,0x1f
800001e8:	800003b7          	lui	t2,0x80000
800001ec:	22771263          	bne	a4,t2,80000410 <fail>
800001f0:	00700193          	li	gp,7
800001f4:	fff00693          	li	a3,-1
800001f8:	00069713          	slli	a4,a3,0x0
800001fc:	fff00393          	li	t2,-1
80000200:	20771863          	bne	a4,t2,80000410 <fail>
80000204:	00800193          	li	gp,8
80000208:	fff00693          	li	a3,-1
8000020c:	00169713          	slli	a4,a3,0x1
80000210:	ffe00393          	li	t2,-2
80000214:	1e771e63          	bne	a4,t2,80000410 <fail>
80000218:	00900193          	li	gp,9
8000021c:	fff00693          	li	a3,-1
80000220:	00769713          	slli	a4,a3,0x7
80000224:	f8000393          	li	t2,-128
80000228:	1e771463          	bne	a4,t2,80000410 <fail>
8000022c:	00a00193          	li	gp,10
80000230:	fff00693          	li	a3,-1
80000234:	00e69713          	slli	a4,a3,0xe
80000238:	ffffc3b7          	lui	t2,0xffffc
8000023c:	1c771a63          	bne	a4,t2,80000410 <fail>
80000240:	00b00193          	li	gp,11
80000244:	fff00693          	li	a3,-1
80000248:	01f69713          	slli	a4,a3,0x1f
8000024c:	800003b7          	lui	t2,0x80000
80000250:	1c771063          	bne	a4,t2,80000410 <fail>
80000254:	00c00193          	li	gp,12
80000258:	212126b7          	lui	a3,0x21212
8000025c:	12168693          	addi	a3,a3,289 # 21212121 <__stack_size+0x21211921>
80000260:	00069713          	slli	a4,a3,0x0
80000264:	212123b7          	lui	t2,0x21212
80000268:	12138393          	addi	t2,t2,289 # 21212121 <__stack_size+0x21211921>
8000026c:	1a771263          	bne	a4,t2,80000410 <fail>
80000270:	00d00193          	li	gp,13
80000274:	212126b7          	lui	a3,0x21212
80000278:	12168693          	addi	a3,a3,289 # 21212121 <__stack_size+0x21211921>
8000027c:	00169713          	slli	a4,a3,0x1
80000280:	424243b7          	lui	t2,0x42424
80000284:	24238393          	addi	t2,t2,578 # 42424242 <__stack_size+0x42423a42>
80000288:	18771463          	bne	a4,t2,80000410 <fail>
8000028c:	00e00193          	li	gp,14
80000290:	212126b7          	lui	a3,0x21212
80000294:	12168693          	addi	a3,a3,289 # 21212121 <__stack_size+0x21211921>
80000298:	00769713          	slli	a4,a3,0x7
8000029c:	909093b7          	lui	t2,0x90909
800002a0:	08038393          	addi	t2,t2,128 # 90909080 <pass+0x10908c54>
800002a4:	16771663          	bne	a4,t2,80000410 <fail>
800002a8:	00f00193          	li	gp,15
800002ac:	212126b7          	lui	a3,0x21212
800002b0:	12168693          	addi	a3,a3,289 # 21212121 <__stack_size+0x21211921>
800002b4:	00e69713          	slli	a4,a3,0xe
800002b8:	484843b7          	lui	t2,0x48484
800002bc:	14771a63          	bne	a4,t2,80000410 <fail>
800002c0:	01000193          	li	gp,16
800002c4:	212126b7          	lui	a3,0x21212
800002c8:	12168693          	addi	a3,a3,289 # 21212121 <__stack_size+0x21211921>
800002cc:	01f69713          	slli	a4,a3,0x1f
800002d0:	800003b7          	lui	t2,0x80000
800002d4:	12771e63          	bne	a4,t2,80000410 <fail>
800002d8:	01100193          	li	gp,17
800002dc:	00100593          	li	a1,1
800002e0:	00759593          	slli	a1,a1,0x7
800002e4:	08000393          	li	t2,128
800002e8:	12759463          	bne	a1,t2,80000410 <fail>
800002ec:	01200193          	li	gp,18
800002f0:	00000213          	li	tp,0
800002f4:	00100093          	li	ra,1
800002f8:	00709713          	slli	a4,ra,0x7
800002fc:	00070313          	mv	t1,a4
80000300:	00120213          	addi	tp,tp,1 # 1 <__heap_size-0x1ff>
80000304:	00200293          	li	t0,2
80000308:	fe5216e3          	bne	tp,t0,800002f4 <test_18+0x8>
8000030c:	08000393          	li	t2,128
80000310:	10731063          	bne	t1,t2,80000410 <fail>
80000314:	01300193          	li	gp,19
80000318:	00000213          	li	tp,0
8000031c:	00100093          	li	ra,1
80000320:	00e09713          	slli	a4,ra,0xe
80000324:	00000013          	nop
80000328:	00070313          	mv	t1,a4
8000032c:	00120213          	addi	tp,tp,1 # 1 <__heap_size-0x1ff>
80000330:	00200293          	li	t0,2
80000334:	fe5214e3          	bne	tp,t0,8000031c <test_19+0x8>
80000338:	000043b7          	lui	t2,0x4
8000033c:	0c731a63          	bne	t1,t2,80000410 <fail>
80000340:	01400193          	li	gp,20
80000344:	00000213          	li	tp,0
80000348:	00100093          	li	ra,1
8000034c:	01f09713          	slli	a4,ra,0x1f
80000350:	00000013          	nop
80000354:	00000013          	nop
80000358:	00070313          	mv	t1,a4
8000035c:	00120213          	addi	tp,tp,1 # 1 <__heap_size-0x1ff>
80000360:	00200293          	li	t0,2
80000364:	fe5212e3          	bne	tp,t0,80000348 <test_20+0x8>
80000368:	800003b7          	lui	t2,0x80000
8000036c:	0a731263          	bne	t1,t2,80000410 <fail>
80000370:	01500193          	li	gp,21
80000374:	00000213          	li	tp,0
80000378:	00100093          	li	ra,1
8000037c:	00709713          	slli	a4,ra,0x7
80000380:	00120213          	addi	tp,tp,1 # 1 <__heap_size-0x1ff>
80000384:	00200293          	li	t0,2
80000388:	fe5218e3          	bne	tp,t0,80000378 <test_21+0x8>
8000038c:	08000393          	li	t2,128
80000390:	08771063          	bne	a4,t2,80000410 <fail>
80000394:	01600193          	li	gp,22
80000398:	00000213          	li	tp,0
8000039c:	00100093          	li	ra,1
800003a0:	00000013          	nop
800003a4:	00e09713          	slli	a4,ra,0xe
800003a8:	00120213          	addi	tp,tp,1 # 1 <__heap_size-0x1ff>
800003ac:	00200293          	li	t0,2
800003b0:	fe5216e3          	bne	tp,t0,8000039c <test_22+0x8>
800003b4:	000043b7          	lui	t2,0x4
800003b8:	04771c63          	bne	a4,t2,80000410 <fail>
800003bc:	01700193          	li	gp,23
800003c0:	00000213          	li	tp,0
800003c4:	00100093          	li	ra,1
800003c8:	00000013          	nop
800003cc:	00000013          	nop
800003d0:	01f09713          	slli	a4,ra,0x1f
800003d4:	00120213          	addi	tp,tp,1 # 1 <__heap_size-0x1ff>
800003d8:	00200293          	li	t0,2
800003dc:	fe5214e3          	bne	tp,t0,800003c4 <test_23+0x8>
800003e0:	800003b7          	lui	t2,0x80000
800003e4:	02771663          	bne	a4,t2,80000410 <fail>
800003e8:	01800193          	li	gp,24
800003ec:	01f01093          	slli	ra,zero,0x1f
800003f0:	00000393          	li	t2,0
800003f4:	00709e63          	bne	ra,t2,80000410 <fail>
800003f8:	01900193          	li	gp,25
800003fc:	02100093          	li	ra,33
80000400:	01409013          	slli	zero,ra,0x14
80000404:	00000393          	li	t2,0
80000408:	00701463          	bne	zero,t2,80000410 <fail>
8000040c:	02301063          	bne	zero,gp,8000042c <pass>
80000410:	0ff0000f          	fence
80000414:	00018063          	beqz	gp,80000414 <fail+0x4>
80000418:	00119193          	slli	gp,gp,0x1
8000041c:	0011e193          	ori	gp,gp,1
80000420:	05d00893          	li	a7,93
80000424:	00018513          	mv	a0,gp
80000428:	00000073          	ecall
8000042c:	0ff0000f          	fence
80000430:	00100193          	li	gp,1
80000434:	05d00893          	li	a7,93
80000438:	00000513          	li	a0,0
8000043c:	00000073          	ecall
80000440:	c0001073          	unimp
80000444:	0000                	.insn	2, 0x
80000446:	0000                	.insn	2, 0x
80000448:	0000                	.insn	2, 0x
8000044a:	0000                	.insn	2, 0x
8000044c:	0000                	.insn	2, 0x
8000044e:	0000                	.insn	2, 0x
80000450:	0000                	.insn	2, 0x
80000452:	0000                	.insn	2, 0x
80000454:	0000                	.insn	2, 0x
80000456:	0000                	.insn	2, 0x
80000458:	0000                	.insn	2, 0x
8000045a:	0000                	.insn	2, 0x
8000045c:	0000                	.insn	2, 0x
8000045e:	0000                	.insn	2, 0x
80000460:	0000                	.insn	2, 0x
80000462:	0000                	.insn	2, 0x
80000464:	0000                	.insn	2, 0x
80000466:	0000                	.insn	2, 0x
80000468:	0000                	.insn	2, 0x
8000046a:	0000                	.insn	2, 0x
8000046c:	0000                	.insn	2, 0x
8000046e:	0000                	.insn	2, 0x
80000470:	0000                	.insn	2, 0x
80000472:	0000                	.insn	2, 0x
80000474:	0000                	.insn	2, 0x
80000476:	0000                	.insn	2, 0x
80000478:	0000                	.insn	2, 0x
8000047a:	0000                	.insn	2, 0x
80000000:	0500006f          	j	80000050 <reset_vector>
80000004:	34202f73          	csrr	t5,mcause
80000008:	00800f93          	li	t6,8
8000000c:	03ff0863          	beq	t5,t6,8000003c <write_tohost>
80000010:	00900f93          	li	t6,9
80000014:	03ff0463          	beq	t5,t6,8000003c <write_tohost>
80000018:	00b00f93          	li	t6,11
8000001c:	03ff0063          	beq	t5,t6,8000003c <write_tohost>
80000020:	00000f13          	li	t5,0
80000024:	000f0463          	beqz	t5,8000002c <trap_vector+0x28>
80000028:	000f0067          	jr	t5
8000002c:	34202f73          	csrr	t5,mcause
80000030:	000f5463          	bgez	t5,80000038 <handle_exception>
80000034:	0040006f          	j	80000038 <handle_exception>
80000038:	5391e193          	ori	gp,gp,1337
8000003c:	20000f17          	auipc	t5,0x20000
80000040:	003f2223          	sw	gp,4(t5) # a0000040 <tohost>
80000044:	20000f17          	auipc	t5,0x20000
80000048:	000f2023          	sw	zero,0(t5) # a0000044 <tohost+0x4>
8000004c:	ff1ff06f          	j	8000003c <write_tohost>
80000050:	00000093          	li	ra,0
80000054:	00000113          	li	sp,0
80000058:	00000193          	li	gp,0
8000005c:	00000213          	li	tp,0
80000060:	00000293          	li	t0,0
80000064:	00000313          	li	t1,0
80000068:	00000393          	li	t2,0
8000006c:	00000413          	li	s0,0
80000070:	00000493          	li	s1,0
80000074:	00000513          	li	a0,0
80000078:	00000593          	li	a1,0
8000007c:	00000613          	li	a2,0
80000080:	00000693          	li	a3,0
80000084:	00000713          	li	a4,0
80000088:	00000793          	li	a5,0
8000008c:	00000813          	li	a6,0
80000090:	00000893          	li	a7,0
80000094:	00000913          	li	s2,0
80000098:	00000993          	li	s3,0
8000009c:	00000a13          	li	s4,0
800000a0:	00000a93          	li	s5,0
800000a4:	00000b13          	li	s6,0
800000a8:	00000b93          	li	s7,0
800000ac:	00000c13          	li	s8,0
800000b0:	00000c93          	li	s9,0
800000b4:	00000d13          	li	s10,0
800000b8:	00000d93          	li	s11,0
800000bc:	00000e13          	li	t3,0
800000c0:	00000e93          	li	t4,0
800000c4:	00000f13          	li	t5,0
800000c8:	00000f93          	li	t6,0
800000cc:	f1402573          	csrr	a0,mhartid
800000d0:	00051063          	bnez	a0,800000d0 <reset_vector+0x80>
800000d4:	00000297          	auipc	t0,0x0
800000d8:	01028293          	addi	t0,t0,16 # 800000e4 <reset_vector+0x94>
800000dc:	30529073          	csrw	mtvec,t0
800000e0:	74445073          	csrwi	0x744,8
800000e4:	00000297          	auipc	t0,0x0
800000e8:	01028293          	addi	t0,t0,16 # 800000f4 <reset_vector+0xa4>
800000ec:	30529073          	csrw	mtvec,t0
800000f0:	18005073          	csrwi	satp,0
800000f4:	00000297          	auipc	t0,0x0
800000f8:	02028293          	addi	t0,t0,32 # 80000114 <reset_vector+0xc4>
800000fc:	30529073          	csrw	mtvec,t0
80000100:	800002b7          	lui	t0,0x80000
80000104:	fff28293          	addi	t0,t0,-1 # 7fffffff <__stack_size+0x7ffff7ff>
80000108:	3b029073          	csrw	pmpaddr0,t0
8000010c:	01f00293          	li	t0,31
80000110:	3a029073          	csrw	pmpcfg0,t0
80000114:	30405073          	csrwi	mie,0
80000118:	00000297          	auipc	t0,0x0
8000011c:	01428293          	addi	t0,t0,20 # 8000012c <reset_vector+0xdc>
80000120:	30529073          	csrw	mtvec,t0
80000124:	30205073          	csrwi	medeleg,0
80000128:	30305073          	csrwi	mideleg,0
8000012c:	00000193          	li	gp,0
80000130:	00000297          	auipc	t0,0x0
80000134:	ed428293          	addi	t0,t0,-300 # 80000004 <trap_vector>
80000138:	30529073          	csrw	mtvec,t0
8000013c:	00100513          	li	a0,1
80000140:	01f51513          	slli	a0,a0,0x1f
80000144:	00054c63          	bltz	a0,8000015c <reset_vector+0x10c>
80000148:	0ff0000f          	fence
8000014c:	00100193          	li	gp,1
80000150:	05d00893          	li	a7,93
80000154:	00000513          	li	a0,0
80000158:	00000073          	ecall
8000015c:	00000293          	li	t0,0
80000160:	00028a63          	beqz	t0,80000174 <reset_vector+0x124>
80000164:	10529073          	csrw	stvec,t0
80000168:	0000b2b7          	lui	t0,0xb
8000016c:	10928293          	addi	t0,t0,265 # b109 <__stack_size+0xa909>
80000170:	30229073          	csrw	medeleg,t0
80000174:	30005073          	csrwi	mstatus,0
80000178:	00000297          	auipc	t0,0x0
8000017c:	01428293          	addi	t0,t0,20 # 8000018c <test_2>
80000180:	34129073          	csrw	mepc,t0
80000184:	f1402573          	csrr	a0,mhartid
80000188:	30200073          	mret
8000018c:	00200193          	li	gp,2
80000190:	20000117          	auipc	sp,0x20000
80000194:	e7010113          	addi	sp,sp,-400 # a0000000 <begin_signature>
80000198:	0aa00093          	li	ra,170
8000019c:	00000797          	auipc	a5,0x0
800001a0:	01478793          	addi	a5,a5,20 # 800001b0 <test_2+0x24>
800001a4:	00111023          	sh	ra,0(sp)
800001a8:	00011703          	lh	a4,0(sp)
800001ac:	0080006f          	j	800001b4 <test_2+0x28>
800001b0:	00008713          	mv	a4,ra
800001b4:	0aa00393          	li	t2,170
800001b8:	4c771663          	bne	a4,t2,80000684 <fail>
800001bc:	00300193          	li	gp,3
800001c0:	20000117          	auipc	sp,0x20000
800001c4:	e4010113          	addi	sp,sp,-448 # a0000000 <begin_signature>
800001c8:	ffffb0b7          	lui	ra,0xffffb
800001cc:	a0008093          	addi	ra,ra,-1536 # ffffaa00 <_end+0x5fff9f78>
800001d0:	00000797          	auipc	a5,0x0
800001d4:	01478793          	addi	a5,a5,20 # 800001e4 <test_3+0x28>
800001d8:	00111123          	sh	ra,2(sp)
800001dc:	00211703          	lh	a4,2(sp)
800001e0:	0080006f          	j	800001e8 <test_3+0x2c>
800001e4:	00008713          	mv	a4,ra
800001e8:	ffffb3b7          	lui	t2,0xffffb
800001ec:	a0038393          	addi	t2,t2,-1536 # ffffaa00 <_end+0x5fff9f78>
800001f0:	48771a63          	bne	a4,t2,80000684 <fail>
800001f4:	00400193          	li	gp,4
800001f8:	20000117          	auipc	sp,0x20000
800001fc:	e0810113          	addi	sp,sp,-504 # a0000000 <begin_signature>
80000200:	beef10b7          	lui	ra,0xbeef1
80000204:	aa008093          	addi	ra,ra,-1376 # beef0aa0 <_end+0x1eef0018>
80000208:	00000797          	auipc	a5,0x0
8000020c:	01478793          	addi	a5,a5,20 # 8000021c <test_4+0x28>
80000210:	00111223          	sh	ra,4(sp)
80000214:	00412703          	lw	a4,4(sp)
80000218:	0080006f          	j	80000220 <test_4+0x2c>
8000021c:	00008713          	mv	a4,ra
80000220:	beef13b7          	lui	t2,0xbeef1
80000224:	aa038393          	addi	t2,t2,-1376 # beef0aa0 <_end+0x1eef0018>
80000228:	44771e63          	bne	a4,t2,80000684 <fail>
8000022c:	00500193          	li	gp,5
80000230:	20000117          	auipc	sp,0x20000
80000234:	dd010113          	addi	sp,sp,-560 # a0000000 <begin_signature>
80000238:	ffffa0b7          	lui	ra,0xffffa
8000023c:	00a08093          	addi	ra,ra,10 # ffffa00a <_end+0x5fff9582>
80000240:	00000797          	auipc	a5,0x0
80000244:	01478793          	addi	a5,a5,20 # 80000254 <test_5+0x28>
80000248:	00111323          	sh	ra,6(sp)
8000024c:	00611703          	lh	a4,6(sp)
80000250:	0080006f          	j	80000258 <test_5+0x2c>
80000254:	00008713          	mv	a4,ra
80000258:	ffffa3b7          	lui	t2,0xffffa
8000025c:	00a38393          	addi	t2,t2,10 # ffffa00a <_end+0x5fff9582>
80000260:	42771263          	bne	a4,t2,80000684 <fail>
80000264:	00600193          	li	gp,6
80000268:	20000117          	auipc	sp,0x20000
8000026c:	da610113          	addi	sp,sp,-602 # a000000e <tdat8>
80000270:	0aa00093          	li	ra,170
80000274:	00000797          	auipc	a5,0x0
80000278:	01478793          	addi	a5,a5,20 # 80000288 <test_6+0x24>
8000027c:	fe111d23          	sh	ra,-6(sp)
80000280:	ffa11703          	lh	a4,-6(sp)
80000284:	0080006f          	j	8000028c <test_6+0x28>
80000288:	00008713          	mv	a4,ra
8000028c:	0aa00393          	li	t2,170
80000290:	3e771a63          	bne	a4,t2,80000684 <fail>
80000294:	00700193          	li	gp,7
80000298:	20000117          	auipc	sp,0x20000
8000029c:	d7610113          	addi	sp,sp,-650 # a000000e <tdat8>
800002a0:	ffffb0b7          	lui	ra,0xffffb
800002a4:	a0008093          	addi	ra,ra,-1536 # ffffaa00 <_end+0x5fff9f78>
800002a8:	00000797          	auipc	a5,0x0
800002ac:	01478793          	addi	a5,a5,20 # 800002bc <test_7+0x28>
800002b0:	fe111e23          	sh	ra,-4(sp)
800002b4:	ffc11703          	lh	a4,-4(sp)
800002b8:	0080006f          	j	800002c0 <test_7+0x2c>
800002bc:	00008713          	mv	a4,ra
800002c0:	ffffb3b7          	lui	t2,0xffffb
800002c4:	a0038393          	addi	t2,t2,-1536 # ffffaa00 <_end+0x5fff9f78>
800002c8:	3a771e63          	bne	a4,t2,80000684 <fail>
800002cc:	00800193          	li	gp,8
800002d0:	20000117          	auipc	sp,0x20000
800002d4:	d3e10113          	addi	sp,sp,-706 # a000000e <tdat8>
800002d8:	000010b7          	lui	ra,0x1
800002dc:	aa008093          	addi	ra,ra,-1376 # aa0 <__stack_size+0x2a0>
800002e0:	00000797          	auipc	a5,0x0
800002e4:	01478793          	addi	a5,a5,20 # 800002f4 <test_8+0x28>
800002e8:	fe111f23          	sh	ra,-2(sp)
800002ec:	ffe11703          	lh	a4,-2(sp)
800002f0:	0080006f          	j	800002f8 <test_8+0x2c>
800002f4:	00008713          	mv	a4,ra
800002f8:	000013b7          	lui	t2,0x1
800002fc:	aa038393          	addi	t2,t2,-1376 # aa0 <__stack_size+0x2a0>
80000300:	38771263          	bne	a4,t2,80000684 <fail>
80000304:	00900193          	li	gp,9
80000308:	20000117          	auipc	sp,0x20000
8000030c:	d0610113          	addi	sp,sp,-762 # a000000e <tdat8>
80000310:	ffffa0b7          	lui	ra,0xffffa
80000314:	00a08093          	addi	ra,ra,10 # ffffa00a <_end+0x5fff9582>
80000318:	00000797          	auipc	a5,0x0
8000031c:	01478793          	addi	a5,a5,20 # 8000032c <test_9+0x28>
80000320:	00111023          	sh	ra,0(sp)
80000324:	00011703          	lh	a4,0(sp)
80000328:	0080006f          	j	80000330 <test_9+0x2c>
8000032c:	00008713          	mv	a4,ra
80000330:	ffffa3b7          	lui	t2,0xffffa
80000334:	00a38393          	addi	t2,t2,10 # ffffa00a <_end+0x5fff9582>
80000338:	34771663          	bne	a4,t2,80000684 <fail>
8000033c:	00a00193          	li	gp,10
80000340:	20000097          	auipc	ra,0x20000
80000344:	cd008093          	addi	ra,ra,-816 # a0000010 <tdat9>
80000348:	12345137          	lui	sp,0x12345
8000034c:	67810113          	addi	sp,sp,1656 # 12345678 <__stack_size+0x12344e78>
80000350:	fe008213          	addi	tp,ra,-32
80000354:	02221023          	sh	sp,32(tp) # 20 <__heap_size-0x1e0>
80000358:	00009283          	lh	t0,0(ra)
8000035c:	000053b7          	lui	t2,0x5
80000360:	67838393          	addi	t2,t2,1656 # 5678 <__stack_size+0x4e78>
80000364:	32729063          	bne	t0,t2,80000684 <fail>
80000368:	00b00193          	li	gp,11
8000036c:	20000097          	auipc	ra,0x20000
80000370:	ca408093          	addi	ra,ra,-860 # a0000010 <tdat9>
80000374:	00003137          	lui	sp,0x3
80000378:	09810113          	addi	sp,sp,152 # 3098 <__stack_size+0x2898>
8000037c:	ffb08093          	addi	ra,ra,-5
80000380:	002093a3          	sh	sp,7(ra)
80000384:	20000217          	auipc	tp,0x20000
80000388:	c8e20213          	addi	tp,tp,-882 # a0000012 <tdat10>
8000038c:	00021283          	lh	t0,0(tp) # 0 <__heap_size-0x200>
80000390:	000033b7          	lui	t2,0x3
80000394:	09838393          	addi	t2,t2,152 # 3098 <__stack_size+0x2898>
80000398:	2e729663          	bne	t0,t2,80000684 <fail>
8000039c:	00c00193          	li	gp,12
800003a0:	00000213          	li	tp,0
800003a4:	ffffd6b7          	lui	a3,0xffffd
800003a8:	cdd68693          	addi	a3,a3,-803 # ffffccdd <_end+0x5fffc255>
800003ac:	20000617          	auipc	a2,0x20000
800003b0:	c5460613          	addi	a2,a2,-940 # a0000000 <begin_signature>
800003b4:	00d61023          	sh	a3,0(a2)
800003b8:	00061703          	lh	a4,0(a2)
800003bc:	ffffd3b7          	lui	t2,0xffffd
800003c0:	cdd38393          	addi	t2,t2,-803 # ffffccdd <_end+0x5fffc255>
800003c4:	2c771063          	bne	a4,t2,80000684 <fail>
800003c8:	00120213          	addi	tp,tp,1 # 1 <__heap_size-0x1ff>
800003cc:	00200293          	li	t0,2
800003d0:	fc521ae3          	bne	tp,t0,800003a4 <test_12+0x8>
800003d4:	00d00193          	li	gp,13
800003d8:	00000213          	li	tp,0
800003dc:	ffffc6b7          	lui	a3,0xffffc
800003e0:	ccd68693          	addi	a3,a3,-819 # ffffbccd <_end+0x5fffb245>
800003e4:	20000617          	auipc	a2,0x20000
800003e8:	c1c60613          	addi	a2,a2,-996 # a0000000 <begin_signature>
800003ec:	00000013          	nop
800003f0:	00d61123          	sh	a3,2(a2)
800003f4:	00261703          	lh	a4,2(a2)
800003f8:	ffffc3b7          	lui	t2,0xffffc
800003fc:	ccd38393          	addi	t2,t2,-819 # ffffbccd <_end+0x5fffb245>
80000400:	28771263          	bne	a4,t2,80000684 <fail>
80000404:	00120213          	addi	tp,tp,1 # 1 <__heap_size-0x1ff>
80000408:	00200293          	li	t0,2
8000040c:	fc5218e3          	bne	tp,t0,800003dc <test_13+0x8>
80000410:	00e00193          	li	gp,14
80000414:	00000213          	li	tp,0
80000418:	ffffc6b7          	lui	a3,0xffffc
8000041c:	bcc68693          	addi	a3,a3,-1076 # ffffbbcc <_end+0x5fffb144>
80000420:	20000617          	auipc	a2,0x20000
80000424:	be060613          	addi	a2,a2,-1056 # a0000000 <begin_signature>
80000428:	00000013          	nop
8000042c:	00000013          	nop
80000430:	00d61223          	sh	a3,4(a2)
80000434:	00461703          	lh	a4,4(a2)
80000438:	ffffc3b7          	lui	t2,0xffffc
8000043c:	bcc38393          	addi	t2,t2,-1076 # ffffbbcc <_end+0x5fffb144>
80000440:	24771263          	bne	a4,t2,80000684 <fail>
80000444:	00120213          	addi	tp,tp,1 # 1 <__heap_size-0x1ff>
80000448:	00200293          	li	t0,2
8000044c:	fc5216e3          	bne	tp,t0,80000418 <test_14+0x8>
80000450:	00f00193          	li	gp,15
80000454:	00000213          	li	tp,0
80000458:	ffffb6b7          	lui	a3,0xffffb
8000045c:	bbc68693          	addi	a3,a3,-1092 # ffffabbc <_end+0x5fffa134>
80000460:	00000013          	nop
80000464:	20000617          	auipc	a2,0x20000
80000468:	b9c60613          	addi	a2,a2,-1124 # a0000000 <begin_signature>
8000046c:	00d61323          	sh	a3,6(a2)
80000470:	00661703          	lh	a4,6(a2)
80000474:	ffffb3b7          	lui	t2,0xffffb
80000478:	bbc38393          	addi	t2,t2,-1092 # ffffabbc <_end+0x5fffa134>
8000047c:	20771463          	bne	a4,t2,80000684 <fail>
80000480:	00120213          	addi	tp,tp,1 # 1 <__heap_size-0x1ff>
80000484:	00200293          	li	t0,2
80000488:	fc5218e3          	bne	tp,t0,80000458 <test_15+0x8>
8000048c:	01000193          	li	gp,16
80000490:	00000213          	li	tp,0
80000494:	ffffb6b7          	lui	a3,0xffffb
80000498:	abb68693          	addi	a3,a3,-1349 # ffffaabb <_end+0x5fffa033>
8000049c:	00000013          	nop
800004a0:	20000617          	auipc	a2,0x20000
800004a4:	b6060613          	addi	a2,a2,-1184 # a0000000 <begin_signature>
800004a8:	00000013          	nop
800004ac:	00d61423          	sh	a3,8(a2)
800004b0:	00861703          	lh	a4,8(a2)
800004b4:	ffffb3b7          	lui	t2,0xffffb
800004b8:	abb38393          	addi	t2,t2,-1349 # ffffaabb <_end+0x5fffa033>
800004bc:	1c771463          	bne	a4,t2,80000684 <fail>
800004c0:	00120213          	addi	tp,tp,1 # 1 <__heap_size-0x1ff>
800004c4:	00200293          	li	t0,2
800004c8:	fc5216e3          	bne	tp,t0,80000494 <test_16+0x8>
800004cc:	01100193          	li	gp,17
800004d0:	00000213          	li	tp,0
800004d4:	ffffe6b7          	lui	a3,0xffffe
800004d8:	aab68693          	addi	a3,a3,-1365 # ffffdaab <_end+0x5fffd023>
800004dc:	00000013          	nop
800004e0:	00000013          	nop
800004e4:	20000617          	auipc	a2,0x20000
800004e8:	b1c60613          	addi	a2,a2,-1252 # a0000000 <begin_signature>
800004ec:	00d61523          	sh	a3,10(a2)
800004f0:	00a61703          	lh	a4,10(a2)
800004f4:	ffffe3b7          	lui	t2,0xffffe
800004f8:	aab38393          	addi	t2,t2,-1365 # ffffdaab <_end+0x5fffd023>
800004fc:	18771463          	bne	a4,t2,80000684 <fail>
80000500:	00120213          	addi	tp,tp,1 # 1 <__heap_size-0x1ff>
80000504:	00200293          	li	t0,2
80000508:	fc5216e3          	bne	tp,t0,800004d4 <test_17+0x8>
8000050c:	01200193          	li	gp,18
80000510:	00000213          	li	tp,0
80000514:	20000117          	auipc	sp,0x20000
80000518:	aec10113          	addi	sp,sp,-1300 # a0000000 <begin_signature>
8000051c:	000020b7          	lui	ra,0x2
80000520:	23308093          	addi	ra,ra,563 # 2233 <__stack_size+0x1a33>
80000524:	00111023          	sh	ra,0(sp)
80000528:	00011703          	lh	a4,0(sp)
8000052c:	000023b7          	lui	t2,0x2
80000530:	23338393          	addi	t2,t2,563 # 2233 <__stack_size+0x1a33>
80000534:	14771863          	bne	a4,t2,80000684 <fail>
80000538:	00120213          	addi	tp,tp,1 # 1 <__heap_size-0x1ff>
8000053c:	00200293          	li	t0,2
80000540:	fc521ae3          	bne	tp,t0,80000514 <test_18+0x8>
80000544:	01300193          	li	gp,19
80000548:	00000213          	li	tp,0
8000054c:	20000117          	auipc	sp,0x20000
80000550:	ab410113          	addi	sp,sp,-1356 # a0000000 <begin_signature>
80000554:	000010b7          	lui	ra,0x1
80000558:	22308093          	addi	ra,ra,547 # 1223 <__stack_size+0xa23>
8000055c:	00000013          	nop
80000560:	00111123          	sh	ra,2(sp)
80000564:	00211703          	lh	a4,2(sp)
80000568:	000013b7          	lui	t2,0x1
8000056c:	22338393          	addi	t2,t2,547 # 1223 <__stack_size+0xa23>
80000570:	10771a63          	bne	a4,t2,80000684 <fail>
80000574:	00120213          	addi	tp,tp,1 # 1 <__heap_size-0x1ff>
80000578:	00200293          	li	t0,2
8000057c:	fc5218e3          	bne	tp,t0,8000054c <test_19+0x8>
80000580:	01400193          	li	gp,20
80000584:	00000213          	li	tp,0
80000588:	20000117          	auipc	sp,0x20000
8000058c:	a7810113          	addi	sp,sp,-1416 # a0000000 <begin_signature>
80000590:	000010b7          	lui	ra,0x1
80000594:	12208093          	addi	ra,ra,290 # 1122 <__stack_size+0x922>
80000598:	00000013          	nop
8000059c:	00000013          	nop
800005a0:	00111223          	sh	ra,4(sp)
800005a4:	00411703          	lh	a4,4(sp)
800005a8:	000013b7          	lui	t2,0x1
800005ac:	12238393          	addi	t2,t2,290 # 1122 <__stack_size+0x922>
800005b0:	0c771a63          	bne	a4,t2,80000684 <fail>
800005b4:	00120213          	addi	tp,tp,1 # 1 <__heap_size-0x1ff>
800005b8:	00200293          	li	t0,2
800005bc:	fc5216e3          	bne	tp,t0,80000588 <test_20+0x8>
800005c0:	01500193          	li	gp,21
800005c4:	00000213          	li	tp,0
800005c8:	20000117          	auipc	sp,0x20000
800005cc:	a3810113          	addi	sp,sp,-1480 # a0000000 <begin_signature>
800005d0:	00000013          	nop
800005d4:	11200093          	li	ra,274
800005d8:	00111323          	sh	ra,6(sp)
800005dc:	00611703          	lh	a4,6(sp)
800005e0:	11200393          	li	t2,274
800005e4:	0a771063          	bne	a4,t2,80000684 <fail>
800005e8:	00120213          	addi	tp,tp,1 # 1 <__heap_size-0x1ff>
800005ec:	00200293          	li	t0,2
800005f0:	fc521ce3          	bne	tp,t0,800005c8 <test_21+0x8>
800005f4:	01600193          	li	gp,22
800005f8:	00000213          	li	tp,0
800005fc:	20000117          	auipc	sp,0x20000
80000600:	a0410113          	addi	sp,sp,-1532 # a0000000 <begin_signature>
80000604:	00000013          	nop
80000608:	01100093          	li	ra,17
8000060c:	00000013          	nop
80000610:	00111423          	sh	ra,8(sp)
80000614:	00811703          	lh	a4,8(sp)
80000618:	01100393          	li	t2,17
8000061c:	06771463          	bne	a4,t2,80000684 <fail>
80000620:	00120213          	addi	tp,tp,1 # 1 <__heap_size-0x1ff>
80000624:	00200293          	li	t0,2
80000628:	fc521ae3          	bne	tp,t0,800005fc <test_22+0x8>
8000062c:	01700193          	li	gp,23
80000630:	00000213          	li	tp,0
80000634:	20000117          	auipc	sp,0x20000
80000638:	9cc10113          	addi	sp,sp,-1588 # a0000000 <begin_signature>
8000063c:	00000013          	nop
80000640:	00000013          	nop
80000644:	000030b7          	lui	ra,0x3
80000648:	00108093          	addi	ra,ra,1 # 3001 <__stack_size+0x2801>
8000064c:	00111523          	sh	ra,10(sp)
80000650:	00a11703          	lh	a4,10(sp)
80000654:	000033b7          	lui	t2,0x3
80000658:	00138393          	addi	t2,t2,1 # 3001 <__stack_size+0x2801>
8000065c:	02771463          	bne	a4,t2,80000684 <fail>
80000660:	00120213          	addi	tp,tp,1 # 1 <__heap_size-0x1ff>
80000664:	00200293          	li	t0,2
80000668:	fc5216e3          	bne	tp,t0,80000634 <test_23+0x8>
8000066c:	0000c537          	lui	a0,0xc
80000670:	eef50513          	addi	a0,a0,-273 # beef <__stack_size+0xb6ef>
80000674:	20000597          	auipc	a1,0x20000
80000678:	98c58593          	addi	a1,a1,-1652 # a0000000 <begin_signature>
8000067c:	00a59323          	sh	a0,6(a1)
80000680:	02301063          	bne	zero,gp,800006a0 <pass>
80000684:	0ff0000f          	fence
80000688:	00018063          	beqz	gp,80000688 <fail+0x4>
8000068c:	00119193          	slli	gp,gp,0x1
80000690:	0011e193          	ori	gp,gp,1
80000694:	05d00893          	li	a7,93
80000698:	00018513          	mv	a0,gp
8000069c:	00000073          	ecall
800006a0:	0ff0000f          	fence
800006a4:	00100193          	li	gp,1
800006a8:	05d00893          	li	a7,93
800006ac:	00000513          	li	a0,0
800006b0:	00000073          	ecall
800006b4:	c0001073          	unimp
800006b8:	0000                	.insn	2, 0x
800006ba:	0000                	.insn	2, 0x
a0000012:	0000beef          	jal	t4,a000b012 <_end+0xa58a>
a0000016:	0000                	.insn	2, 0x
a0000018:	0000                	.insn	2, 0x
a000001a:	0000                	.insn	2, 0x
a000001c:	0000                	.insn	2, 0x
a000001e:	0000                	.insn	2, 0x
80000000:	0500006f          	j	80000050 <reset_vector>
80000004:	34202f73          	csrr	t5,mcause
80000008:	00800f93          	li	t6,8
8000000c:	03ff0863          	beq	t5,t6,8000003c <write_tohost>
80000010:	00900f93          	li	t6,9
80000014:	03ff0463          	beq	t5,t6,8000003c <write_tohost>
80000018:	00b00f93          	li	t6,11
8000001c:	03ff0063          	beq	t5,t6,8000003c <write_tohost>
80000020:	00000f13          	li	t5,0
80000024:	000f0463          	beqz	t5,8000002c <trap_vector+0x28>
80000028:	000f0067          	jr	t5
8000002c:	34202f73          	csrr	t5,mcause
80000030:	000f5463          	bgez	t5,80000038 <handle_exception>
80000034:	0040006f          	j	80000038 <handle_exception>
80000038:	5391e193          	ori	gp,gp,1337
8000003c:	20000f17          	auipc	t5,0x20000
80000040:	fc3f2223          	sw	gp,-60(t5) # a0000000 <tohost>
80000044:	20000f17          	auipc	t5,0x20000
80000048:	fc0f2023          	sw	zero,-64(t5) # a0000004 <tohost+0x4>
8000004c:	ff1ff06f          	j	8000003c <write_tohost>
80000050:	00000093          	li	ra,0
80000054:	00000113          	li	sp,0
80000058:	00000193          	li	gp,0
8000005c:	00000213          	li	tp,0
80000060:	00000293          	li	t0,0
80000064:	00000313          	li	t1,0
80000068:	00000393          	li	t2,0
8000006c:	00000413          	li	s0,0
80000070:	00000493          	li	s1,0
80000074:	00000513          	li	a0,0
80000078:	00000593          	li	a1,0
8000007c:	00000613          	li	a2,0
80000080:	00000693          	li	a3,0
80000084:	00000713          	li	a4,0
80000088:	00000793          	li	a5,0
8000008c:	00000813          	li	a6,0
80000090:	00000893          	li	a7,0
80000094:	00000913          	li	s2,0
80000098:	00000993          	li	s3,0
8000009c:	00000a13          	li	s4,0
800000a0:	00000a93          	li	s5,0
800000a4:	00000b13          	li	s6,0
800000a8:	00000b93          	li	s7,0
800000ac:	00000c13          	li	s8,0
800000b0:	00000c93          	li	s9,0
800000b4:	00000d13          	li	s10,0
800000b8:	00000d93          	li	s11,0
800000bc:	00000e13          	li	t3,0
800000c0:	00000e93          	li	t4,0
800000c4:	00000f13          	li	t5,0
800000c8:	00000f93          	li	t6,0
800000cc:	f1402573          	csrr	a0,mhartid
800000d0:	00051063          	bnez	a0,800000d0 <reset_vector+0x80>
800000d4:	00000297          	auipc	t0,0x0
800000d8:	01028293          	addi	t0,t0,16 # 800000e4 <reset_vector+0x94>
800000dc:	30529073          	csrw	mtvec,t0
800000e0:	74445073          	csrwi	0x744,8
800000e4:	00000297          	auipc	t0,0x0
800000e8:	01028293          	addi	t0,t0,16 # 800000f4 <reset_vector+0xa4>
800000ec:	30529073          	csrw	mtvec,t0
800000f0:	18005073          	csrwi	satp,0
800000f4:	00000297          	auipc	t0,0x0
800000f8:	02028293          	addi	t0,t0,32 # 80000114 <reset_vector+0xc4>
800000fc:	30529073          	csrw	mtvec,t0
80000100:	800002b7          	lui	t0,0x80000
80000104:	fff28293          	addi	t0,t0,-1 # 7fffffff <__stack_size+0x7ffff7ff>
80000108:	3b029073          	csrw	pmpaddr0,t0
8000010c:	01f00293          	li	t0,31
80000110:	3a029073          	csrw	pmpcfg0,t0
80000114:	30405073          	csrwi	mie,0
80000118:	00000297          	auipc	t0,0x0
8000011c:	01428293          	addi	t0,t0,20 # 8000012c <reset_vector+0xdc>
80000120:	30529073          	csrw	mtvec,t0
80000124:	30205073          	csrwi	medeleg,0
80000128:	30305073          	csrwi	mideleg,0
8000012c:	00000193          	li	gp,0
80000130:	00000297          	auipc	t0,0x0
80000134:	ed428293          	addi	t0,t0,-300 # 80000004 <trap_vector>
80000138:	30529073          	csrw	mtvec,t0
8000013c:	00100513          	li	a0,1
80000140:	01f51513          	slli	a0,a0,0x1f
80000144:	00054c63          	bltz	a0,8000015c <reset_vector+0x10c>
80000148:	0ff0000f          	fence
8000014c:	00100193          	li	gp,1
80000150:	05d00893          	li	a7,93
80000154:	00000513          	li	a0,0
80000158:	00000073          	ecall
8000015c:	00000293          	li	t0,0
80000160:	00028a63          	beqz	t0,80000174 <reset_vector+0x124>
80000164:	10529073          	csrw	stvec,t0
80000168:	0000b2b7          	lui	t0,0xb
8000016c:	10928293          	addi	t0,t0,265 # b109 <__stack_size+0xa909>
80000170:	30229073          	csrw	medeleg,t0
80000174:	30005073          	csrwi	mstatus,0
80000178:	00000297          	auipc	t0,0x0
8000017c:	01428293          	addi	t0,t0,20 # 8000018c <test_2>
80000180:	34129073          	csrw	mepc,t0
80000184:	f1402573          	csrr	a0,mhartid
80000188:	30200073          	mret
8000018c:	00200193          	li	gp,2
80000190:	ff0106b7          	lui	a3,0xff010
80000194:	f0068693          	addi	a3,a3,-256 # ff00ff00 <_end+0x5f00f4b8>
80000198:	f0f6f713          	andi	a4,a3,-241
8000019c:	ff0103b7          	lui	t2,0xff010
800001a0:	f0038393          	addi	t2,t2,-256 # ff00ff00 <_end+0x5f00f4b8>
800001a4:	1a771463          	bne	a4,t2,8000034c <fail>
800001a8:	00300193          	li	gp,3
800001ac:	0ff016b7          	lui	a3,0xff01
800001b0:	ff068693          	addi	a3,a3,-16 # ff00ff0 <__stack_size+0xff007f0>
800001b4:	0f06f713          	andi	a4,a3,240
800001b8:	0f000393          	li	t2,240
800001bc:	18771863          	bne	a4,t2,8000034c <fail>
800001c0:	00400193          	li	gp,4
800001c4:	00ff06b7          	lui	a3,0xff0
800001c8:	0ff68693          	addi	a3,a3,255 # ff00ff <__stack_size+0xfef8ff>
800001cc:	70f6f713          	andi	a4,a3,1807
800001d0:	00f00393          	li	t2,15
800001d4:	16771c63          	bne	a4,t2,8000034c <fail>
800001d8:	00500193          	li	gp,5
800001dc:	f00ff6b7          	lui	a3,0xf00ff
800001e0:	00f68693          	addi	a3,a3,15 # f00ff00f <_end+0x500fe5c7>
800001e4:	0f06f713          	andi	a4,a3,240
800001e8:	00000393          	li	t2,0
800001ec:	16771063          	bne	a4,t2,8000034c <fail>
800001f0:	00600193          	li	gp,6
800001f4:	ff0105b7          	lui	a1,0xff010
800001f8:	f0058593          	addi	a1,a1,-256 # ff00ff00 <_end+0x5f00f4b8>
800001fc:	0f05f593          	andi	a1,a1,240
80000200:	00000393          	li	t2,0
80000204:	14759463          	bne	a1,t2,8000034c <fail>
80000208:	00700193          	li	gp,7
8000020c:	00000213          	li	tp,0
80000210:	0ff010b7          	lui	ra,0xff01
80000214:	ff008093          	addi	ra,ra,-16 # ff00ff0 <__stack_size+0xff007f0>
80000218:	70f0f713          	andi	a4,ra,1807
8000021c:	00070313          	mv	t1,a4
80000220:	00120213          	addi	tp,tp,1 # 1 <__heap_size-0x1ff>
80000224:	00200293          	li	t0,2
80000228:	fe5214e3          	bne	tp,t0,80000210 <test_7+0x8>
8000022c:	70000393          	li	t2,1792
80000230:	10731e63          	bne	t1,t2,8000034c <fail>
80000234:	00800193          	li	gp,8
80000238:	00000213          	li	tp,0
8000023c:	00ff00b7          	lui	ra,0xff0
80000240:	0ff08093          	addi	ra,ra,255 # ff00ff <__stack_size+0xfef8ff>
80000244:	0f00f713          	andi	a4,ra,240
80000248:	00000013          	nop
8000024c:	00070313          	mv	t1,a4
80000250:	00120213          	addi	tp,tp,1 # 1 <__heap_size-0x1ff>
80000254:	00200293          	li	t0,2
80000258:	fe5212e3          	bne	tp,t0,8000023c <test_8+0x8>
8000025c:	0f000393          	li	t2,240
80000260:	0e731663          	bne	t1,t2,8000034c <fail>
80000264:	00900193          	li	gp,9
80000268:	00000213          	li	tp,0
8000026c:	f00ff0b7          	lui	ra,0xf00ff
80000270:	00f08093          	addi	ra,ra,15 # f00ff00f <_end+0x500fe5c7>
80000274:	f0f0f713          	andi	a4,ra,-241
80000278:	00000013          	nop
8000027c:	00000013          	nop
80000280:	00070313          	mv	t1,a4
80000284:	00120213          	addi	tp,tp,1 # 1 <__heap_size-0x1ff>
80000288:	00200293          	li	t0,2
8000028c:	fe5210e3          	bne	tp,t0,8000026c <test_9+0x8>
80000290:	f00ff3b7          	lui	t2,0xf00ff
80000294:	00f38393          	addi	t2,t2,15 # f00ff00f <_end+0x500fe5c7>
80000298:	0a731a63          	bne	t1,t2,8000034c <fail>
8000029c:	00a00193          	li	gp,10
800002a0:	00000213          	li	tp,0
800002a4:	0ff010b7          	lui	ra,0xff01
800002a8:	ff008093          	addi	ra,ra,-16 # ff00ff0 <__stack_size+0xff007f0>
800002ac:	70f0f713          	andi	a4,ra,1807
800002b0:	00120213          	addi	tp,tp,1 # 1 <__heap_size-0x1ff>
800002b4:	00200293          	li	t0,2
800002b8:	fe5216e3          	bne	tp,t0,800002a4 <test_10+0x8>
800002bc:	70000393          	li	t2,1792
800002c0:	08771663          	bne	a4,t2,8000034c <fail>
800002c4:	00b00193          	li	gp,11
800002c8:	00000213          	li	tp,0
800002cc:	00ff00b7          	lui	ra,0xff0
800002d0:	0ff08093          	addi	ra,ra,255 # ff00ff <__stack_size+0xfef8ff>
800002d4:	00000013          	nop
800002d8:	0f00f713          	andi	a4,ra,240
800002dc:	00120213          	addi	tp,tp,1 # 1 <__heap_size-0x1ff>
800002e0:	00200293          	li	t0,2
800002e4:	fe5214e3          	bne	tp,t0,800002cc <test_11+0x8>
800002e8:	0f000393          	li	t2,240
800002ec:	06771063          	bne	a4,t2,8000034c <fail>
800002f0:	00c00193          	li	gp,12
800002f4:	00000213          	li	tp,0
800002f8:	f00ff0b7          	lui	ra,0xf00ff
800002fc:	00f08093          	addi	ra,ra,15 # f00ff00f <_end+0x500fe5c7>
80000300:	00000013          	nop
80000304:	00000013          	nop
80000308:	70f0f713          	andi	a4,ra,1807
8000030c:	00120213          	addi	tp,tp,1 # 1 <__heap_size-0x1ff>
80000310:	00200293          	li	t0,2
80000314:	fe5212e3          	bne	tp,t0,800002f8 <test_12+0x8>
80000318:	00f00393          	li	t2,15
8000031c:	02771863          	bne	a4,t2,8000034c <fail>
80000320:	00d00193          	li	gp,13
80000324:	0f007093          	andi	ra,zero,240
80000328:	00000393          	li	t2,0
8000032c:	02709063          	bne	ra,t2,8000034c <fail>
80000330:	00e00193          	li	gp,14
80000334:	00ff00b7          	lui	ra,0xff0
80000338:	0ff08093          	addi	ra,ra,255 # ff00ff <__stack_size+0xfef8ff>
8000033c:	70f0f013          	andi	zero,ra,1807
80000340:	00000393          	li	t2,0
80000344:	00701463          	bne	zero,t2,8000034c <fail>
80000348:	02301063          	bne	zero,gp,80000368 <pass>
8000034c:	0ff0000f          	fence
80000350:	00018063          	beqz	gp,80000350 <fail+0x4>
80000354:	00119193          	slli	gp,gp,0x1
80000358:	0011e193          	ori	gp,gp,1
8000035c:	05d00893          	li	a7,93
80000360:	00018513          	mv	a0,gp
80000364:	00000073          	ecall
80000368:	0ff0000f          	fence
8000036c:	00100193          	li	gp,1
80000370:	05d00893          	li	a7,93
80000374:	00000513          	li	a0,0
80000378:	00000073          	ecall
8000037c:	c0001073          	unimp
80000380:	0000                	.insn	2, 0x
80000382:	0000                	.insn	2, 0x
80000384:	0000                	.insn	2, 0x
80000386:	0000                	.insn	2, 0x
80000388:	0000                	.insn	2, 0x
8000038a:	0000                	.insn	2, 0x
8000038c:	0000                	.insn	2, 0x
8000038e:	0000                	.insn	2, 0x
80000390:	0000                	.insn	2, 0x
80000392:	0000                	.insn	2, 0x
80000394:	0000                	.insn	2, 0x
80000396:	0000                	.insn	2, 0x
80000398:	0000                	.insn	2, 0x
8000039a:	0000                	.insn	2, 0x
8000039c:	0000                	.insn	2, 0x
8000039e:	0000                	.insn	2, 0x
800003a0:	0000                	.insn	2, 0x
800003a2:	0000                	.insn	2, 0x
800003a4:	0000                	.insn	2, 0x
800003a6:	0000                	.insn	2, 0x
800003a8:	0000                	.insn	2, 0x
800003aa:	0000                	.insn	2, 0x
800003ac:	0000                	.insn	2, 0x
800003ae:	0000                	.insn	2, 0x
800003b0:	0000                	.insn	2, 0x
800003b2:	0000                	.insn	2, 0x
800003b4:	0000                	.insn	2, 0x
800003b6:	0000                	.insn	2, 0x
800003b8:	0000                	.insn	2, 0x
800003ba:	0000                	.insn	2, 0x
80000000:	0500006f          	j	80000050 <reset_vector>
80000004:	34202f73          	csrr	t5,mcause
80000008:	00800f93          	li	t6,8
8000000c:	03ff0863          	beq	t5,t6,8000003c <write_tohost>
80000010:	00900f93          	li	t6,9
80000014:	03ff0463          	beq	t5,t6,8000003c <write_tohost>
80000018:	00b00f93          	li	t6,11
8000001c:	03ff0063          	beq	t5,t6,8000003c <write_tohost>
80000020:	00000f13          	li	t5,0
80000024:	000f0463          	beqz	t5,8000002c <trap_vector+0x28>
80000028:	000f0067          	jr	t5
8000002c:	34202f73          	csrr	t5,mcause
80000030:	000f5463          	bgez	t5,80000038 <handle_exception>
80000034:	0040006f          	j	80000038 <handle_exception>
80000038:	5391e193          	ori	gp,gp,1337
8000003c:	20000f17          	auipc	t5,0x20000
80000040:	003f2223          	sw	gp,4(t5) # a0000040 <tohost>
80000044:	20000f17          	auipc	t5,0x20000
80000048:	000f2023          	sw	zero,0(t5) # a0000044 <tohost+0x4>
8000004c:	ff1ff06f          	j	8000003c <write_tohost>
80000050:	00000093          	li	ra,0
80000054:	00000113          	li	sp,0
80000058:	00000193          	li	gp,0
8000005c:	00000213          	li	tp,0
80000060:	00000293          	li	t0,0
80000064:	00000313          	li	t1,0
80000068:	00000393          	li	t2,0
8000006c:	00000413          	li	s0,0
80000070:	00000493          	li	s1,0
80000074:	00000513          	li	a0,0
80000078:	00000593          	li	a1,0
8000007c:	00000613          	li	a2,0
80000080:	00000693          	li	a3,0
80000084:	00000713          	li	a4,0
80000088:	00000793          	li	a5,0
8000008c:	00000813          	li	a6,0
80000090:	00000893          	li	a7,0
80000094:	00000913          	li	s2,0
80000098:	00000993          	li	s3,0
8000009c:	00000a13          	li	s4,0
800000a0:	00000a93          	li	s5,0
800000a4:	00000b13          	li	s6,0
800000a8:	00000b93          	li	s7,0
800000ac:	00000c13          	li	s8,0
800000b0:	00000c93          	li	s9,0
800000b4:	00000d13          	li	s10,0
800000b8:	00000d93          	li	s11,0
800000bc:	00000e13          	li	t3,0
800000c0:	00000e93          	li	t4,0
800000c4:	00000f13          	li	t5,0
800000c8:	00000f93          	li	t6,0
800000cc:	f1402573          	csrr	a0,mhartid
800000d0:	00051063          	bnez	a0,800000d0 <reset_vector+0x80>
800000d4:	00000297          	auipc	t0,0x0
800000d8:	01028293          	addi	t0,t0,16 # 800000e4 <reset_vector+0x94>
800000dc:	30529073          	csrw	mtvec,t0
800000e0:	74445073          	csrwi	0x744,8
800000e4:	00000297          	auipc	t0,0x0
800000e8:	01028293          	addi	t0,t0,16 # 800000f4 <reset_vector+0xa4>
800000ec:	30529073          	csrw	mtvec,t0
800000f0:	18005073          	csrwi	satp,0
800000f4:	00000297          	auipc	t0,0x0
800000f8:	02028293          	addi	t0,t0,32 # 80000114 <reset_vector+0xc4>
800000fc:	30529073          	csrw	mtvec,t0
80000100:	800002b7          	lui	t0,0x80000
80000104:	fff28293          	addi	t0,t0,-1 # 7fffffff <__stack_size+0x7ffff7ff>
80000108:	3b029073          	csrw	pmpaddr0,t0
8000010c:	01f00293          	li	t0,31
80000110:	3a029073          	csrw	pmpcfg0,t0
80000114:	30405073          	csrwi	mie,0
80000118:	00000297          	auipc	t0,0x0
8000011c:	01428293          	addi	t0,t0,20 # 8000012c <reset_vector+0xdc>
80000120:	30529073          	csrw	mtvec,t0
80000124:	30205073          	csrwi	medeleg,0
80000128:	30305073          	csrwi	mideleg,0
8000012c:	00000193          	li	gp,0
80000130:	00000297          	auipc	t0,0x0
80000134:	ed428293          	addi	t0,t0,-300 # 80000004 <trap_vector>
80000138:	30529073          	csrw	mtvec,t0
8000013c:	00100513          	li	a0,1
80000140:	01f51513          	slli	a0,a0,0x1f
80000144:	00054c63          	bltz	a0,8000015c <reset_vector+0x10c>
80000148:	0ff0000f          	fence
8000014c:	00100193          	li	gp,1
80000150:	05d00893          	li	a7,93
80000154:	00000513          	li	a0,0
80000158:	00000073          	ecall
8000015c:	00000293          	li	t0,0
80000160:	00028a63          	beqz	t0,80000174 <reset_vector+0x124>
80000164:	10529073          	csrw	stvec,t0
80000168:	0000b2b7          	lui	t0,0xb
8000016c:	10928293          	addi	t0,t0,265 # b109 <__stack_size+0xa909>
80000170:	30229073          	csrw	medeleg,t0
80000174:	30005073          	csrwi	mstatus,0
80000178:	00000297          	auipc	t0,0x0
8000017c:	01428293          	addi	t0,t0,20 # 8000018c <test_2>
80000180:	34129073          	csrw	mepc,t0
80000184:	f1402573          	csrr	a0,mhartid
80000188:	30200073          	mret
8000018c:	00200193          	li	gp,2
80000190:	20000117          	auipc	sp,0x20000
80000194:	e7010113          	addi	sp,sp,-400 # a0000000 <begin_signature>
80000198:	faa00093          	li	ra,-86
8000019c:	00000797          	auipc	a5,0x0
800001a0:	01478793          	addi	a5,a5,20 # 800001b0 <test_2+0x24>
800001a4:	00110023          	sb	ra,0(sp)
800001a8:	00010703          	lb	a4,0(sp)
800001ac:	0080006f          	j	800001b4 <test_2+0x28>
800001b0:	00008713          	mv	a4,ra
800001b4:	faa00393          	li	t2,-86
800001b8:	44771463          	bne	a4,t2,80000600 <fail>
800001bc:	00300193          	li	gp,3
800001c0:	20000117          	auipc	sp,0x20000
800001c4:	e4010113          	addi	sp,sp,-448 # a0000000 <begin_signature>
800001c8:	00000093          	li	ra,0
800001cc:	00000797          	auipc	a5,0x0
800001d0:	01478793          	addi	a5,a5,20 # 800001e0 <test_3+0x24>
800001d4:	001100a3          	sb	ra,1(sp)
800001d8:	00110703          	lb	a4,1(sp)
800001dc:	0080006f          	j	800001e4 <test_3+0x28>
800001e0:	00008713          	mv	a4,ra
800001e4:	00000393          	li	t2,0
800001e8:	40771c63          	bne	a4,t2,80000600 <fail>
800001ec:	00400193          	li	gp,4
800001f0:	20000117          	auipc	sp,0x20000
800001f4:	e1010113          	addi	sp,sp,-496 # a0000000 <begin_signature>
800001f8:	fffff0b7          	lui	ra,0xfffff
800001fc:	fa008093          	addi	ra,ra,-96 # ffffefa0 <_end+0x5fffe518>
80000200:	00000797          	auipc	a5,0x0
80000204:	01478793          	addi	a5,a5,20 # 80000214 <test_4+0x28>
80000208:	00110123          	sb	ra,2(sp)
8000020c:	00211703          	lh	a4,2(sp)
80000210:	0080006f          	j	80000218 <test_4+0x2c>
80000214:	00008713          	mv	a4,ra
80000218:	fffff3b7          	lui	t2,0xfffff
8000021c:	fa038393          	addi	t2,t2,-96 # ffffefa0 <_end+0x5fffe518>
80000220:	3e771063          	bne	a4,t2,80000600 <fail>
80000224:	00500193          	li	gp,5
80000228:	20000117          	auipc	sp,0x20000
8000022c:	dd810113          	addi	sp,sp,-552 # a0000000 <begin_signature>
80000230:	00a00093          	li	ra,10
80000234:	00000797          	auipc	a5,0x0
80000238:	01478793          	addi	a5,a5,20 # 80000248 <test_5+0x24>
8000023c:	001101a3          	sb	ra,3(sp)
80000240:	00310703          	lb	a4,3(sp)
80000244:	0080006f          	j	8000024c <test_5+0x28>
80000248:	00008713          	mv	a4,ra
8000024c:	00a00393          	li	t2,10
80000250:	3a771863          	bne	a4,t2,80000600 <fail>
80000254:	00600193          	li	gp,6
80000258:	20000117          	auipc	sp,0x20000
8000025c:	daf10113          	addi	sp,sp,-593 # a0000007 <tdat8>
80000260:	faa00093          	li	ra,-86
80000264:	00000797          	auipc	a5,0x0
80000268:	01478793          	addi	a5,a5,20 # 80000278 <test_6+0x24>
8000026c:	fe110ea3          	sb	ra,-3(sp)
80000270:	ffd10703          	lb	a4,-3(sp)
80000274:	0080006f          	j	8000027c <test_6+0x28>
80000278:	00008713          	mv	a4,ra
8000027c:	faa00393          	li	t2,-86
80000280:	38771063          	bne	a4,t2,80000600 <fail>
80000284:	00700193          	li	gp,7
80000288:	20000117          	auipc	sp,0x20000
8000028c:	d7f10113          	addi	sp,sp,-641 # a0000007 <tdat8>
80000290:	00000093          	li	ra,0
80000294:	00000797          	auipc	a5,0x0
80000298:	01478793          	addi	a5,a5,20 # 800002a8 <test_7+0x24>
8000029c:	fe110f23          	sb	ra,-2(sp)
800002a0:	ffe10703          	lb	a4,-2(sp)
800002a4:	0080006f          	j	800002ac <test_7+0x28>
800002a8:	00008713          	mv	a4,ra
800002ac:	00000393          	li	t2,0
800002b0:	34771863          	bne	a4,t2,80000600 <fail>
800002b4:	00800193          	li	gp,8
800002b8:	20000117          	auipc	sp,0x20000
800002bc:	d4f10113          	addi	sp,sp,-689 # a0000007 <tdat8>
800002c0:	fa000093          	li	ra,-96
800002c4:	00000797          	auipc	a5,0x0
800002c8:	01478793          	addi	a5,a5,20 # 800002d8 <test_8+0x24>
800002cc:	fe110fa3          	sb	ra,-1(sp)
800002d0:	fff10703          	lb	a4,-1(sp)
800002d4:	0080006f          	j	800002dc <test_8+0x28>
800002d8:	00008713          	mv	a4,ra
800002dc:	fa000393          	li	t2,-96
800002e0:	32771063          	bne	a4,t2,80000600 <fail>
800002e4:	00900193          	li	gp,9
800002e8:	20000117          	auipc	sp,0x20000
800002ec:	d1f10113          	addi	sp,sp,-737 # a0000007 <tdat8>
800002f0:	00a00093          	li	ra,10
800002f4:	00000797          	auipc	a5,0x0
800002f8:	01478793          	addi	a5,a5,20 # 80000308 <test_9+0x24>
800002fc:	00110023          	sb	ra,0(sp)
80000300:	00010703          	lb	a4,0(sp)
80000304:	0080006f          	j	8000030c <test_9+0x28>
80000308:	00008713          	mv	a4,ra
8000030c:	00a00393          	li	t2,10
80000310:	2e771863          	bne	a4,t2,80000600 <fail>
80000314:	00a00193          	li	gp,10
80000318:	20000097          	auipc	ra,0x20000
8000031c:	cf008093          	addi	ra,ra,-784 # a0000008 <tdat9>
80000320:	12345137          	lui	sp,0x12345
80000324:	67810113          	addi	sp,sp,1656 # 12345678 <__stack_size+0x12344e78>
80000328:	fe008213          	addi	tp,ra,-32
8000032c:	02220023          	sb	sp,32(tp) # 20 <__heap_size-0x1e0>
80000330:	00008283          	lb	t0,0(ra)
80000334:	07800393          	li	t2,120
80000338:	2c729463          	bne	t0,t2,80000600 <fail>
8000033c:	00b00193          	li	gp,11
80000340:	20000097          	auipc	ra,0x20000
80000344:	cc808093          	addi	ra,ra,-824 # a0000008 <tdat9>
80000348:	00003137          	lui	sp,0x3
8000034c:	09810113          	addi	sp,sp,152 # 3098 <__stack_size+0x2898>
80000350:	ffa08093          	addi	ra,ra,-6
80000354:	002083a3          	sb	sp,7(ra)
80000358:	20000217          	auipc	tp,0x20000
8000035c:	cb120213          	addi	tp,tp,-847 # a0000009 <tdat10>
80000360:	00020283          	lb	t0,0(tp) # 0 <__heap_size-0x200>
80000364:	f9800393          	li	t2,-104
80000368:	28729c63          	bne	t0,t2,80000600 <fail>
8000036c:	00c00193          	li	gp,12
80000370:	00000213          	li	tp,0
80000374:	fdd00693          	li	a3,-35
80000378:	20000617          	auipc	a2,0x20000
8000037c:	c8860613          	addi	a2,a2,-888 # a0000000 <begin_signature>
80000380:	00d60023          	sb	a3,0(a2)
80000384:	00060703          	lb	a4,0(a2)
80000388:	fdd00393          	li	t2,-35
8000038c:	26771a63          	bne	a4,t2,80000600 <fail>
80000390:	00120213          	addi	tp,tp,1 # 1 <__heap_size-0x1ff>
80000394:	00200293          	li	t0,2
80000398:	fc521ee3          	bne	tp,t0,80000374 <test_12+0x8>
8000039c:	00d00193          	li	gp,13
800003a0:	00000213          	li	tp,0
800003a4:	fcd00693          	li	a3,-51
800003a8:	20000617          	auipc	a2,0x20000
800003ac:	c5860613          	addi	a2,a2,-936 # a0000000 <begin_signature>
800003b0:	00000013          	nop
800003b4:	00d600a3          	sb	a3,1(a2)
800003b8:	00160703          	lb	a4,1(a2)
800003bc:	fcd00393          	li	t2,-51
800003c0:	24771063          	bne	a4,t2,80000600 <fail>
800003c4:	00120213          	addi	tp,tp,1 # 1 <__heap_size-0x1ff>
800003c8:	00200293          	li	t0,2
800003cc:	fc521ce3          	bne	tp,t0,800003a4 <test_13+0x8>
800003d0:	00e00193          	li	gp,14
800003d4:	00000213          	li	tp,0
800003d8:	fcc00693          	li	a3,-52
800003dc:	20000617          	auipc	a2,0x20000
800003e0:	c2460613          	addi	a2,a2,-988 # a0000000 <begin_signature>
800003e4:	00000013          	nop
800003e8:	00000013          	nop
800003ec:	00d60123          	sb	a3,2(a2)
800003f0:	00260703          	lb	a4,2(a2)
800003f4:	fcc00393          	li	t2,-52
800003f8:	20771463          	bne	a4,t2,80000600 <fail>
800003fc:	00120213          	addi	tp,tp,1 # 1 <__heap_size-0x1ff>
80000400:	00200293          	li	t0,2
80000404:	fc521ae3          	bne	tp,t0,800003d8 <test_14+0x8>
80000408:	00f00193          	li	gp,15
8000040c:	00000213          	li	tp,0
80000410:	fbc00693          	li	a3,-68
80000414:	00000013          	nop
80000418:	20000617          	auipc	a2,0x20000
8000041c:	be860613          	addi	a2,a2,-1048 # a0000000 <begin_signature>
80000420:	00d601a3          	sb	a3,3(a2)
80000424:	00360703          	lb	a4,3(a2)
80000428:	fbc00393          	li	t2,-68
8000042c:	1c771a63          	bne	a4,t2,80000600 <fail>
80000430:	00120213          	addi	tp,tp,1 # 1 <__heap_size-0x1ff>
80000434:	00200293          	li	t0,2
80000438:	fc521ce3          	bne	tp,t0,80000410 <test_15+0x8>
8000043c:	01000193          	li	gp,16
80000440:	00000213          	li	tp,0
80000444:	fbb00693          	li	a3,-69
80000448:	00000013          	nop
8000044c:	20000617          	auipc	a2,0x20000
80000450:	bb460613          	addi	a2,a2,-1100 # a0000000 <begin_signature>
80000454:	00000013          	nop
80000458:	00d60223          	sb	a3,4(a2)
8000045c:	00460703          	lb	a4,4(a2)
80000460:	fbb00393          	li	t2,-69
80000464:	18771e63          	bne	a4,t2,80000600 <fail>
80000468:	00120213          	addi	tp,tp,1 # 1 <__heap_size-0x1ff>
8000046c:	00200293          	li	t0,2
80000470:	fc521ae3          	bne	tp,t0,80000444 <test_16+0x8>
80000474:	01100193          	li	gp,17
80000478:	00000213          	li	tp,0
8000047c:	fab00693          	li	a3,-85
80000480:	00000013          	nop
80000484:	00000013          	nop
80000488:	20000617          	auipc	a2,0x20000
8000048c:	b7860613          	addi	a2,a2,-1160 # a0000000 <begin_signature>
80000490:	00d602a3          	sb	a3,5(a2)
80000494:	00560703          	lb	a4,5(a2)
80000498:	fab00393          	li	t2,-85
8000049c:	16771263          	bne	a4,t2,80000600 <fail>
800004a0:	00120213          	addi	tp,tp,1 # 1 <__heap_size-0x1ff>
800004a4:	00200293          	li	t0,2
800004a8:	fc521ae3          	bne	tp,t0,8000047c <test_17+0x8>
800004ac:	01200193          	li	gp,18
800004b0:	00000213          	li	tp,0
800004b4:	20000117          	auipc	sp,0x20000
800004b8:	b4c10113          	addi	sp,sp,-1204 # a0000000 <begin_signature>
800004bc:	03300093          	li	ra,51
800004c0:	00110023          	sb	ra,0(sp)
800004c4:	00010703          	lb	a4,0(sp)
800004c8:	03300393          	li	t2,51
800004cc:	12771a63          	bne	a4,t2,80000600 <fail>
800004d0:	00120213          	addi	tp,tp,1 # 1 <__heap_size-0x1ff>
800004d4:	00200293          	li	t0,2
800004d8:	fc521ee3          	bne	tp,t0,800004b4 <test_18+0x8>
800004dc:	01300193          	li	gp,19
800004e0:	00000213          	li	tp,0
800004e4:	20000117          	auipc	sp,0x20000
800004e8:	b1c10113          	addi	sp,sp,-1252 # a0000000 <begin_signature>
800004ec:	02300093          	li	ra,35
800004f0:	00000013          	nop
800004f4:	001100a3          	sb	ra,1(sp)
800004f8:	00110703          	lb	a4,1(sp)
800004fc:	02300393          	li	t2,35
80000500:	10771063          	bne	a4,t2,80000600 <fail>
80000504:	00120213          	addi	tp,tp,1 # 1 <__heap_size-0x1ff>
80000508:	00200293          	li	t0,2
8000050c:	fc521ce3          	bne	tp,t0,800004e4 <test_19+0x8>
80000510:	01400193          	li	gp,20
80000514:	00000213          	li	tp,0
80000518:	20000117          	auipc	sp,0x20000
8000051c:	ae810113          	addi	sp,sp,-1304 # a0000000 <begin_signature>
80000520:	02200093          	li	ra,34
80000524:	00000013          	nop
80000528:	00000013          	nop
8000052c:	00110123          	sb	ra,2(sp)
80000530:	00210703          	lb	a4,2(sp)
80000534:	02200393          	li	t2,34
80000538:	0c771463          	bne	a4,t2,80000600 <fail>
8000053c:	00120213          	addi	tp,tp,1 # 1 <__heap_size-0x1ff>
80000540:	00200293          	li	t0,2
80000544:	fc521ae3          	bne	tp,t0,80000518 <test_20+0x8>
80000548:	01500193          	li	gp,21
8000054c:	00000213          	li	tp,0
80000550:	20000117          	auipc	sp,0x20000
80000554:	ab010113          	addi	sp,sp,-1360 # a0000000 <begin_signature>
80000558:	00000013          	nop
8000055c:	01200093          	li	ra,18
80000560:	001101a3          	sb	ra,3(sp)
80000564:	00310703          	lb	a4,3(sp)
80000568:	01200393          	li	t2,18
8000056c:	08771a63          	bne	a4,t2,80000600 <fail>
80000570:	00120213          	addi	tp,tp,1 # 1 <__heap_size-0x1ff>
80000574:	00200293          	li	t0,2
80000578:	fc521ce3          	bne	tp,t0,80000550 <test_21+0x8>
8000057c:	01600193          	li	gp,22
80000580:	00000213          	li	tp,0
80000584:	20000117          	auipc	sp,0x20000
80000588:	a7c10113          	addi	sp,sp,-1412 # a0000000 <begin_signature>
8000058c:	00000013          	nop
80000590:	01100093          	li	ra,17
80000594:	00000013          	nop
80000598:	00110223          	sb	ra,4(sp)
8000059c:	00410703          	lb	a4,4(sp)
800005a0:	01100393          	li	t2,17
800005a4:	04771e63          	bne	a4,t2,80000600 <fail>
800005a8:	00120213          	addi	tp,tp,1 # 1 <__heap_size-0x1ff>
800005ac:	00200293          	li	t0,2
800005b0:	fc521ae3          	bne	tp,t0,80000584 <test_22+0x8>
800005b4:	01700193          	li	gp,23
800005b8:	00000213          	li	tp,0
800005bc:	20000117          	auipc	sp,0x20000
800005c0:	a4410113          	addi	sp,sp,-1468 # a0000000 <begin_signature>
800005c4:	00000013          	nop
800005c8:	00000013          	nop
800005cc:	00100093          	li	ra,1
800005d0:	001102a3          	sb	ra,5(sp)
800005d4:	00510703          	lb	a4,5(sp)
800005d8:	00100393          	li	t2,1
800005dc:	02771263          	bne	a4,t2,80000600 <fail>
800005e0:	00120213          	addi	tp,tp,1 # 1 <__heap_size-0x1ff>
800005e4:	00200293          	li	t0,2
800005e8:	fc521ae3          	bne	tp,t0,800005bc <test_23+0x8>
800005ec:	0ef00513          	li	a0,239
800005f0:	20000597          	auipc	a1,0x20000
800005f4:	a1058593          	addi	a1,a1,-1520 # a0000000 <begin_signature>
800005f8:	00a581a3          	sb	a0,3(a1)
800005fc:	02301063          	bne	zero,gp,8000061c <pass>
80000600:	0ff0000f          	fence
80000604:	00018063          	beqz	gp,80000604 <fail+0x4>
80000608:	00119193          	slli	gp,gp,0x1
8000060c:	0011e193          	ori	gp,gp,1
80000610:	05d00893          	li	a7,93
80000614:	00018513          	mv	a0,gp
80000618:	00000073          	ecall
8000061c:	0ff0000f          	fence
80000620:	00100193          	li	gp,1
80000624:	05d00893          	li	a7,93
80000628:	00000513          	li	a0,0
8000062c:	00000073          	ecall
80000630:	c0001073          	unimp
80000634:	0000                	.insn	2, 0x
80000636:	0000                	.insn	2, 0x
80000638:	0000                	.insn	2, 0x
8000063a:	0000                	.insn	2, 0x
a0000009:	000000ef          	jal	a0000009 <tdat10>
a000000d:	0000                	.insn	2, 0x
80000000:	0500006f          	j	80000050 <reset_vector>
80000004:	34202f73          	csrr	t5,mcause
80000008:	00800f93          	li	t6,8
8000000c:	03ff0863          	beq	t5,t6,8000003c <write_tohost>
80000010:	00900f93          	li	t6,9
80000014:	03ff0463          	beq	t5,t6,8000003c <write_tohost>
80000018:	00b00f93          	li	t6,11
8000001c:	03ff0063          	beq	t5,t6,8000003c <write_tohost>
80000020:	00000f13          	li	t5,0
80000024:	000f0463          	beqz	t5,8000002c <trap_vector+0x28>
80000028:	000f0067          	jr	t5
8000002c:	34202f73          	csrr	t5,mcause
80000030:	000f5463          	bgez	t5,80000038 <handle_exception>
80000034:	0040006f          	j	80000038 <handle_exception>
80000038:	5391e193          	ori	gp,gp,1337
8000003c:	20000f17          	auipc	t5,0x20000
80000040:	fc3f2223          	sw	gp,-60(t5) # a0000000 <tohost>
80000044:	20000f17          	auipc	t5,0x20000
80000048:	fc0f2023          	sw	zero,-64(t5) # a0000004 <tohost+0x4>
8000004c:	ff1ff06f          	j	8000003c <write_tohost>
80000050:	00000093          	li	ra,0
80000054:	00000113          	li	sp,0
80000058:	00000193          	li	gp,0
8000005c:	00000213          	li	tp,0
80000060:	00000293          	li	t0,0
80000064:	00000313          	li	t1,0
80000068:	00000393          	li	t2,0
8000006c:	00000413          	li	s0,0
80000070:	00000493          	li	s1,0
80000074:	00000513          	li	a0,0
80000078:	00000593          	li	a1,0
8000007c:	00000613          	li	a2,0
80000080:	00000693          	li	a3,0
80000084:	00000713          	li	a4,0
80000088:	00000793          	li	a5,0
8000008c:	00000813          	li	a6,0
80000090:	00000893          	li	a7,0
80000094:	00000913          	li	s2,0
80000098:	00000993          	li	s3,0
8000009c:	00000a13          	li	s4,0
800000a0:	00000a93          	li	s5,0
800000a4:	00000b13          	li	s6,0
800000a8:	00000b93          	li	s7,0
800000ac:	00000c13          	li	s8,0
800000b0:	00000c93          	li	s9,0
800000b4:	00000d13          	li	s10,0
800000b8:	00000d93          	li	s11,0
800000bc:	00000e13          	li	t3,0
800000c0:	00000e93          	li	t4,0
800000c4:	00000f13          	li	t5,0
800000c8:	00000f93          	li	t6,0
800000cc:	f1402573          	csrr	a0,mhartid
800000d0:	00051063          	bnez	a0,800000d0 <reset_vector+0x80>
800000d4:	00000297          	auipc	t0,0x0
800000d8:	01028293          	addi	t0,t0,16 # 800000e4 <reset_vector+0x94>
800000dc:	30529073          	csrw	mtvec,t0
800000e0:	74445073          	csrwi	0x744,8
800000e4:	00000297          	auipc	t0,0x0
800000e8:	01028293          	addi	t0,t0,16 # 800000f4 <reset_vector+0xa4>
800000ec:	30529073          	csrw	mtvec,t0
800000f0:	18005073          	csrwi	satp,0
800000f4:	00000297          	auipc	t0,0x0
800000f8:	02028293          	addi	t0,t0,32 # 80000114 <reset_vector+0xc4>
800000fc:	30529073          	csrw	mtvec,t0
80000100:	800002b7          	lui	t0,0x80000
80000104:	fff28293          	addi	t0,t0,-1 # 7fffffff <__stack_size+0x7ffff7ff>
80000108:	3b029073          	csrw	pmpaddr0,t0
8000010c:	01f00293          	li	t0,31
80000110:	3a029073          	csrw	pmpcfg0,t0
80000114:	30405073          	csrwi	mie,0
80000118:	00000297          	auipc	t0,0x0
8000011c:	01428293          	addi	t0,t0,20 # 8000012c <reset_vector+0xdc>
80000120:	30529073          	csrw	mtvec,t0
80000124:	30205073          	csrwi	medeleg,0
80000128:	30305073          	csrwi	mideleg,0
8000012c:	00000193          	li	gp,0
80000130:	00000297          	auipc	t0,0x0
80000134:	ed428293          	addi	t0,t0,-300 # 80000004 <trap_vector>
80000138:	30529073          	csrw	mtvec,t0
8000013c:	00100513          	li	a0,1
80000140:	01f51513          	slli	a0,a0,0x1f
80000144:	00054c63          	bltz	a0,8000015c <reset_vector+0x10c>
80000148:	0ff0000f          	fence
8000014c:	00100193          	li	gp,1
80000150:	05d00893          	li	a7,93
80000154:	00000513          	li	a0,0
80000158:	00000073          	ecall
8000015c:	00000293          	li	t0,0
80000160:	00028a63          	beqz	t0,80000174 <reset_vector+0x124>
80000164:	10529073          	csrw	stvec,t0
80000168:	0000b2b7          	lui	t0,0xb
8000016c:	10928293          	addi	t0,t0,265 # b109 <__stack_size+0xa909>
80000170:	30229073          	csrw	medeleg,t0
80000174:	30005073          	csrwi	mstatus,0
80000178:	00000297          	auipc	t0,0x0
8000017c:	01428293          	addi	t0,t0,20 # 8000018c <test_2>
80000180:	34129073          	csrw	mepc,t0
80000184:	f1402573          	csrr	a0,mhartid
80000188:	30200073          	mret
8000018c:	00200193          	li	gp,2
80000190:	ff0105b7          	lui	a1,0xff010
80000194:	f0058593          	addi	a1,a1,-256 # ff00ff00 <_end+0x5f00f4b8>
80000198:	0f0f1637          	lui	a2,0xf0f1
8000019c:	f0f60613          	addi	a2,a2,-241 # f0f0f0f <__stack_size+0xf0f070f>
800001a0:	00c5f733          	and	a4,a1,a2
800001a4:	0f0013b7          	lui	t2,0xf001
800001a8:	f0038393          	addi	t2,t2,-256 # f000f00 <__stack_size+0xf000700>
800001ac:	48771c63          	bne	a4,t2,80000644 <fail>
800001b0:	00300193          	li	gp,3
800001b4:	0ff015b7          	lui	a1,0xff01
800001b8:	ff058593          	addi	a1,a1,-16 # ff00ff0 <__stack_size+0xff007f0>
800001bc:	f0f0f637          	lui	a2,0xf0f0f
800001c0:	0f060613          	addi	a2,a2,240 # f0f0f0f0 <_end+0x50f0e6a8>
800001c4:	00c5f733          	and	a4,a1,a2
800001c8:	00f003b7          	lui	t2,0xf00
800001cc:	0f038393          	addi	t2,t2,240 # f000f0 <__stack_size+0xeff8f0>
800001d0:	46771a63          	bne	a4,t2,80000644 <fail>
800001d4:	00400193          	li	gp,4
800001d8:	00ff05b7          	lui	a1,0xff0
800001dc:	0ff58593          	addi	a1,a1,255 # ff00ff <__stack_size+0xfef8ff>
800001e0:	0f0f1637          	lui	a2,0xf0f1
800001e4:	f0f60613          	addi	a2,a2,-241 # f0f0f0f <__stack_size+0xf0f070f>
800001e8:	00c5f733          	and	a4,a1,a2
800001ec:	000f03b7          	lui	t2,0xf0
800001f0:	00f38393          	addi	t2,t2,15 # f000f <__stack_size+0xef80f>
800001f4:	44771863          	bne	a4,t2,80000644 <fail>
800001f8:	00500193          	li	gp,5
800001fc:	f00ff5b7          	lui	a1,0xf00ff
80000200:	00f58593          	addi	a1,a1,15 # f00ff00f <_end+0x500fe5c7>
80000204:	f0f0f637          	lui	a2,0xf0f0f
80000208:	0f060613          	addi	a2,a2,240 # f0f0f0f0 <_end+0x50f0e6a8>
8000020c:	00c5f733          	and	a4,a1,a2
80000210:	f000f3b7          	lui	t2,0xf000f
80000214:	42771863          	bne	a4,t2,80000644 <fail>
80000218:	00600193          	li	gp,6
8000021c:	ff0105b7          	lui	a1,0xff010
80000220:	f0058593          	addi	a1,a1,-256 # ff00ff00 <_end+0x5f00f4b8>
80000224:	0f0f1637          	lui	a2,0xf0f1
80000228:	f0f60613          	addi	a2,a2,-241 # f0f0f0f <__stack_size+0xf0f070f>
8000022c:	00c5f5b3          	and	a1,a1,a2
80000230:	0f0013b7          	lui	t2,0xf001
80000234:	f0038393          	addi	t2,t2,-256 # f000f00 <__stack_size+0xf000700>
80000238:	40759663          	bne	a1,t2,80000644 <fail>
8000023c:	00700193          	li	gp,7
80000240:	0ff015b7          	lui	a1,0xff01
80000244:	ff058593          	addi	a1,a1,-16 # ff00ff0 <__stack_size+0xff007f0>
80000248:	f0f0f637          	lui	a2,0xf0f0f
8000024c:	0f060613          	addi	a2,a2,240 # f0f0f0f0 <_end+0x50f0e6a8>
80000250:	00c5f633          	and	a2,a1,a2
80000254:	00f003b7          	lui	t2,0xf00
80000258:	0f038393          	addi	t2,t2,240 # f000f0 <__stack_size+0xeff8f0>
8000025c:	3e761463          	bne	a2,t2,80000644 <fail>
80000260:	00800193          	li	gp,8
80000264:	ff0105b7          	lui	a1,0xff010
80000268:	f0058593          	addi	a1,a1,-256 # ff00ff00 <_end+0x5f00f4b8>
8000026c:	00b5f5b3          	and	a1,a1,a1
80000270:	ff0103b7          	lui	t2,0xff010
80000274:	f0038393          	addi	t2,t2,-256 # ff00ff00 <_end+0x5f00f4b8>
80000278:	3c759663          	bne	a1,t2,80000644 <fail>
8000027c:	00900193          	li	gp,9
80000280:	00000213          	li	tp,0
80000284:	ff0100b7          	lui	ra,0xff010
80000288:	f0008093          	addi	ra,ra,-256 # ff00ff00 <_end+0x5f00f4b8>
8000028c:	0f0f1137          	lui	sp,0xf0f1
80000290:	f0f10113          	addi	sp,sp,-241 # f0f0f0f <__stack_size+0xf0f070f>
80000294:	0020f733          	and	a4,ra,sp
80000298:	00070313          	mv	t1,a4
8000029c:	00120213          	addi	tp,tp,1 # 1 <__heap_size-0x1ff>
800002a0:	00200293          	li	t0,2
800002a4:	fe5210e3          	bne	tp,t0,80000284 <test_9+0x8>
800002a8:	0f0013b7          	lui	t2,0xf001
800002ac:	f0038393          	addi	t2,t2,-256 # f000f00 <__stack_size+0xf000700>
800002b0:	38731a63          	bne	t1,t2,80000644 <fail>
800002b4:	00a00193          	li	gp,10
800002b8:	00000213          	li	tp,0
800002bc:	0ff010b7          	lui	ra,0xff01
800002c0:	ff008093          	addi	ra,ra,-16 # ff00ff0 <__stack_size+0xff007f0>
800002c4:	f0f0f137          	lui	sp,0xf0f0f
800002c8:	0f010113          	addi	sp,sp,240 # f0f0f0f0 <_end+0x50f0e6a8>
800002cc:	0020f733          	and	a4,ra,sp
800002d0:	00000013          	nop
800002d4:	00070313          	mv	t1,a4
800002d8:	00120213          	addi	tp,tp,1 # 1 <__heap_size-0x1ff>
800002dc:	00200293          	li	t0,2
800002e0:	fc521ee3          	bne	tp,t0,800002bc <test_10+0x8>
800002e4:	00f003b7          	lui	t2,0xf00
800002e8:	0f038393          	addi	t2,t2,240 # f000f0 <__stack_size+0xeff8f0>
800002ec:	34731c63          	bne	t1,t2,80000644 <fail>
800002f0:	00b00193          	li	gp,11
800002f4:	00000213          	li	tp,0
800002f8:	00ff00b7          	lui	ra,0xff0
800002fc:	0ff08093          	addi	ra,ra,255 # ff00ff <__stack_size+0xfef8ff>
80000300:	0f0f1137          	lui	sp,0xf0f1
80000304:	f0f10113          	addi	sp,sp,-241 # f0f0f0f <__stack_size+0xf0f070f>
80000308:	0020f733          	and	a4,ra,sp
8000030c:	00000013          	nop
80000310:	00000013          	nop
80000314:	00070313          	mv	t1,a4
80000318:	00120213          	addi	tp,tp,1 # 1 <__heap_size-0x1ff>
8000031c:	00200293          	li	t0,2
80000320:	fc521ce3          	bne	tp,t0,800002f8 <test_11+0x8>
80000324:	000f03b7          	lui	t2,0xf0
80000328:	00f38393          	addi	t2,t2,15 # f000f <__stack_size+0xef80f>
8000032c:	30731c63          	bne	t1,t2,80000644 <fail>
80000330:	00c00193          	li	gp,12
80000334:	00000213          	li	tp,0
80000338:	ff0100b7          	lui	ra,0xff010
8000033c:	f0008093          	addi	ra,ra,-256 # ff00ff00 <_end+0x5f00f4b8>
80000340:	0f0f1137          	lui	sp,0xf0f1
80000344:	f0f10113          	addi	sp,sp,-241 # f0f0f0f <__stack_size+0xf0f070f>
80000348:	0020f733          	and	a4,ra,sp
8000034c:	00120213          	addi	tp,tp,1 # 1 <__heap_size-0x1ff>
80000350:	00200293          	li	t0,2
80000354:	fe5212e3          	bne	tp,t0,80000338 <test_12+0x8>
80000358:	0f0013b7          	lui	t2,0xf001
8000035c:	f0038393          	addi	t2,t2,-256 # f000f00 <__stack_size+0xf000700>
80000360:	2e771263          	bne	a4,t2,80000644 <fail>
80000364:	00d00193          	li	gp,13
80000368:	00000213          	li	tp,0
8000036c:	0ff010b7          	lui	ra,0xff01
80000370:	ff008093          	addi	ra,ra,-16 # ff00ff0 <__stack_size+0xff007f0>
80000374:	f0f0f137          	lui	sp,0xf0f0f
80000378:	0f010113          	addi	sp,sp,240 # f0f0f0f0 <_end+0x50f0e6a8>
8000037c:	00000013          	nop
80000380:	0020f733          	and	a4,ra,sp
80000384:	00120213          	addi	tp,tp,1 # 1 <__heap_size-0x1ff>
80000388:	00200293          	li	t0,2
8000038c:	fe5210e3          	bne	tp,t0,8000036c <test_13+0x8>
80000390:	00f003b7          	lui	t2,0xf00
80000394:	0f038393          	addi	t2,t2,240 # f000f0 <__stack_size+0xeff8f0>
80000398:	2a771663          	bne	a4,t2,80000644 <fail>
8000039c:	00e00193          	li	gp,14
800003a0:	00000213          	li	tp,0
800003a4:	00ff00b7          	lui	ra,0xff0
800003a8:	0ff08093          	addi	ra,ra,255 # ff00ff <__stack_size+0xfef8ff>
800003ac:	0f0f1137          	lui	sp,0xf0f1
800003b0:	f0f10113          	addi	sp,sp,-241 # f0f0f0f <__stack_size+0xf0f070f>
800003b4:	00000013          	nop
800003b8:	00000013          	nop
800003bc:	0020f733          	and	a4,ra,sp
800003c0:	00120213          	addi	tp,tp,1 # 1 <__heap_size-0x1ff>
800003c4:	00200293          	li	t0,2
800003c8:	fc521ee3          	bne	tp,t0,800003a4 <test_14+0x8>
800003cc:	000f03b7          	lui	t2,0xf0
800003d0:	00f38393          	addi	t2,t2,15 # f000f <__stack_size+0xef80f>
800003d4:	26771863          	bne	a4,t2,80000644 <fail>
800003d8:	00f00193          	li	gp,15
800003dc:	00000213          	li	tp,0
800003e0:	ff0100b7          	lui	ra,0xff010
800003e4:	f0008093          	addi	ra,ra,-256 # ff00ff00 <_end+0x5f00f4b8>
800003e8:	00000013          	nop
800003ec:	0f0f1137          	lui	sp,0xf0f1
800003f0:	f0f10113          	addi	sp,sp,-241 # f0f0f0f <__stack_size+0xf0f070f>
800003f4:	0020f733          	and	a4,ra,sp
800003f8:	00120213          	addi	tp,tp,1 # 1 <__heap_size-0x1ff>
800003fc:	00200293          	li	t0,2
80000400:	fe5210e3          	bne	tp,t0,800003e0 <test_15+0x8>
80000404:	0f0013b7          	lui	t2,0xf001
80000408:	f0038393          	addi	t2,t2,-256 # f000f00 <__stack_size+0xf000700>
8000040c:	22771c63          	bne	a4,t2,80000644 <fail>
80000410:	01000193          	li	gp,16
80000414:	00000213          	li	tp,0
80000418:	0ff010b7          	lui	ra,0xff01
8000041c:	ff008093          	addi	ra,ra,-16 # ff00ff0 <__stack_size+0xff007f0>
80000420:	00000013          	nop
80000424:	f0f0f137          	lui	sp,0xf0f0f
80000428:	0f010113          	addi	sp,sp,240 # f0f0f0f0 <_end+0x50f0e6a8>
8000042c:	00000013          	nop
80000430:	0020f733          	and	a4,ra,sp
80000434:	00120213          	addi	tp,tp,1 # 1 <__heap_size-0x1ff>
80000438:	00200293          	li	t0,2
8000043c:	fc521ee3          	bne	tp,t0,80000418 <test_16+0x8>
80000440:	00f003b7          	lui	t2,0xf00
80000444:	0f038393          	addi	t2,t2,240 # f000f0 <__stack_size+0xeff8f0>
80000448:	1e771e63          	bne	a4,t2,80000644 <fail>
8000044c:	01100193          	li	gp,17
80000450:	00000213          	li	tp,0
80000454:	00ff00b7          	lui	ra,0xff0
80000458:	0ff08093          	addi	ra,ra,255 # ff00ff <__stack_size+0xfef8ff>
8000045c:	00000013          	nop
80000460:	00000013          	nop
80000464:	0f0f1137          	lui	sp,0xf0f1
80000468:	f0f10113          	addi	sp,sp,-241 # f0f0f0f <__stack_size+0xf0f070f>
8000046c:	0020f733          	and	a4,ra,sp
80000470:	00120213          	addi	tp,tp,1 # 1 <__heap_size-0x1ff>
80000474:	00200293          	li	t0,2
80000478:	fc521ee3          	bne	tp,t0,80000454 <test_17+0x8>
8000047c:	000f03b7          	lui	t2,0xf0
80000480:	00f38393          	addi	t2,t2,15 # f000f <__stack_size+0xef80f>
80000484:	1c771063          	bne	a4,t2,80000644 <fail>
80000488:	01200193          	li	gp,18
8000048c:	00000213          	li	tp,0
80000490:	0f0f1137          	lui	sp,0xf0f1
80000494:	f0f10113          	addi	sp,sp,-241 # f0f0f0f <__stack_size+0xf0f070f>
80000498:	ff0100b7          	lui	ra,0xff010
8000049c:	f0008093          	addi	ra,ra,-256 # ff00ff00 <_end+0x5f00f4b8>
800004a0:	0020f733          	and	a4,ra,sp
800004a4:	00120213          	addi	tp,tp,1 # 1 <__heap_size-0x1ff>
800004a8:	00200293          	li	t0,2
800004ac:	fe5212e3          	bne	tp,t0,80000490 <test_18+0x8>
800004b0:	0f0013b7          	lui	t2,0xf001
800004b4:	f0038393          	addi	t2,t2,-256 # f000f00 <__stack_size+0xf000700>
800004b8:	18771663          	bne	a4,t2,80000644 <fail>
800004bc:	01300193          	li	gp,19
800004c0:	00000213          	li	tp,0
800004c4:	f0f0f137          	lui	sp,0xf0f0f
800004c8:	0f010113          	addi	sp,sp,240 # f0f0f0f0 <_end+0x50f0e6a8>
800004cc:	0ff010b7          	lui	ra,0xff01
800004d0:	ff008093          	addi	ra,ra,-16 # ff00ff0 <__stack_size+0xff007f0>
800004d4:	00000013          	nop
800004d8:	0020f733          	and	a4,ra,sp
800004dc:	00120213          	addi	tp,tp,1 # 1 <__heap_size-0x1ff>
800004e0:	00200293          	li	t0,2
800004e4:	fe5210e3          	bne	tp,t0,800004c4 <test_19+0x8>
800004e8:	00f003b7          	lui	t2,0xf00
800004ec:	0f038393          	addi	t2,t2,240 # f000f0 <__stack_size+0xeff8f0>
800004f0:	14771a63          	bne	a4,t2,80000644 <fail>
800004f4:	01400193          	li	gp,20
800004f8:	00000213          	li	tp,0
800004fc:	0f0f1137          	lui	sp,0xf0f1
80000500:	f0f10113          	addi	sp,sp,-241 # f0f0f0f <__stack_size+0xf0f070f>
80000504:	00ff00b7          	lui	ra,0xff0
80000508:	0ff08093          	addi	ra,ra,255 # ff00ff <__stack_size+0xfef8ff>
8000050c:	00000013          	nop
80000510:	00000013          	nop
80000514:	0020f733          	and	a4,ra,sp
80000518:	00120213          	addi	tp,tp,1 # 1 <__heap_size-0x1ff>
8000051c:	00200293          	li	t0,2
80000520:	fc521ee3          	bne	tp,t0,800004fc <test_20+0x8>
80000524:	000f03b7          	lui	t2,0xf0
80000528:	00f38393          	addi	t2,t2,15 # f000f <__stack_size+0xef80f>
8000052c:	10771c63          	bne	a4,t2,80000644 <fail>
80000530:	01500193          	li	gp,21
80000534:	00000213          	li	tp,0
80000538:	0f0f1137          	lui	sp,0xf0f1
8000053c:	f0f10113          	addi	sp,sp,-241 # f0f0f0f <__stack_size+0xf0f070f>
80000540:	00000013          	nop
80000544:	ff0100b7          	lui	ra,0xff010
80000548:	f0008093          	addi	ra,ra,-256 # ff00ff00 <_end+0x5f00f4b8>
8000054c:	0020f733          	and	a4,ra,sp
80000550:	00120213          	addi	tp,tp,1 # 1 <__heap_size-0x1ff>
80000554:	00200293          	li	t0,2
80000558:	fe5210e3          	bne	tp,t0,80000538 <test_21+0x8>
8000055c:	0f0013b7          	lui	t2,0xf001
80000560:	f0038393          	addi	t2,t2,-256 # f000f00 <__stack_size+0xf000700>
80000564:	0e771063          	bne	a4,t2,80000644 <fail>
80000568:	01600193          	li	gp,22
8000056c:	00000213          	li	tp,0
80000570:	f0f0f137          	lui	sp,0xf0f0f
80000574:	0f010113          	addi	sp,sp,240 # f0f0f0f0 <_end+0x50f0e6a8>
80000578:	00000013          	nop
8000057c:	0ff010b7          	lui	ra,0xff01
80000580:	ff008093          	addi	ra,ra,-16 # ff00ff0 <__stack_size+0xff007f0>
80000584:	00000013          	nop
80000588:	0020f733          	and	a4,ra,sp
8000058c:	00120213          	addi	tp,tp,1 # 1 <__heap_size-0x1ff>
80000590:	00200293          	li	t0,2
80000594:	fc521ee3          	bne	tp,t0,80000570 <test_22+0x8>
80000598:	00f003b7          	lui	t2,0xf00
8000059c:	0f038393          	addi	t2,t2,240 # f000f0 <__stack_size+0xeff8f0>
800005a0:	0a771263          	bne	a4,t2,80000644 <fail>
800005a4:	01700193          	li	gp,23
800005a8:	00000213          	li	tp,0
800005ac:	0f0f1137          	lui	sp,0xf0f1
800005b0:	f0f10113          	addi	sp,sp,-241 # f0f0f0f <__stack_size+0xf0f070f>
800005b4:	00000013          	nop
800005b8:	00000013          	nop
800005bc:	00ff00b7          	lui	ra,0xff0
800005c0:	0ff08093          	addi	ra,ra,255 # ff00ff <__stack_size+0xfef8ff>
800005c4:	0020f733          	and	a4,ra,sp
800005c8:	00120213          	addi	tp,tp,1 # 1 <__heap_size-0x1ff>
800005cc:	00200293          	li	t0,2
800005d0:	fc521ee3          	bne	tp,t0,800005ac <test_23+0x8>
800005d4:	000f03b7          	lui	t2,0xf0
800005d8:	00f38393          	addi	t2,t2,15 # f000f <__stack_size+0xef80f>
800005dc:	06771463          	bne	a4,t2,80000644 <fail>
800005e0:	01800193          	li	gp,24
800005e4:	ff0100b7          	lui	ra,0xff010
800005e8:	f0008093          	addi	ra,ra,-256 # ff00ff00 <_end+0x5f00f4b8>
800005ec:	00107133          	and	sp,zero,ra
800005f0:	00000393          	li	t2,0
800005f4:	04711863          	bne	sp,t2,80000644 <fail>
800005f8:	01900193          	li	gp,25
800005fc:	00ff00b7          	lui	ra,0xff0
80000600:	0ff08093          	addi	ra,ra,255 # ff00ff <__stack_size+0xfef8ff>
80000604:	0000f133          	and	sp,ra,zero
80000608:	00000393          	li	t2,0
8000060c:	02711c63          	bne	sp,t2,80000644 <fail>
80000610:	01a00193          	li	gp,26
80000614:	000070b3          	and	ra,zero,zero
80000618:	00000393          	li	t2,0
8000061c:	02709463          	bne	ra,t2,80000644 <fail>
80000620:	01b00193          	li	gp,27
80000624:	111110b7          	lui	ra,0x11111
80000628:	11108093          	addi	ra,ra,273 # 11111111 <__stack_size+0x11110911>
8000062c:	22222137          	lui	sp,0x22222
80000630:	22210113          	addi	sp,sp,546 # 22222222 <__stack_size+0x22221a22>
80000634:	0020f033          	and	zero,ra,sp
80000638:	00000393          	li	t2,0
8000063c:	00701463          	bne	zero,t2,80000644 <fail>
80000640:	02301063          	bne	zero,gp,80000660 <pass>
80000644:	0ff0000f          	fence
80000648:	00018063          	beqz	gp,80000648 <fail+0x4>
8000064c:	00119193          	slli	gp,gp,0x1
80000650:	0011e193          	ori	gp,gp,1
80000654:	05d00893          	li	a7,93
80000658:	00018513          	mv	a0,gp
8000065c:	00000073          	ecall
80000660:	0ff0000f          	fence
80000664:	00100193          	li	gp,1
80000668:	05d00893          	li	a7,93
8000066c:	00000513          	li	a0,0
80000670:	00000073          	ecall
80000674:	c0001073          	unimp
80000678:	0000                	.insn	2, 0x
8000067a:	0000                	.insn	2, 0x
80000000:	0500006f          	j	80000050 <reset_vector>
80000004:	34202f73          	csrr	t5,mcause
80000008:	00800f93          	li	t6,8
8000000c:	03ff0863          	beq	t5,t6,8000003c <write_tohost>
80000010:	00900f93          	li	t6,9
80000014:	03ff0463          	beq	t5,t6,8000003c <write_tohost>
80000018:	00b00f93          	li	t6,11
8000001c:	03ff0063          	beq	t5,t6,8000003c <write_tohost>
80000020:	00000f13          	li	t5,0
80000024:	000f0463          	beqz	t5,8000002c <trap_vector+0x28>
80000028:	000f0067          	jr	t5
8000002c:	34202f73          	csrr	t5,mcause
80000030:	000f5463          	bgez	t5,80000038 <handle_exception>
80000034:	0040006f          	j	80000038 <handle_exception>
80000038:	5391e193          	ori	gp,gp,1337
8000003c:	20000f17          	auipc	t5,0x20000
80000040:	fc3f2223          	sw	gp,-60(t5) # a0000000 <tohost>
80000044:	20000f17          	auipc	t5,0x20000
80000048:	fc0f2023          	sw	zero,-64(t5) # a0000004 <tohost+0x4>
8000004c:	ff1ff06f          	j	8000003c <write_tohost>
80000050:	00000093          	li	ra,0
80000054:	00000113          	li	sp,0
80000058:	00000193          	li	gp,0
8000005c:	00000213          	li	tp,0
80000060:	00000293          	li	t0,0
80000064:	00000313          	li	t1,0
80000068:	00000393          	li	t2,0
8000006c:	00000413          	li	s0,0
80000070:	00000493          	li	s1,0
80000074:	00000513          	li	a0,0
80000078:	00000593          	li	a1,0
8000007c:	00000613          	li	a2,0
80000080:	00000693          	li	a3,0
80000084:	00000713          	li	a4,0
80000088:	00000793          	li	a5,0
8000008c:	00000813          	li	a6,0
80000090:	00000893          	li	a7,0
80000094:	00000913          	li	s2,0
80000098:	00000993          	li	s3,0
8000009c:	00000a13          	li	s4,0
800000a0:	00000a93          	li	s5,0
800000a4:	00000b13          	li	s6,0
800000a8:	00000b93          	li	s7,0
800000ac:	00000c13          	li	s8,0
800000b0:	00000c93          	li	s9,0
800000b4:	00000d13          	li	s10,0
800000b8:	00000d93          	li	s11,0
800000bc:	00000e13          	li	t3,0
800000c0:	00000e93          	li	t4,0
800000c4:	00000f13          	li	t5,0
800000c8:	00000f93          	li	t6,0
800000cc:	f1402573          	csrr	a0,mhartid
800000d0:	00051063          	bnez	a0,800000d0 <reset_vector+0x80>
800000d4:	00000297          	auipc	t0,0x0
800000d8:	01028293          	addi	t0,t0,16 # 800000e4 <reset_vector+0x94>
800000dc:	30529073          	csrw	mtvec,t0
800000e0:	74445073          	csrwi	0x744,8
800000e4:	00000297          	auipc	t0,0x0
800000e8:	01028293          	addi	t0,t0,16 # 800000f4 <reset_vector+0xa4>
800000ec:	30529073          	csrw	mtvec,t0
800000f0:	18005073          	csrwi	satp,0
800000f4:	00000297          	auipc	t0,0x0
800000f8:	02028293          	addi	t0,t0,32 # 80000114 <reset_vector+0xc4>
800000fc:	30529073          	csrw	mtvec,t0
80000100:	800002b7          	lui	t0,0x80000
80000104:	fff28293          	addi	t0,t0,-1 # 7fffffff <__stack_size+0x7ffff7ff>
80000108:	3b029073          	csrw	pmpaddr0,t0
8000010c:	01f00293          	li	t0,31
80000110:	3a029073          	csrw	pmpcfg0,t0
80000114:	30405073          	csrwi	mie,0
80000118:	00000297          	auipc	t0,0x0
8000011c:	01428293          	addi	t0,t0,20 # 8000012c <reset_vector+0xdc>
80000120:	30529073          	csrw	mtvec,t0
80000124:	30205073          	csrwi	medeleg,0
80000128:	30305073          	csrwi	mideleg,0
8000012c:	00000193          	li	gp,0
80000130:	00000297          	auipc	t0,0x0
80000134:	ed428293          	addi	t0,t0,-300 # 80000004 <trap_vector>
80000138:	30529073          	csrw	mtvec,t0
8000013c:	00100513          	li	a0,1
80000140:	01f51513          	slli	a0,a0,0x1f
80000144:	00054c63          	bltz	a0,8000015c <reset_vector+0x10c>
80000148:	0ff0000f          	fence
8000014c:	00100193          	li	gp,1
80000150:	05d00893          	li	a7,93
80000154:	00000513          	li	a0,0
80000158:	00000073          	ecall
8000015c:	00000293          	li	t0,0
80000160:	00028a63          	beqz	t0,80000174 <reset_vector+0x124>
80000164:	10529073          	csrw	stvec,t0
80000168:	0000b2b7          	lui	t0,0xb
8000016c:	10928293          	addi	t0,t0,265 # b109 <__stack_size+0xa909>
80000170:	30229073          	csrw	medeleg,t0
80000174:	30005073          	csrwi	mstatus,0
80000178:	00000297          	auipc	t0,0x0
8000017c:	01428293          	addi	t0,t0,20 # 8000018c <test_2>
80000180:	34129073          	csrw	mepc,t0
80000184:	f1402573          	csrr	a0,mhartid
80000188:	30200073          	mret
8000018c:	00200193          	li	gp,2
80000190:	00000093          	li	ra,0
80000194:	00100113          	li	sp,1
80000198:	0020e663          	bltu	ra,sp,800001a4 <test_2+0x18>
8000019c:	2e301263          	bne	zero,gp,80000480 <fail>
800001a0:	00301663          	bne	zero,gp,800001ac <test_3>
800001a4:	fe20eee3          	bltu	ra,sp,800001a0 <test_2+0x14>
800001a8:	2c301c63          	bne	zero,gp,80000480 <fail>
800001ac:	00300193          	li	gp,3
800001b0:	ffe00093          	li	ra,-2
800001b4:	fff00113          	li	sp,-1
800001b8:	0020e663          	bltu	ra,sp,800001c4 <test_3+0x18>
800001bc:	2c301263          	bne	zero,gp,80000480 <fail>
800001c0:	00301663          	bne	zero,gp,800001cc <test_4>
800001c4:	fe20eee3          	bltu	ra,sp,800001c0 <test_3+0x14>
800001c8:	2a301c63          	bne	zero,gp,80000480 <fail>
800001cc:	00400193          	li	gp,4
800001d0:	00000093          	li	ra,0
800001d4:	fff00113          	li	sp,-1
800001d8:	0020e663          	bltu	ra,sp,800001e4 <test_4+0x18>
800001dc:	2a301263          	bne	zero,gp,80000480 <fail>
800001e0:	00301663          	bne	zero,gp,800001ec <test_5>
800001e4:	fe20eee3          	bltu	ra,sp,800001e0 <test_4+0x14>
800001e8:	28301c63          	bne	zero,gp,80000480 <fail>
800001ec:	00500193          	li	gp,5
800001f0:	00100093          	li	ra,1
800001f4:	00000113          	li	sp,0
800001f8:	0020e463          	bltu	ra,sp,80000200 <test_5+0x14>
800001fc:	00301463          	bne	zero,gp,80000204 <test_5+0x18>
80000200:	28301063          	bne	zero,gp,80000480 <fail>
80000204:	fe20eee3          	bltu	ra,sp,80000200 <test_5+0x14>
80000208:	00600193          	li	gp,6
8000020c:	fff00093          	li	ra,-1
80000210:	ffe00113          	li	sp,-2
80000214:	0020e463          	bltu	ra,sp,8000021c <test_6+0x14>
80000218:	00301463          	bne	zero,gp,80000220 <test_6+0x18>
8000021c:	26301263          	bne	zero,gp,80000480 <fail>
80000220:	fe20eee3          	bltu	ra,sp,8000021c <test_6+0x14>
80000224:	00700193          	li	gp,7
80000228:	fff00093          	li	ra,-1
8000022c:	00000113          	li	sp,0
80000230:	0020e463          	bltu	ra,sp,80000238 <test_7+0x14>
80000234:	00301463          	bne	zero,gp,8000023c <test_7+0x18>
80000238:	24301463          	bne	zero,gp,80000480 <fail>
8000023c:	fe20eee3          	bltu	ra,sp,80000238 <test_7+0x14>
80000240:	00800193          	li	gp,8
80000244:	800000b7          	lui	ra,0x80000
80000248:	80000137          	lui	sp,0x80000
8000024c:	fff10113          	addi	sp,sp,-1 # 7fffffff <__stack_size+0x7ffff7ff>
80000250:	0020e463          	bltu	ra,sp,80000258 <test_8+0x18>
80000254:	00301463          	bne	zero,gp,8000025c <test_8+0x1c>
80000258:	22301463          	bne	zero,gp,80000480 <fail>
8000025c:	fe20eee3          	bltu	ra,sp,80000258 <test_8+0x18>
80000260:	00900193          	li	gp,9
80000264:	00000213          	li	tp,0
80000268:	f00000b7          	lui	ra,0xf0000
8000026c:	f0000137          	lui	sp,0xf0000
80000270:	fff10113          	addi	sp,sp,-1 # efffffff <_end+0x4ffff5b7>
80000274:	2020e663          	bltu	ra,sp,80000480 <fail>
80000278:	00120213          	addi	tp,tp,1 # 1 <__heap_size-0x1ff>
8000027c:	00200293          	li	t0,2
80000280:	fe5214e3          	bne	tp,t0,80000268 <test_9+0x8>
80000284:	00a00193          	li	gp,10
80000288:	00000213          	li	tp,0
8000028c:	f00000b7          	lui	ra,0xf0000
80000290:	f0000137          	lui	sp,0xf0000
80000294:	fff10113          	addi	sp,sp,-1 # efffffff <_end+0x4ffff5b7>
80000298:	00000013          	nop
8000029c:	1e20e263          	bltu	ra,sp,80000480 <fail>
800002a0:	00120213          	addi	tp,tp,1 # 1 <__heap_size-0x1ff>
800002a4:	00200293          	li	t0,2
800002a8:	fe5212e3          	bne	tp,t0,8000028c <test_10+0x8>
800002ac:	00b00193          	li	gp,11
800002b0:	00000213          	li	tp,0
800002b4:	f00000b7          	lui	ra,0xf0000
800002b8:	f0000137          	lui	sp,0xf0000
800002bc:	fff10113          	addi	sp,sp,-1 # efffffff <_end+0x4ffff5b7>
800002c0:	00000013          	nop
800002c4:	00000013          	nop
800002c8:	1a20ec63          	bltu	ra,sp,80000480 <fail>
800002cc:	00120213          	addi	tp,tp,1 # 1 <__heap_size-0x1ff>
800002d0:	00200293          	li	t0,2
800002d4:	fe5210e3          	bne	tp,t0,800002b4 <test_11+0x8>
800002d8:	00c00193          	li	gp,12
800002dc:	00000213          	li	tp,0
800002e0:	f00000b7          	lui	ra,0xf0000
800002e4:	00000013          	nop
800002e8:	f0000137          	lui	sp,0xf0000
800002ec:	fff10113          	addi	sp,sp,-1 # efffffff <_end+0x4ffff5b7>
800002f0:	1820e863          	bltu	ra,sp,80000480 <fail>
800002f4:	00120213          	addi	tp,tp,1 # 1 <__heap_size-0x1ff>
800002f8:	00200293          	li	t0,2
800002fc:	fe5212e3          	bne	tp,t0,800002e0 <test_12+0x8>
80000300:	00d00193          	li	gp,13
80000304:	00000213          	li	tp,0
80000308:	f00000b7          	lui	ra,0xf0000
8000030c:	00000013          	nop
80000310:	f0000137          	lui	sp,0xf0000
80000314:	fff10113          	addi	sp,sp,-1 # efffffff <_end+0x4ffff5b7>
80000318:	00000013          	nop
8000031c:	1620e263          	bltu	ra,sp,80000480 <fail>
80000320:	00120213          	addi	tp,tp,1 # 1 <__heap_size-0x1ff>
80000324:	00200293          	li	t0,2
80000328:	fe5210e3          	bne	tp,t0,80000308 <test_13+0x8>
8000032c:	00e00193          	li	gp,14
80000330:	00000213          	li	tp,0
80000334:	f00000b7          	lui	ra,0xf0000
80000338:	00000013          	nop
8000033c:	00000013          	nop
80000340:	f0000137          	lui	sp,0xf0000
80000344:	fff10113          	addi	sp,sp,-1 # efffffff <_end+0x4ffff5b7>
80000348:	1220ec63          	bltu	ra,sp,80000480 <fail>
8000034c:	00120213          	addi	tp,tp,1 # 1 <__heap_size-0x1ff>
80000350:	00200293          	li	t0,2
80000354:	fe5210e3          	bne	tp,t0,80000334 <test_14+0x8>
80000358:	00f00193          	li	gp,15
8000035c:	00000213          	li	tp,0
80000360:	f00000b7          	lui	ra,0xf0000
80000364:	f0000137          	lui	sp,0xf0000
80000368:	fff10113          	addi	sp,sp,-1 # efffffff <_end+0x4ffff5b7>
8000036c:	1020ea63          	bltu	ra,sp,80000480 <fail>
80000370:	00120213          	addi	tp,tp,1 # 1 <__heap_size-0x1ff>
80000374:	00200293          	li	t0,2
80000378:	fe5214e3          	bne	tp,t0,80000360 <test_15+0x8>
8000037c:	01000193          	li	gp,16
80000380:	00000213          	li	tp,0
80000384:	f00000b7          	lui	ra,0xf0000
80000388:	f0000137          	lui	sp,0xf0000
8000038c:	fff10113          	addi	sp,sp,-1 # efffffff <_end+0x4ffff5b7>
80000390:	00000013          	nop
80000394:	0e20e663          	bltu	ra,sp,80000480 <fail>
80000398:	00120213          	addi	tp,tp,1 # 1 <__heap_size-0x1ff>
8000039c:	00200293          	li	t0,2
800003a0:	fe5212e3          	bne	tp,t0,80000384 <test_16+0x8>
800003a4:	01100193          	li	gp,17
800003a8:	00000213          	li	tp,0
800003ac:	f00000b7          	lui	ra,0xf0000
800003b0:	f0000137          	lui	sp,0xf0000
800003b4:	fff10113          	addi	sp,sp,-1 # efffffff <_end+0x4ffff5b7>
800003b8:	00000013          	nop
800003bc:	00000013          	nop
800003c0:	0c20e063          	bltu	ra,sp,80000480 <fail>
800003c4:	00120213          	addi	tp,tp,1 # 1 <__heap_size-0x1ff>
800003c8:	00200293          	li	t0,2
800003cc:	fe5210e3          	bne	tp,t0,800003ac <test_17+0x8>
800003d0:	01200193          	li	gp,18
800003d4:	00000213          	li	tp,0
800003d8:	f00000b7          	lui	ra,0xf0000
800003dc:	00000013          	nop
800003e0:	f0000137          	lui	sp,0xf0000
800003e4:	fff10113          	addi	sp,sp,-1 # efffffff <_end+0x4ffff5b7>
800003e8:	0820ec63          	bltu	ra,sp,80000480 <fail>
800003ec:	00120213          	addi	tp,tp,1 # 1 <__heap_size-0x1ff>
800003f0:	00200293          	li	t0,2
800003f4:	fe5212e3          	bne	tp,t0,800003d8 <test_18+0x8>
800003f8:	01300193          	li	gp,19
800003fc:	00000213          	li	tp,0
80000400:	f00000b7          	lui	ra,0xf0000
80000404:	00000013          	nop
80000408:	f0000137          	lui	sp,0xf0000
8000040c:	fff10113          	addi	sp,sp,-1 # efffffff <_end+0x4ffff5b7>
80000410:	00000013          	nop
80000414:	0620e663          	bltu	ra,sp,80000480 <fail>
80000418:	00120213          	addi	tp,tp,1 # 1 <__heap_size-0x1ff>
8000041c:	00200293          	li	t0,2
80000420:	fe5210e3          	bne	tp,t0,80000400 <test_19+0x8>
80000424:	01400193          	li	gp,20
80000428:	00000213          	li	tp,0
8000042c:	f00000b7          	lui	ra,0xf0000
80000430:	00000013          	nop
80000434:	00000013          	nop
80000438:	f0000137          	lui	sp,0xf0000
8000043c:	fff10113          	addi	sp,sp,-1 # efffffff <_end+0x4ffff5b7>
80000440:	0420e063          	bltu	ra,sp,80000480 <fail>
80000444:	00120213          	addi	tp,tp,1 # 1 <__heap_size-0x1ff>
80000448:	00200293          	li	t0,2
8000044c:	fe5210e3          	bne	tp,t0,8000042c <test_20+0x8>
80000450:	01500193          	li	gp,21
80000454:	00100093          	li	ra,1
80000458:	00106a63          	bltu	zero,ra,8000046c <test_21+0x1c>
8000045c:	00108093          	addi	ra,ra,1 # f0000001 <_end+0x4ffff5b9>
80000460:	00108093          	addi	ra,ra,1
80000464:	00108093          	addi	ra,ra,1
80000468:	00108093          	addi	ra,ra,1
8000046c:	00108093          	addi	ra,ra,1
80000470:	00108093          	addi	ra,ra,1
80000474:	00300393          	li	t2,3
80000478:	00709463          	bne	ra,t2,80000480 <fail>
8000047c:	02301063          	bne	zero,gp,8000049c <pass>
80000480:	0ff0000f          	fence
80000484:	00018063          	beqz	gp,80000484 <fail+0x4>
80000488:	00119193          	slli	gp,gp,0x1
8000048c:	0011e193          	ori	gp,gp,1
80000490:	05d00893          	li	a7,93
80000494:	00018513          	mv	a0,gp
80000498:	00000073          	ecall
8000049c:	0ff0000f          	fence
800004a0:	00100193          	li	gp,1
800004a4:	05d00893          	li	a7,93
800004a8:	00000513          	li	a0,0
800004ac:	00000073          	ecall
800004b0:	c0001073          	unimp
800004b4:	0000                	.insn	2, 0x
800004b6:	0000                	.insn	2, 0x
800004b8:	0000                	.insn	2, 0x
800004ba:	0000                	.insn	2, 0x
80000000:	0500006f          	j	80000050 <reset_vector>
80000004:	34202f73          	csrr	t5,mcause
80000008:	00800f93          	li	t6,8
8000000c:	03ff0863          	beq	t5,t6,8000003c <write_tohost>
80000010:	00900f93          	li	t6,9
80000014:	03ff0463          	beq	t5,t6,8000003c <write_tohost>
80000018:	00b00f93          	li	t6,11
8000001c:	03ff0063          	beq	t5,t6,8000003c <write_tohost>
80000020:	00000f13          	li	t5,0
80000024:	000f0463          	beqz	t5,8000002c <trap_vector+0x28>
80000028:	000f0067          	jr	t5
8000002c:	34202f73          	csrr	t5,mcause
80000030:	000f5463          	bgez	t5,80000038 <handle_exception>
80000034:	0040006f          	j	80000038 <handle_exception>
80000038:	5391e193          	ori	gp,gp,1337
8000003c:	20000f17          	auipc	t5,0x20000
80000040:	fc3f2223          	sw	gp,-60(t5) # a0000000 <tohost>
80000044:	20000f17          	auipc	t5,0x20000
80000048:	fc0f2023          	sw	zero,-64(t5) # a0000004 <tohost+0x4>
8000004c:	ff1ff06f          	j	8000003c <write_tohost>
80000050:	00000093          	li	ra,0
80000054:	00000113          	li	sp,0
80000058:	00000193          	li	gp,0
8000005c:	00000213          	li	tp,0
80000060:	00000293          	li	t0,0
80000064:	00000313          	li	t1,0
80000068:	00000393          	li	t2,0
8000006c:	00000413          	li	s0,0
80000070:	00000493          	li	s1,0
80000074:	00000513          	li	a0,0
80000078:	00000593          	li	a1,0
8000007c:	00000613          	li	a2,0
80000080:	00000693          	li	a3,0
80000084:	00000713          	li	a4,0
80000088:	00000793          	li	a5,0
8000008c:	00000813          	li	a6,0
80000090:	00000893          	li	a7,0
80000094:	00000913          	li	s2,0
80000098:	00000993          	li	s3,0
8000009c:	00000a13          	li	s4,0
800000a0:	00000a93          	li	s5,0
800000a4:	00000b13          	li	s6,0
800000a8:	00000b93          	li	s7,0
800000ac:	00000c13          	li	s8,0
800000b0:	00000c93          	li	s9,0
800000b4:	00000d13          	li	s10,0
800000b8:	00000d93          	li	s11,0
800000bc:	00000e13          	li	t3,0
800000c0:	00000e93          	li	t4,0
800000c4:	00000f13          	li	t5,0
800000c8:	00000f93          	li	t6,0
800000cc:	f1402573          	csrr	a0,mhartid
800000d0:	00051063          	bnez	a0,800000d0 <reset_vector+0x80>
800000d4:	00000297          	auipc	t0,0x0
800000d8:	01028293          	addi	t0,t0,16 # 800000e4 <reset_vector+0x94>
800000dc:	30529073          	csrw	mtvec,t0
800000e0:	74445073          	csrwi	0x744,8
800000e4:	00000297          	auipc	t0,0x0
800000e8:	01028293          	addi	t0,t0,16 # 800000f4 <reset_vector+0xa4>
800000ec:	30529073          	csrw	mtvec,t0
800000f0:	18005073          	csrwi	satp,0
800000f4:	00000297          	auipc	t0,0x0
800000f8:	02028293          	addi	t0,t0,32 # 80000114 <reset_vector+0xc4>
800000fc:	30529073          	csrw	mtvec,t0
80000100:	800002b7          	lui	t0,0x80000
80000104:	fff28293          	addi	t0,t0,-1 # 7fffffff <__stack_size+0x7ffff7ff>
80000108:	3b029073          	csrw	pmpaddr0,t0
8000010c:	01f00293          	li	t0,31
80000110:	3a029073          	csrw	pmpcfg0,t0
80000114:	30405073          	csrwi	mie,0
80000118:	00000297          	auipc	t0,0x0
8000011c:	01428293          	addi	t0,t0,20 # 8000012c <reset_vector+0xdc>
80000120:	30529073          	csrw	mtvec,t0
80000124:	30205073          	csrwi	medeleg,0
80000128:	30305073          	csrwi	mideleg,0
8000012c:	00000193          	li	gp,0
80000130:	00000297          	auipc	t0,0x0
80000134:	ed428293          	addi	t0,t0,-300 # 80000004 <trap_vector>
80000138:	30529073          	csrw	mtvec,t0
8000013c:	00100513          	li	a0,1
80000140:	01f51513          	slli	a0,a0,0x1f
80000144:	00054c63          	bltz	a0,8000015c <reset_vector+0x10c>
80000148:	0ff0000f          	fence
8000014c:	00100193          	li	gp,1
80000150:	05d00893          	li	a7,93
80000154:	00000513          	li	a0,0
80000158:	00000073          	ecall
8000015c:	00000293          	li	t0,0
80000160:	00028a63          	beqz	t0,80000174 <reset_vector+0x124>
80000164:	10529073          	csrw	stvec,t0
80000168:	0000b2b7          	lui	t0,0xb
8000016c:	10928293          	addi	t0,t0,265 # b109 <__stack_size+0xa909>
80000170:	30229073          	csrw	medeleg,t0
80000174:	30005073          	csrwi	mstatus,0
80000178:	00000297          	auipc	t0,0x0
8000017c:	01428293          	addi	t0,t0,20 # 8000018c <test_2>
80000180:	34129073          	csrw	mepc,t0
80000184:	f1402573          	csrr	a0,mhartid
80000188:	30200073          	mret
8000018c:	00200193          	li	gp,2
80000190:	ff0105b7          	lui	a1,0xff010
80000194:	f0058593          	addi	a1,a1,-256 # ff00ff00 <_end+0x5f00f4b8>
80000198:	0f0f1637          	lui	a2,0xf0f1
8000019c:	f0f60613          	addi	a2,a2,-241 # f0f0f0f <__stack_size+0xf0f070f>
800001a0:	00c5c733          	xor	a4,a1,a2
800001a4:	f00ff3b7          	lui	t2,0xf00ff
800001a8:	00f38393          	addi	t2,t2,15 # f00ff00f <_end+0x500fe5c7>
800001ac:	4a771063          	bne	a4,t2,8000064c <fail>
800001b0:	00300193          	li	gp,3
800001b4:	0ff015b7          	lui	a1,0xff01
800001b8:	ff058593          	addi	a1,a1,-16 # ff00ff0 <__stack_size+0xff007f0>
800001bc:	f0f0f637          	lui	a2,0xf0f0f
800001c0:	0f060613          	addi	a2,a2,240 # f0f0f0f0 <_end+0x50f0e6a8>
800001c4:	00c5c733          	xor	a4,a1,a2
800001c8:	ff0103b7          	lui	t2,0xff010
800001cc:	f0038393          	addi	t2,t2,-256 # ff00ff00 <_end+0x5f00f4b8>
800001d0:	46771e63          	bne	a4,t2,8000064c <fail>
800001d4:	00400193          	li	gp,4
800001d8:	00ff05b7          	lui	a1,0xff0
800001dc:	0ff58593          	addi	a1,a1,255 # ff00ff <__stack_size+0xfef8ff>
800001e0:	0f0f1637          	lui	a2,0xf0f1
800001e4:	f0f60613          	addi	a2,a2,-241 # f0f0f0f <__stack_size+0xf0f070f>
800001e8:	00c5c733          	xor	a4,a1,a2
800001ec:	0ff013b7          	lui	t2,0xff01
800001f0:	ff038393          	addi	t2,t2,-16 # ff00ff0 <__stack_size+0xff007f0>
800001f4:	44771c63          	bne	a4,t2,8000064c <fail>
800001f8:	00500193          	li	gp,5
800001fc:	f00ff5b7          	lui	a1,0xf00ff
80000200:	00f58593          	addi	a1,a1,15 # f00ff00f <_end+0x500fe5c7>
80000204:	f0f0f637          	lui	a2,0xf0f0f
80000208:	0f060613          	addi	a2,a2,240 # f0f0f0f0 <_end+0x50f0e6a8>
8000020c:	00c5c733          	xor	a4,a1,a2
80000210:	00ff03b7          	lui	t2,0xff0
80000214:	0ff38393          	addi	t2,t2,255 # ff00ff <__stack_size+0xfef8ff>
80000218:	42771a63          	bne	a4,t2,8000064c <fail>
8000021c:	00600193          	li	gp,6
80000220:	ff0105b7          	lui	a1,0xff010
80000224:	f0058593          	addi	a1,a1,-256 # ff00ff00 <_end+0x5f00f4b8>
80000228:	0f0f1637          	lui	a2,0xf0f1
8000022c:	f0f60613          	addi	a2,a2,-241 # f0f0f0f <__stack_size+0xf0f070f>
80000230:	00c5c5b3          	xor	a1,a1,a2
80000234:	f00ff3b7          	lui	t2,0xf00ff
80000238:	00f38393          	addi	t2,t2,15 # f00ff00f <_end+0x500fe5c7>
8000023c:	40759863          	bne	a1,t2,8000064c <fail>
80000240:	00700193          	li	gp,7
80000244:	ff0105b7          	lui	a1,0xff010
80000248:	f0058593          	addi	a1,a1,-256 # ff00ff00 <_end+0x5f00f4b8>
8000024c:	0f0f1637          	lui	a2,0xf0f1
80000250:	f0f60613          	addi	a2,a2,-241 # f0f0f0f <__stack_size+0xf0f070f>
80000254:	00c5c633          	xor	a2,a1,a2
80000258:	f00ff3b7          	lui	t2,0xf00ff
8000025c:	00f38393          	addi	t2,t2,15 # f00ff00f <_end+0x500fe5c7>
80000260:	3e761663          	bne	a2,t2,8000064c <fail>
80000264:	00800193          	li	gp,8
80000268:	ff0105b7          	lui	a1,0xff010
8000026c:	f0058593          	addi	a1,a1,-256 # ff00ff00 <_end+0x5f00f4b8>
80000270:	00b5c5b3          	xor	a1,a1,a1
80000274:	00000393          	li	t2,0
80000278:	3c759a63          	bne	a1,t2,8000064c <fail>
8000027c:	00900193          	li	gp,9
80000280:	00000213          	li	tp,0
80000284:	ff0100b7          	lui	ra,0xff010
80000288:	f0008093          	addi	ra,ra,-256 # ff00ff00 <_end+0x5f00f4b8>
8000028c:	0f0f1137          	lui	sp,0xf0f1
80000290:	f0f10113          	addi	sp,sp,-241 # f0f0f0f <__stack_size+0xf0f070f>
80000294:	0020c733          	xor	a4,ra,sp
80000298:	00070313          	mv	t1,a4
8000029c:	00120213          	addi	tp,tp,1 # 1 <__heap_size-0x1ff>
800002a0:	00200293          	li	t0,2
800002a4:	fe5210e3          	bne	tp,t0,80000284 <test_9+0x8>
800002a8:	f00ff3b7          	lui	t2,0xf00ff
800002ac:	00f38393          	addi	t2,t2,15 # f00ff00f <_end+0x500fe5c7>
800002b0:	38731e63          	bne	t1,t2,8000064c <fail>
800002b4:	00a00193          	li	gp,10
800002b8:	00000213          	li	tp,0
800002bc:	0ff010b7          	lui	ra,0xff01
800002c0:	ff008093          	addi	ra,ra,-16 # ff00ff0 <__stack_size+0xff007f0>
800002c4:	f0f0f137          	lui	sp,0xf0f0f
800002c8:	0f010113          	addi	sp,sp,240 # f0f0f0f0 <_end+0x50f0e6a8>
800002cc:	0020c733          	xor	a4,ra,sp
800002d0:	00000013          	nop
800002d4:	00070313          	mv	t1,a4
800002d8:	00120213          	addi	tp,tp,1 # 1 <__heap_size-0x1ff>
800002dc:	00200293          	li	t0,2
800002e0:	fc521ee3          	bne	tp,t0,800002bc <test_10+0x8>
800002e4:	ff0103b7          	lui	t2,0xff010
800002e8:	f0038393          	addi	t2,t2,-256 # ff00ff00 <_end+0x5f00f4b8>
800002ec:	36731063          	bne	t1,t2,8000064c <fail>
800002f0:	00b00193          	li	gp,11
800002f4:	00000213          	li	tp,0
800002f8:	00ff00b7          	lui	ra,0xff0
800002fc:	0ff08093          	addi	ra,ra,255 # ff00ff <__stack_size+0xfef8ff>
80000300:	0f0f1137          	lui	sp,0xf0f1
80000304:	f0f10113          	addi	sp,sp,-241 # f0f0f0f <__stack_size+0xf0f070f>
80000308:	0020c733          	xor	a4,ra,sp
8000030c:	00000013          	nop
80000310:	00000013          	nop
80000314:	00070313          	mv	t1,a4
80000318:	00120213          	addi	tp,tp,1 # 1 <__heap_size-0x1ff>
8000031c:	00200293          	li	t0,2
80000320:	fc521ce3          	bne	tp,t0,800002f8 <test_11+0x8>
80000324:	0ff013b7          	lui	t2,0xff01
80000328:	ff038393          	addi	t2,t2,-16 # ff00ff0 <__stack_size+0xff007f0>
8000032c:	32731063          	bne	t1,t2,8000064c <fail>
80000330:	00c00193          	li	gp,12
80000334:	00000213          	li	tp,0
80000338:	ff0100b7          	lui	ra,0xff010
8000033c:	f0008093          	addi	ra,ra,-256 # ff00ff00 <_end+0x5f00f4b8>
80000340:	0f0f1137          	lui	sp,0xf0f1
80000344:	f0f10113          	addi	sp,sp,-241 # f0f0f0f <__stack_size+0xf0f070f>
80000348:	0020c733          	xor	a4,ra,sp
8000034c:	00120213          	addi	tp,tp,1 # 1 <__heap_size-0x1ff>
80000350:	00200293          	li	t0,2
80000354:	fe5212e3          	bne	tp,t0,80000338 <test_12+0x8>
80000358:	f00ff3b7          	lui	t2,0xf00ff
8000035c:	00f38393          	addi	t2,t2,15 # f00ff00f <_end+0x500fe5c7>
80000360:	2e771663          	bne	a4,t2,8000064c <fail>
80000364:	00d00193          	li	gp,13
80000368:	00000213          	li	tp,0
8000036c:	0ff010b7          	lui	ra,0xff01
80000370:	ff008093          	addi	ra,ra,-16 # ff00ff0 <__stack_size+0xff007f0>
80000374:	f0f0f137          	lui	sp,0xf0f0f
80000378:	0f010113          	addi	sp,sp,240 # f0f0f0f0 <_end+0x50f0e6a8>
8000037c:	00000013          	nop
80000380:	0020c733          	xor	a4,ra,sp
80000384:	00120213          	addi	tp,tp,1 # 1 <__heap_size-0x1ff>
80000388:	00200293          	li	t0,2
8000038c:	fe5210e3          	bne	tp,t0,8000036c <test_13+0x8>
80000390:	ff0103b7          	lui	t2,0xff010
80000394:	f0038393          	addi	t2,t2,-256 # ff00ff00 <_end+0x5f00f4b8>
80000398:	2a771a63          	bne	a4,t2,8000064c <fail>
8000039c:	00e00193          	li	gp,14
800003a0:	00000213          	li	tp,0
800003a4:	00ff00b7          	lui	ra,0xff0
800003a8:	0ff08093          	addi	ra,ra,255 # ff00ff <__stack_size+0xfef8ff>
800003ac:	0f0f1137          	lui	sp,0xf0f1
800003b0:	f0f10113          	addi	sp,sp,-241 # f0f0f0f <__stack_size+0xf0f070f>
800003b4:	00000013          	nop
800003b8:	00000013          	nop
800003bc:	0020c733          	xor	a4,ra,sp
800003c0:	00120213          	addi	tp,tp,1 # 1 <__heap_size-0x1ff>
800003c4:	00200293          	li	t0,2
800003c8:	fc521ee3          	bne	tp,t0,800003a4 <test_14+0x8>
800003cc:	0ff013b7          	lui	t2,0xff01
800003d0:	ff038393          	addi	t2,t2,-16 # ff00ff0 <__stack_size+0xff007f0>
800003d4:	26771c63          	bne	a4,t2,8000064c <fail>
800003d8:	00f00193          	li	gp,15
800003dc:	00000213          	li	tp,0
800003e0:	ff0100b7          	lui	ra,0xff010
800003e4:	f0008093          	addi	ra,ra,-256 # ff00ff00 <_end+0x5f00f4b8>
800003e8:	00000013          	nop
800003ec:	0f0f1137          	lui	sp,0xf0f1
800003f0:	f0f10113          	addi	sp,sp,-241 # f0f0f0f <__stack_size+0xf0f070f>
800003f4:	0020c733          	xor	a4,ra,sp
800003f8:	00120213          	addi	tp,tp,1 # 1 <__heap_size-0x1ff>
800003fc:	00200293          	li	t0,2
80000400:	fe5210e3          	bne	tp,t0,800003e0 <test_15+0x8>
80000404:	f00ff3b7          	lui	t2,0xf00ff
80000408:	00f38393          	addi	t2,t2,15 # f00ff00f <_end+0x500fe5c7>
8000040c:	24771063          	bne	a4,t2,8000064c <fail>
80000410:	01000193          	li	gp,16
80000414:	00000213          	li	tp,0
80000418:	0ff010b7          	lui	ra,0xff01
8000041c:	ff008093          	addi	ra,ra,-16 # ff00ff0 <__stack_size+0xff007f0>
80000420:	00000013          	nop
80000424:	f0f0f137          	lui	sp,0xf0f0f
80000428:	0f010113          	addi	sp,sp,240 # f0f0f0f0 <_end+0x50f0e6a8>
8000042c:	00000013          	nop
80000430:	0020c733          	xor	a4,ra,sp
80000434:	00120213          	addi	tp,tp,1 # 1 <__heap_size-0x1ff>
80000438:	00200293          	li	t0,2
8000043c:	fc521ee3          	bne	tp,t0,80000418 <test_16+0x8>
80000440:	ff0103b7          	lui	t2,0xff010
80000444:	f0038393          	addi	t2,t2,-256 # ff00ff00 <_end+0x5f00f4b8>
80000448:	20771263          	bne	a4,t2,8000064c <fail>
8000044c:	01100193          	li	gp,17
80000450:	00000213          	li	tp,0
80000454:	00ff00b7          	lui	ra,0xff0
80000458:	0ff08093          	addi	ra,ra,255 # ff00ff <__stack_size+0xfef8ff>
8000045c:	00000013          	nop
80000460:	00000013          	nop
80000464:	0f0f1137          	lui	sp,0xf0f1
80000468:	f0f10113          	addi	sp,sp,-241 # f0f0f0f <__stack_size+0xf0f070f>
8000046c:	0020c733          	xor	a4,ra,sp
80000470:	00120213          	addi	tp,tp,1 # 1 <__heap_size-0x1ff>
80000474:	00200293          	li	t0,2
80000478:	fc521ee3          	bne	tp,t0,80000454 <test_17+0x8>
8000047c:	0ff013b7          	lui	t2,0xff01
80000480:	ff038393          	addi	t2,t2,-16 # ff00ff0 <__stack_size+0xff007f0>
80000484:	1c771463          	bne	a4,t2,8000064c <fail>
80000488:	01200193          	li	gp,18
8000048c:	00000213          	li	tp,0
80000490:	0f0f1137          	lui	sp,0xf0f1
80000494:	f0f10113          	addi	sp,sp,-241 # f0f0f0f <__stack_size+0xf0f070f>
80000498:	ff0100b7          	lui	ra,0xff010
8000049c:	f0008093          	addi	ra,ra,-256 # ff00ff00 <_end+0x5f00f4b8>
800004a0:	0020c733          	xor	a4,ra,sp
800004a4:	00120213          	addi	tp,tp,1 # 1 <__heap_size-0x1ff>
800004a8:	00200293          	li	t0,2
800004ac:	fe5212e3          	bne	tp,t0,80000490 <test_18+0x8>
800004b0:	f00ff3b7          	lui	t2,0xf00ff
800004b4:	00f38393          	addi	t2,t2,15 # f00ff00f <_end+0x500fe5c7>
800004b8:	18771a63          	bne	a4,t2,8000064c <fail>
800004bc:	01300193          	li	gp,19
800004c0:	00000213          	li	tp,0
800004c4:	f0f0f137          	lui	sp,0xf0f0f
800004c8:	0f010113          	addi	sp,sp,240 # f0f0f0f0 <_end+0x50f0e6a8>
800004cc:	0ff010b7          	lui	ra,0xff01
800004d0:	ff008093          	addi	ra,ra,-16 # ff00ff0 <__stack_size+0xff007f0>
800004d4:	00000013          	nop
800004d8:	0020c733          	xor	a4,ra,sp
800004dc:	00120213          	addi	tp,tp,1 # 1 <__heap_size-0x1ff>
800004e0:	00200293          	li	t0,2
800004e4:	fe5210e3          	bne	tp,t0,800004c4 <test_19+0x8>
800004e8:	ff0103b7          	lui	t2,0xff010
800004ec:	f0038393          	addi	t2,t2,-256 # ff00ff00 <_end+0x5f00f4b8>
800004f0:	14771e63          	bne	a4,t2,8000064c <fail>
800004f4:	01400193          	li	gp,20
800004f8:	00000213          	li	tp,0
800004fc:	0f0f1137          	lui	sp,0xf0f1
80000500:	f0f10113          	addi	sp,sp,-241 # f0f0f0f <__stack_size+0xf0f070f>
80000504:	00ff00b7          	lui	ra,0xff0
80000508:	0ff08093          	addi	ra,ra,255 # ff00ff <__stack_size+0xfef8ff>
8000050c:	00000013          	nop
80000510:	00000013          	nop
80000514:	0020c733          	xor	a4,ra,sp
80000518:	00120213          	addi	tp,tp,1 # 1 <__heap_size-0x1ff>
8000051c:	00200293          	li	t0,2
80000520:	fc521ee3          	bne	tp,t0,800004fc <test_20+0x8>
80000524:	0ff013b7          	lui	t2,0xff01
80000528:	ff038393          	addi	t2,t2,-16 # ff00ff0 <__stack_size+0xff007f0>
8000052c:	12771063          	bne	a4,t2,8000064c <fail>
80000530:	01500193          	li	gp,21
80000534:	00000213          	li	tp,0
80000538:	0f0f1137          	lui	sp,0xf0f1
8000053c:	f0f10113          	addi	sp,sp,-241 # f0f0f0f <__stack_size+0xf0f070f>
80000540:	00000013          	nop
80000544:	ff0100b7          	lui	ra,0xff010
80000548:	f0008093          	addi	ra,ra,-256 # ff00ff00 <_end+0x5f00f4b8>
8000054c:	0020c733          	xor	a4,ra,sp
80000550:	00120213          	addi	tp,tp,1 # 1 <__heap_size-0x1ff>
80000554:	00200293          	li	t0,2
80000558:	fe5210e3          	bne	tp,t0,80000538 <test_21+0x8>
8000055c:	f00ff3b7          	lui	t2,0xf00ff
80000560:	00f38393          	addi	t2,t2,15 # f00ff00f <_end+0x500fe5c7>
80000564:	0e771463          	bne	a4,t2,8000064c <fail>
80000568:	01600193          	li	gp,22
8000056c:	00000213          	li	tp,0
80000570:	f0f0f137          	lui	sp,0xf0f0f
80000574:	0f010113          	addi	sp,sp,240 # f0f0f0f0 <_end+0x50f0e6a8>
80000578:	00000013          	nop
8000057c:	0ff010b7          	lui	ra,0xff01
80000580:	ff008093          	addi	ra,ra,-16 # ff00ff0 <__stack_size+0xff007f0>
80000584:	00000013          	nop
80000588:	0020c733          	xor	a4,ra,sp
8000058c:	00120213          	addi	tp,tp,1 # 1 <__heap_size-0x1ff>
80000590:	00200293          	li	t0,2
80000594:	fc521ee3          	bne	tp,t0,80000570 <test_22+0x8>
80000598:	ff0103b7          	lui	t2,0xff010
8000059c:	f0038393          	addi	t2,t2,-256 # ff00ff00 <_end+0x5f00f4b8>
800005a0:	0a771663          	bne	a4,t2,8000064c <fail>
800005a4:	01700193          	li	gp,23
800005a8:	00000213          	li	tp,0
800005ac:	0f0f1137          	lui	sp,0xf0f1
800005b0:	f0f10113          	addi	sp,sp,-241 # f0f0f0f <__stack_size+0xf0f070f>
800005b4:	00000013          	nop
800005b8:	00000013          	nop
800005bc:	00ff00b7          	lui	ra,0xff0
800005c0:	0ff08093          	addi	ra,ra,255 # ff00ff <__stack_size+0xfef8ff>
800005c4:	0020c733          	xor	a4,ra,sp
800005c8:	00120213          	addi	tp,tp,1 # 1 <__heap_size-0x1ff>
800005cc:	00200293          	li	t0,2
800005d0:	fc521ee3          	bne	tp,t0,800005ac <test_23+0x8>
800005d4:	0ff013b7          	lui	t2,0xff01
800005d8:	ff038393          	addi	t2,t2,-16 # ff00ff0 <__stack_size+0xff007f0>
800005dc:	06771863          	bne	a4,t2,8000064c <fail>
800005e0:	01800193          	li	gp,24
800005e4:	ff0100b7          	lui	ra,0xff010
800005e8:	f0008093          	addi	ra,ra,-256 # ff00ff00 <_end+0x5f00f4b8>
800005ec:	00104133          	xor	sp,zero,ra
800005f0:	ff0103b7          	lui	t2,0xff010
800005f4:	f0038393          	addi	t2,t2,-256 # ff00ff00 <_end+0x5f00f4b8>
800005f8:	04711a63          	bne	sp,t2,8000064c <fail>
800005fc:	01900193          	li	gp,25
80000600:	00ff00b7          	lui	ra,0xff0
80000604:	0ff08093          	addi	ra,ra,255 # ff00ff <__stack_size+0xfef8ff>
80000608:	0000c133          	xor	sp,ra,zero
8000060c:	00ff03b7          	lui	t2,0xff0
80000610:	0ff38393          	addi	t2,t2,255 # ff00ff <__stack_size+0xfef8ff>
80000614:	02711c63          	bne	sp,t2,8000064c <fail>
80000618:	01a00193          	li	gp,26
8000061c:	000040b3          	xor	ra,zero,zero
80000620:	00000393          	li	t2,0
80000624:	02709463          	bne	ra,t2,8000064c <fail>
80000628:	01b00193          	li	gp,27
8000062c:	111110b7          	lui	ra,0x11111
80000630:	11108093          	addi	ra,ra,273 # 11111111 <__stack_size+0x11110911>
80000634:	22222137          	lui	sp,0x22222
80000638:	22210113          	addi	sp,sp,546 # 22222222 <__stack_size+0x22221a22>
8000063c:	0020c033          	xor	zero,ra,sp
80000640:	00000393          	li	t2,0
80000644:	00701463          	bne	zero,t2,8000064c <fail>
80000648:	02301063          	bne	zero,gp,80000668 <pass>
8000064c:	0ff0000f          	fence
80000650:	00018063          	beqz	gp,80000650 <fail+0x4>
80000654:	00119193          	slli	gp,gp,0x1
80000658:	0011e193          	ori	gp,gp,1
8000065c:	05d00893          	li	a7,93
80000660:	00018513          	mv	a0,gp
80000664:	00000073          	ecall
80000668:	0ff0000f          	fence
8000066c:	00100193          	li	gp,1
80000670:	05d00893          	li	a7,93
80000674:	00000513          	li	a0,0
80000678:	00000073          	ecall
8000067c:	c0001073          	unimp
80000680:	0000                	.insn	2, 0x
80000682:	0000                	.insn	2, 0x
80000684:	0000                	.insn	2, 0x
80000686:	0000                	.insn	2, 0x
80000688:	0000                	.insn	2, 0x
8000068a:	0000                	.insn	2, 0x
8000068c:	0000                	.insn	2, 0x
8000068e:	0000                	.insn	2, 0x
80000690:	0000                	.insn	2, 0x
80000692:	0000                	.insn	2, 0x
80000694:	0000                	.insn	2, 0x
80000696:	0000                	.insn	2, 0x
80000698:	0000                	.insn	2, 0x
8000069a:	0000                	.insn	2, 0x
8000069c:	0000                	.insn	2, 0x
8000069e:	0000                	.insn	2, 0x
800006a0:	0000                	.insn	2, 0x
800006a2:	0000                	.insn	2, 0x
800006a4:	0000                	.insn	2, 0x
800006a6:	0000                	.insn	2, 0x
800006a8:	0000                	.insn	2, 0x
800006aa:	0000                	.insn	2, 0x
800006ac:	0000                	.insn	2, 0x
800006ae:	0000                	.insn	2, 0x
800006b0:	0000                	.insn	2, 0x
800006b2:	0000                	.insn	2, 0x
800006b4:	0000                	.insn	2, 0x
800006b6:	0000                	.insn	2, 0x
800006b8:	0000                	.insn	2, 0x
800006ba:	0000                	.insn	2, 0x
80000000:	0500006f          	j	80000050 <reset_vector>
80000004:	34202f73          	csrr	t5,mcause
80000008:	00800f93          	li	t6,8
8000000c:	03ff0863          	beq	t5,t6,8000003c <write_tohost>
80000010:	00900f93          	li	t6,9
80000014:	03ff0463          	beq	t5,t6,8000003c <write_tohost>
80000018:	00b00f93          	li	t6,11
8000001c:	03ff0063          	beq	t5,t6,8000003c <write_tohost>
80000020:	00000f13          	li	t5,0
80000024:	000f0463          	beqz	t5,8000002c <trap_vector+0x28>
80000028:	000f0067          	jr	t5
8000002c:	34202f73          	csrr	t5,mcause
80000030:	000f5463          	bgez	t5,80000038 <handle_exception>
80000034:	0040006f          	j	80000038 <handle_exception>
80000038:	5391e193          	ori	gp,gp,1337
8000003c:	20000f17          	auipc	t5,0x20000
80000040:	fc3f2223          	sw	gp,-60(t5) # a0000000 <tohost>
80000044:	20000f17          	auipc	t5,0x20000
80000048:	fc0f2023          	sw	zero,-64(t5) # a0000004 <tohost+0x4>
8000004c:	ff1ff06f          	j	8000003c <write_tohost>
80000050:	00000093          	li	ra,0
80000054:	00000113          	li	sp,0
80000058:	00000193          	li	gp,0
8000005c:	00000213          	li	tp,0
80000060:	00000293          	li	t0,0
80000064:	00000313          	li	t1,0
80000068:	00000393          	li	t2,0
8000006c:	00000413          	li	s0,0
80000070:	00000493          	li	s1,0
80000074:	00000513          	li	a0,0
80000078:	00000593          	li	a1,0
8000007c:	00000613          	li	a2,0
80000080:	00000693          	li	a3,0
80000084:	00000713          	li	a4,0
80000088:	00000793          	li	a5,0
8000008c:	00000813          	li	a6,0
80000090:	00000893          	li	a7,0
80000094:	00000913          	li	s2,0
80000098:	00000993          	li	s3,0
8000009c:	00000a13          	li	s4,0
800000a0:	00000a93          	li	s5,0
800000a4:	00000b13          	li	s6,0
800000a8:	00000b93          	li	s7,0
800000ac:	00000c13          	li	s8,0
800000b0:	00000c93          	li	s9,0
800000b4:	00000d13          	li	s10,0
800000b8:	00000d93          	li	s11,0
800000bc:	00000e13          	li	t3,0
800000c0:	00000e93          	li	t4,0
800000c4:	00000f13          	li	t5,0
800000c8:	00000f93          	li	t6,0
800000cc:	f1402573          	csrr	a0,mhartid
800000d0:	00051063          	bnez	a0,800000d0 <reset_vector+0x80>
800000d4:	00000297          	auipc	t0,0x0
800000d8:	01028293          	addi	t0,t0,16 # 800000e4 <reset_vector+0x94>
800000dc:	30529073          	csrw	mtvec,t0
800000e0:	74445073          	csrwi	0x744,8
800000e4:	00000297          	auipc	t0,0x0
800000e8:	01028293          	addi	t0,t0,16 # 800000f4 <reset_vector+0xa4>
800000ec:	30529073          	csrw	mtvec,t0
800000f0:	18005073          	csrwi	satp,0
800000f4:	00000297          	auipc	t0,0x0
800000f8:	02028293          	addi	t0,t0,32 # 80000114 <reset_vector+0xc4>
800000fc:	30529073          	csrw	mtvec,t0
80000100:	800002b7          	lui	t0,0x80000
80000104:	fff28293          	addi	t0,t0,-1 # 7fffffff <__stack_size+0x7ffff7ff>
80000108:	3b029073          	csrw	pmpaddr0,t0
8000010c:	01f00293          	li	t0,31
80000110:	3a029073          	csrw	pmpcfg0,t0
80000114:	30405073          	csrwi	mie,0
80000118:	00000297          	auipc	t0,0x0
8000011c:	01428293          	addi	t0,t0,20 # 8000012c <reset_vector+0xdc>
80000120:	30529073          	csrw	mtvec,t0
80000124:	30205073          	csrwi	medeleg,0
80000128:	30305073          	csrwi	mideleg,0
8000012c:	00000193          	li	gp,0
80000130:	00000297          	auipc	t0,0x0
80000134:	ed428293          	addi	t0,t0,-300 # 80000004 <trap_vector>
80000138:	30529073          	csrw	mtvec,t0
8000013c:	00100513          	li	a0,1
80000140:	01f51513          	slli	a0,a0,0x1f
80000144:	00054c63          	bltz	a0,8000015c <reset_vector+0x10c>
80000148:	0ff0000f          	fence
8000014c:	00100193          	li	gp,1
80000150:	05d00893          	li	a7,93
80000154:	00000513          	li	a0,0
80000158:	00000073          	ecall
8000015c:	00000293          	li	t0,0
80000160:	00028a63          	beqz	t0,80000174 <reset_vector+0x124>
80000164:	10529073          	csrw	stvec,t0
80000168:	0000b2b7          	lui	t0,0xb
8000016c:	10928293          	addi	t0,t0,265 # b109 <__stack_size+0xa909>
80000170:	30229073          	csrw	medeleg,t0
80000174:	30005073          	csrwi	mstatus,0
80000178:	00000297          	auipc	t0,0x0
8000017c:	01428293          	addi	t0,t0,20 # 8000018c <test_2>
80000180:	34129073          	csrw	mepc,t0
80000184:	f1402573          	csrr	a0,mhartid
80000188:	30200073          	mret
8000018c:	00200193          	li	gp,2
80000190:	00000593          	li	a1,0
80000194:	00000613          	li	a2,0
80000198:	00c58733          	add	a4,a1,a2
8000019c:	00000393          	li	t2,0
800001a0:	4c771663          	bne	a4,t2,8000066c <fail>
800001a4:	00300193          	li	gp,3
800001a8:	00100593          	li	a1,1
800001ac:	00100613          	li	a2,1
800001b0:	00c58733          	add	a4,a1,a2
800001b4:	00200393          	li	t2,2
800001b8:	4a771a63          	bne	a4,t2,8000066c <fail>
800001bc:	00400193          	li	gp,4
800001c0:	00300593          	li	a1,3
800001c4:	00700613          	li	a2,7
800001c8:	00c58733          	add	a4,a1,a2
800001cc:	00a00393          	li	t2,10
800001d0:	48771e63          	bne	a4,t2,8000066c <fail>
800001d4:	00500193          	li	gp,5
800001d8:	00000593          	li	a1,0
800001dc:	ffff8637          	lui	a2,0xffff8
800001e0:	00c58733          	add	a4,a1,a2
800001e4:	ffff83b7          	lui	t2,0xffff8
800001e8:	48771263          	bne	a4,t2,8000066c <fail>
800001ec:	00600193          	li	gp,6
800001f0:	800005b7          	lui	a1,0x80000
800001f4:	00000613          	li	a2,0
800001f8:	00c58733          	add	a4,a1,a2
800001fc:	800003b7          	lui	t2,0x80000
80000200:	46771663          	bne	a4,t2,8000066c <fail>
80000204:	00700193          	li	gp,7
80000208:	800005b7          	lui	a1,0x80000
8000020c:	ffff8637          	lui	a2,0xffff8
80000210:	00c58733          	add	a4,a1,a2
80000214:	7fff83b7          	lui	t2,0x7fff8
80000218:	44771a63          	bne	a4,t2,8000066c <fail>
8000021c:	00800193          	li	gp,8
80000220:	00000593          	li	a1,0
80000224:	00008637          	lui	a2,0x8
80000228:	fff60613          	addi	a2,a2,-1 # 7fff <__stack_size+0x77ff>
8000022c:	00c58733          	add	a4,a1,a2
80000230:	000083b7          	lui	t2,0x8
80000234:	fff38393          	addi	t2,t2,-1 # 7fff <__stack_size+0x77ff>
80000238:	42771a63          	bne	a4,t2,8000066c <fail>
8000023c:	00900193          	li	gp,9
80000240:	800005b7          	lui	a1,0x80000
80000244:	fff58593          	addi	a1,a1,-1 # 7fffffff <__stack_size+0x7ffff7ff>
80000248:	00000613          	li	a2,0
8000024c:	00c58733          	add	a4,a1,a2
80000250:	800003b7          	lui	t2,0x80000
80000254:	fff38393          	addi	t2,t2,-1 # 7fffffff <__stack_size+0x7ffff7ff>
80000258:	40771a63          	bne	a4,t2,8000066c <fail>
8000025c:	00a00193          	li	gp,10
80000260:	800005b7          	lui	a1,0x80000
80000264:	fff58593          	addi	a1,a1,-1 # 7fffffff <__stack_size+0x7ffff7ff>
80000268:	00008637          	lui	a2,0x8
8000026c:	fff60613          	addi	a2,a2,-1 # 7fff <__stack_size+0x77ff>
80000270:	00c58733          	add	a4,a1,a2
80000274:	800083b7          	lui	t2,0x80008
80000278:	ffe38393          	addi	t2,t2,-2 # 80007ffe <pass+0x7976>
8000027c:	3e771863          	bne	a4,t2,8000066c <fail>
80000280:	00b00193          	li	gp,11
80000284:	800005b7          	lui	a1,0x80000
80000288:	00008637          	lui	a2,0x8
8000028c:	fff60613          	addi	a2,a2,-1 # 7fff <__stack_size+0x77ff>
80000290:	00c58733          	add	a4,a1,a2
80000294:	800083b7          	lui	t2,0x80008
80000298:	fff38393          	addi	t2,t2,-1 # 80007fff <pass+0x7977>
8000029c:	3c771863          	bne	a4,t2,8000066c <fail>
800002a0:	00c00193          	li	gp,12
800002a4:	800005b7          	lui	a1,0x80000
800002a8:	fff58593          	addi	a1,a1,-1 # 7fffffff <__stack_size+0x7ffff7ff>
800002ac:	ffff8637          	lui	a2,0xffff8
800002b0:	00c58733          	add	a4,a1,a2
800002b4:	7fff83b7          	lui	t2,0x7fff8
800002b8:	fff38393          	addi	t2,t2,-1 # 7fff7fff <__stack_size+0x7fff77ff>
800002bc:	3a771863          	bne	a4,t2,8000066c <fail>
800002c0:	00d00193          	li	gp,13
800002c4:	00000593          	li	a1,0
800002c8:	fff00613          	li	a2,-1
800002cc:	00c58733          	add	a4,a1,a2
800002d0:	fff00393          	li	t2,-1
800002d4:	38771c63          	bne	a4,t2,8000066c <fail>
800002d8:	00e00193          	li	gp,14
800002dc:	fff00593          	li	a1,-1
800002e0:	00100613          	li	a2,1
800002e4:	00c58733          	add	a4,a1,a2
800002e8:	00000393          	li	t2,0
800002ec:	38771063          	bne	a4,t2,8000066c <fail>
800002f0:	00f00193          	li	gp,15
800002f4:	fff00593          	li	a1,-1
800002f8:	fff00613          	li	a2,-1
800002fc:	00c58733          	add	a4,a1,a2
80000300:	ffe00393          	li	t2,-2
80000304:	36771463          	bne	a4,t2,8000066c <fail>
80000308:	01000193          	li	gp,16
8000030c:	00100593          	li	a1,1
80000310:	80000637          	lui	a2,0x80000
80000314:	fff60613          	addi	a2,a2,-1 # 7fffffff <__stack_size+0x7ffff7ff>
80000318:	00c58733          	add	a4,a1,a2
8000031c:	800003b7          	lui	t2,0x80000
80000320:	34771663          	bne	a4,t2,8000066c <fail>
80000324:	01100193          	li	gp,17
80000328:	00d00593          	li	a1,13
8000032c:	00b00613          	li	a2,11
80000330:	00c585b3          	add	a1,a1,a2
80000334:	01800393          	li	t2,24
80000338:	32759a63          	bne	a1,t2,8000066c <fail>
8000033c:	01200193          	li	gp,18
80000340:	00e00593          	li	a1,14
80000344:	00b00613          	li	a2,11
80000348:	00c58633          	add	a2,a1,a2
8000034c:	01900393          	li	t2,25
80000350:	30761e63          	bne	a2,t2,8000066c <fail>
80000354:	01300193          	li	gp,19
80000358:	00d00593          	li	a1,13
8000035c:	00b585b3          	add	a1,a1,a1
80000360:	01a00393          	li	t2,26
80000364:	30759463          	bne	a1,t2,8000066c <fail>
80000368:	01400193          	li	gp,20
8000036c:	00000213          	li	tp,0
80000370:	00d00093          	li	ra,13
80000374:	00b00113          	li	sp,11
80000378:	00208733          	add	a4,ra,sp
8000037c:	00070313          	mv	t1,a4
80000380:	00120213          	addi	tp,tp,1 # 1 <__heap_size-0x1ff>
80000384:	00200293          	li	t0,2
80000388:	fe5214e3          	bne	tp,t0,80000370 <test_20+0x8>
8000038c:	01800393          	li	t2,24
80000390:	2c731e63          	bne	t1,t2,8000066c <fail>
80000394:	01500193          	li	gp,21
80000398:	00000213          	li	tp,0
8000039c:	00e00093          	li	ra,14
800003a0:	00b00113          	li	sp,11
800003a4:	00208733          	add	a4,ra,sp
800003a8:	00000013          	nop
800003ac:	00070313          	mv	t1,a4
800003b0:	00120213          	addi	tp,tp,1 # 1 <__heap_size-0x1ff>
800003b4:	00200293          	li	t0,2
800003b8:	fe5212e3          	bne	tp,t0,8000039c <test_21+0x8>
800003bc:	01900393          	li	t2,25
800003c0:	2a731663          	bne	t1,t2,8000066c <fail>
800003c4:	01600193          	li	gp,22
800003c8:	00000213          	li	tp,0
800003cc:	00f00093          	li	ra,15
800003d0:	00b00113          	li	sp,11
800003d4:	00208733          	add	a4,ra,sp
800003d8:	00000013          	nop
800003dc:	00000013          	nop
800003e0:	00070313          	mv	t1,a4
800003e4:	00120213          	addi	tp,tp,1 # 1 <__heap_size-0x1ff>
800003e8:	00200293          	li	t0,2
800003ec:	fe5210e3          	bne	tp,t0,800003cc <test_22+0x8>
800003f0:	01a00393          	li	t2,26
800003f4:	26731c63          	bne	t1,t2,8000066c <fail>
800003f8:	01700193          	li	gp,23
800003fc:	00000213          	li	tp,0
80000400:	00d00093          	li	ra,13
80000404:	00b00113          	li	sp,11
80000408:	00208733          	add	a4,ra,sp
8000040c:	00120213          	addi	tp,tp,1 # 1 <__heap_size-0x1ff>
80000410:	00200293          	li	t0,2
80000414:	fe5216e3          	bne	tp,t0,80000400 <test_23+0x8>
80000418:	01800393          	li	t2,24
8000041c:	24771863          	bne	a4,t2,8000066c <fail>
80000420:	01800193          	li	gp,24
80000424:	00000213          	li	tp,0
80000428:	00e00093          	li	ra,14
8000042c:	00b00113          	li	sp,11
80000430:	00000013          	nop
80000434:	00208733          	add	a4,ra,sp
80000438:	00120213          	addi	tp,tp,1 # 1 <__heap_size-0x1ff>
8000043c:	00200293          	li	t0,2
80000440:	fe5214e3          	bne	tp,t0,80000428 <test_24+0x8>
80000444:	01900393          	li	t2,25
80000448:	22771263          	bne	a4,t2,8000066c <fail>
8000044c:	01900193          	li	gp,25
80000450:	00000213          	li	tp,0
80000454:	00f00093          	li	ra,15
80000458:	00b00113          	li	sp,11
8000045c:	00000013          	nop
80000460:	00000013          	nop
80000464:	00208733          	add	a4,ra,sp
80000468:	00120213          	addi	tp,tp,1 # 1 <__heap_size-0x1ff>
8000046c:	00200293          	li	t0,2
80000470:	fe5212e3          	bne	tp,t0,80000454 <test_25+0x8>
80000474:	01a00393          	li	t2,26
80000478:	1e771a63          	bne	a4,t2,8000066c <fail>
8000047c:	01a00193          	li	gp,26
80000480:	00000213          	li	tp,0
80000484:	00d00093          	li	ra,13
80000488:	00000013          	nop
8000048c:	00b00113          	li	sp,11
80000490:	00208733          	add	a4,ra,sp
80000494:	00120213          	addi	tp,tp,1 # 1 <__heap_size-0x1ff>
80000498:	00200293          	li	t0,2
8000049c:	fe5214e3          	bne	tp,t0,80000484 <test_26+0x8>
800004a0:	01800393          	li	t2,24
800004a4:	1c771463          	bne	a4,t2,8000066c <fail>
800004a8:	01b00193          	li	gp,27
800004ac:	00000213          	li	tp,0
800004b0:	00e00093          	li	ra,14
800004b4:	00000013          	nop
800004b8:	00b00113          	li	sp,11
800004bc:	00000013          	nop
800004c0:	00208733          	add	a4,ra,sp
800004c4:	00120213          	addi	tp,tp,1 # 1 <__heap_size-0x1ff>
800004c8:	00200293          	li	t0,2
800004cc:	fe5212e3          	bne	tp,t0,800004b0 <test_27+0x8>
800004d0:	01900393          	li	t2,25
800004d4:	18771c63          	bne	a4,t2,8000066c <fail>
800004d8:	01c00193          	li	gp,28
800004dc:	00000213          	li	tp,0
800004e0:	00f00093          	li	ra,15
800004e4:	00000013          	nop
800004e8:	00000013          	nop
800004ec:	00b00113          	li	sp,11
800004f0:	00208733          	add	a4,ra,sp
800004f4:	00120213          	addi	tp,tp,1 # 1 <__heap_size-0x1ff>
800004f8:	00200293          	li	t0,2
800004fc:	fe5212e3          	bne	tp,t0,800004e0 <test_28+0x8>
80000500:	01a00393          	li	t2,26
80000504:	16771463          	bne	a4,t2,8000066c <fail>
80000508:	01d00193          	li	gp,29
8000050c:	00000213          	li	tp,0
80000510:	00b00113          	li	sp,11
80000514:	00d00093          	li	ra,13
80000518:	00208733          	add	a4,ra,sp
8000051c:	00120213          	addi	tp,tp,1 # 1 <__heap_size-0x1ff>
80000520:	00200293          	li	t0,2
80000524:	fe5216e3          	bne	tp,t0,80000510 <test_29+0x8>
80000528:	01800393          	li	t2,24
8000052c:	14771063          	bne	a4,t2,8000066c <fail>
80000530:	01e00193          	li	gp,30
80000534:	00000213          	li	tp,0
80000538:	00b00113          	li	sp,11
8000053c:	00e00093          	li	ra,14
80000540:	00000013          	nop
80000544:	00208733          	add	a4,ra,sp
80000548:	00120213          	addi	tp,tp,1 # 1 <__heap_size-0x1ff>
8000054c:	00200293          	li	t0,2
80000550:	fe5214e3          	bne	tp,t0,80000538 <test_30+0x8>
80000554:	01900393          	li	t2,25
80000558:	10771a63          	bne	a4,t2,8000066c <fail>
8000055c:	01f00193          	li	gp,31
80000560:	00000213          	li	tp,0
80000564:	00b00113          	li	sp,11
80000568:	00f00093          	li	ra,15
8000056c:	00000013          	nop
80000570:	00000013          	nop
80000574:	00208733          	add	a4,ra,sp
80000578:	00120213          	addi	tp,tp,1 # 1 <__heap_size-0x1ff>
8000057c:	00200293          	li	t0,2
80000580:	fe5212e3          	bne	tp,t0,80000564 <test_31+0x8>
80000584:	01a00393          	li	t2,26
80000588:	0e771263          	bne	a4,t2,8000066c <fail>
8000058c:	02000193          	li	gp,32
80000590:	00000213          	li	tp,0
80000594:	00b00113          	li	sp,11
80000598:	00000013          	nop
8000059c:	00d00093          	li	ra,13
800005a0:	00208733          	add	a4,ra,sp
800005a4:	00120213          	addi	tp,tp,1 # 1 <__heap_size-0x1ff>
800005a8:	00200293          	li	t0,2
800005ac:	fe5214e3          	bne	tp,t0,80000594 <test_32+0x8>
800005b0:	01800393          	li	t2,24
800005b4:	0a771c63          	bne	a4,t2,8000066c <fail>
800005b8:	02100193          	li	gp,33
800005bc:	00000213          	li	tp,0
800005c0:	00b00113          	li	sp,11
800005c4:	00000013          	nop
800005c8:	00e00093          	li	ra,14
800005cc:	00000013          	nop
800005d0:	00208733          	add	a4,ra,sp
800005d4:	00120213          	addi	tp,tp,1 # 1 <__heap_size-0x1ff>
800005d8:	00200293          	li	t0,2
800005dc:	fe5212e3          	bne	tp,t0,800005c0 <test_33+0x8>
800005e0:	01900393          	li	t2,25
800005e4:	08771463          	bne	a4,t2,8000066c <fail>
800005e8:	02200193          	li	gp,34
800005ec:	00000213          	li	tp,0
800005f0:	00b00113          	li	sp,11
800005f4:	00000013          	nop
800005f8:	00000013          	nop
800005fc:	00f00093          	li	ra,15
80000600:	00208733          	add	a4,ra,sp
80000604:	00120213          	addi	tp,tp,1 # 1 <__heap_size-0x1ff>
80000608:	00200293          	li	t0,2
8000060c:	fe5212e3          	bne	tp,t0,800005f0 <test_34+0x8>
80000610:	01a00393          	li	t2,26
80000614:	04771c63          	bne	a4,t2,8000066c <fail>
80000618:	02300193          	li	gp,35
8000061c:	00f00093          	li	ra,15
80000620:	00100133          	add	sp,zero,ra
80000624:	00f00393          	li	t2,15
80000628:	04711263          	bne	sp,t2,8000066c <fail>
8000062c:	02400193          	li	gp,36
80000630:	02000093          	li	ra,32
80000634:	00008133          	add	sp,ra,zero
80000638:	02000393          	li	t2,32
8000063c:	02711863          	bne	sp,t2,8000066c <fail>
80000640:	02500193          	li	gp,37
80000644:	000000b3          	add	ra,zero,zero
80000648:	00000393          	li	t2,0
8000064c:	02709063          	bne	ra,t2,8000066c <fail>
80000650:	02600193          	li	gp,38
80000654:	01000093          	li	ra,16
80000658:	01e00113          	li	sp,30
8000065c:	00208033          	add	zero,ra,sp
80000660:	00000393          	li	t2,0
80000664:	00701463          	bne	zero,t2,8000066c <fail>
80000668:	02301063          	bne	zero,gp,80000688 <pass>
8000066c:	0ff0000f          	fence
80000670:	00018063          	beqz	gp,80000670 <fail+0x4>
80000674:	00119193          	slli	gp,gp,0x1
80000678:	0011e193          	ori	gp,gp,1
8000067c:	05d00893          	li	a7,93
80000680:	00018513          	mv	a0,gp
80000684:	00000073          	ecall
80000688:	0ff0000f          	fence
8000068c:	00100193          	li	gp,1
80000690:	05d00893          	li	a7,93
80000694:	00000513          	li	a0,0
80000698:	00000073          	ecall
8000069c:	c0001073          	unimp
800006a0:	0000                	.insn	2, 0x
800006a2:	0000                	.insn	2, 0x
800006a4:	0000                	.insn	2, 0x
800006a6:	0000                	.insn	2, 0x
800006a8:	0000                	.insn	2, 0x
800006aa:	0000                	.insn	2, 0x
800006ac:	0000                	.insn	2, 0x
800006ae:	0000                	.insn	2, 0x
800006b0:	0000                	.insn	2, 0x
800006b2:	0000                	.insn	2, 0x
800006b4:	0000                	.insn	2, 0x
800006b6:	0000                	.insn	2, 0x
800006b8:	0000                	.insn	2, 0x
800006ba:	0000                	.insn	2, 0x
80000000:	0500006f          	j	80000050 <reset_vector>
80000004:	34202f73          	csrr	t5,mcause
80000008:	00800f93          	li	t6,8
8000000c:	03ff0863          	beq	t5,t6,8000003c <write_tohost>
80000010:	00900f93          	li	t6,9
80000014:	03ff0463          	beq	t5,t6,8000003c <write_tohost>
80000018:	00b00f93          	li	t6,11
8000001c:	03ff0063          	beq	t5,t6,8000003c <write_tohost>
80000020:	00000f13          	li	t5,0
80000024:	000f0463          	beqz	t5,8000002c <trap_vector+0x28>
80000028:	000f0067          	jr	t5
8000002c:	34202f73          	csrr	t5,mcause
80000030:	000f5463          	bgez	t5,80000038 <handle_exception>
80000034:	0040006f          	j	80000038 <handle_exception>
80000038:	5391e193          	ori	gp,gp,1337
8000003c:	20000f17          	auipc	t5,0x20000
80000040:	fc3f2223          	sw	gp,-60(t5) # a0000000 <tohost>
80000044:	20000f17          	auipc	t5,0x20000
80000048:	fc0f2023          	sw	zero,-64(t5) # a0000004 <tohost+0x4>
8000004c:	ff1ff06f          	j	8000003c <write_tohost>
80000050:	00000093          	li	ra,0
80000054:	00000113          	li	sp,0
80000058:	00000193          	li	gp,0
8000005c:	00000213          	li	tp,0
80000060:	00000293          	li	t0,0
80000064:	00000313          	li	t1,0
80000068:	00000393          	li	t2,0
8000006c:	00000413          	li	s0,0
80000070:	00000493          	li	s1,0
80000074:	00000513          	li	a0,0
80000078:	00000593          	li	a1,0
8000007c:	00000613          	li	a2,0
80000080:	00000693          	li	a3,0
80000084:	00000713          	li	a4,0
80000088:	00000793          	li	a5,0
8000008c:	00000813          	li	a6,0
80000090:	00000893          	li	a7,0
80000094:	00000913          	li	s2,0
80000098:	00000993          	li	s3,0
8000009c:	00000a13          	li	s4,0
800000a0:	00000a93          	li	s5,0
800000a4:	00000b13          	li	s6,0
800000a8:	00000b93          	li	s7,0
800000ac:	00000c13          	li	s8,0
800000b0:	00000c93          	li	s9,0
800000b4:	00000d13          	li	s10,0
800000b8:	00000d93          	li	s11,0
800000bc:	00000e13          	li	t3,0
800000c0:	00000e93          	li	t4,0
800000c4:	00000f13          	li	t5,0
800000c8:	00000f93          	li	t6,0
800000cc:	f1402573          	csrr	a0,mhartid
800000d0:	00051063          	bnez	a0,800000d0 <reset_vector+0x80>
800000d4:	00000297          	auipc	t0,0x0
800000d8:	01028293          	addi	t0,t0,16 # 800000e4 <reset_vector+0x94>
800000dc:	30529073          	csrw	mtvec,t0
800000e0:	74445073          	csrwi	0x744,8
800000e4:	00000297          	auipc	t0,0x0
800000e8:	01028293          	addi	t0,t0,16 # 800000f4 <reset_vector+0xa4>
800000ec:	30529073          	csrw	mtvec,t0
800000f0:	18005073          	csrwi	satp,0
800000f4:	00000297          	auipc	t0,0x0
800000f8:	02028293          	addi	t0,t0,32 # 80000114 <reset_vector+0xc4>
800000fc:	30529073          	csrw	mtvec,t0
80000100:	800002b7          	lui	t0,0x80000
80000104:	fff28293          	addi	t0,t0,-1 # 7fffffff <__stack_size+0x7ffff7ff>
80000108:	3b029073          	csrw	pmpaddr0,t0
8000010c:	01f00293          	li	t0,31
80000110:	3a029073          	csrw	pmpcfg0,t0
80000114:	30405073          	csrwi	mie,0
80000118:	00000297          	auipc	t0,0x0
8000011c:	01428293          	addi	t0,t0,20 # 8000012c <reset_vector+0xdc>
80000120:	30529073          	csrw	mtvec,t0
80000124:	30205073          	csrwi	medeleg,0
80000128:	30305073          	csrwi	mideleg,0
8000012c:	00000193          	li	gp,0
80000130:	00000297          	auipc	t0,0x0
80000134:	ed428293          	addi	t0,t0,-300 # 80000004 <trap_vector>
80000138:	30529073          	csrw	mtvec,t0
8000013c:	00100513          	li	a0,1
80000140:	01f51513          	slli	a0,a0,0x1f
80000144:	00054c63          	bltz	a0,8000015c <reset_vector+0x10c>
80000148:	0ff0000f          	fence
8000014c:	00100193          	li	gp,1
80000150:	05d00893          	li	a7,93
80000154:	00000513          	li	a0,0
80000158:	00000073          	ecall
8000015c:	00000293          	li	t0,0
80000160:	00028a63          	beqz	t0,80000174 <reset_vector+0x124>
80000164:	10529073          	csrw	stvec,t0
80000168:	0000b2b7          	lui	t0,0xb
8000016c:	10928293          	addi	t0,t0,265 # b109 <__stack_size+0xa909>
80000170:	30229073          	csrw	medeleg,t0
80000174:	30005073          	csrwi	mstatus,0
80000178:	00000297          	auipc	t0,0x0
8000017c:	01428293          	addi	t0,t0,20 # 8000018c <test_2>
80000180:	34129073          	csrw	mepc,t0
80000184:	f1402573          	csrr	a0,mhartid
80000188:	30200073          	mret
8000018c:	00200193          	li	gp,2
80000190:	800005b7          	lui	a1,0x80000
80000194:	00000613          	li	a2,0
80000198:	40c5d733          	sra	a4,a1,a2
8000019c:	800003b7          	lui	t2,0x80000
800001a0:	58771463          	bne	a4,t2,80000728 <fail>
800001a4:	00300193          	li	gp,3
800001a8:	800005b7          	lui	a1,0x80000
800001ac:	00100613          	li	a2,1
800001b0:	40c5d733          	sra	a4,a1,a2
800001b4:	c00003b7          	lui	t2,0xc0000
800001b8:	56771863          	bne	a4,t2,80000728 <fail>
800001bc:	00400193          	li	gp,4
800001c0:	800005b7          	lui	a1,0x80000
800001c4:	00700613          	li	a2,7
800001c8:	40c5d733          	sra	a4,a1,a2
800001cc:	ff0003b7          	lui	t2,0xff000
800001d0:	54771c63          	bne	a4,t2,80000728 <fail>
800001d4:	00500193          	li	gp,5
800001d8:	800005b7          	lui	a1,0x80000
800001dc:	00e00613          	li	a2,14
800001e0:	40c5d733          	sra	a4,a1,a2
800001e4:	fffe03b7          	lui	t2,0xfffe0
800001e8:	54771063          	bne	a4,t2,80000728 <fail>
800001ec:	00600193          	li	gp,6
800001f0:	800005b7          	lui	a1,0x80000
800001f4:	00158593          	addi	a1,a1,1 # 80000001 <_start+0x1>
800001f8:	01f00613          	li	a2,31
800001fc:	40c5d733          	sra	a4,a1,a2
80000200:	fff00393          	li	t2,-1
80000204:	52771263          	bne	a4,t2,80000728 <fail>
80000208:	00700193          	li	gp,7
8000020c:	800005b7          	lui	a1,0x80000
80000210:	fff58593          	addi	a1,a1,-1 # 7fffffff <__stack_size+0x7ffff7ff>
80000214:	00000613          	li	a2,0
80000218:	40c5d733          	sra	a4,a1,a2
8000021c:	800003b7          	lui	t2,0x80000
80000220:	fff38393          	addi	t2,t2,-1 # 7fffffff <__stack_size+0x7ffff7ff>
80000224:	50771263          	bne	a4,t2,80000728 <fail>
80000228:	00800193          	li	gp,8
8000022c:	800005b7          	lui	a1,0x80000
80000230:	fff58593          	addi	a1,a1,-1 # 7fffffff <__stack_size+0x7ffff7ff>
80000234:	00100613          	li	a2,1
80000238:	40c5d733          	sra	a4,a1,a2
8000023c:	400003b7          	lui	t2,0x40000
80000240:	fff38393          	addi	t2,t2,-1 # 3fffffff <__stack_size+0x3ffff7ff>
80000244:	4e771263          	bne	a4,t2,80000728 <fail>
80000248:	00900193          	li	gp,9
8000024c:	800005b7          	lui	a1,0x80000
80000250:	fff58593          	addi	a1,a1,-1 # 7fffffff <__stack_size+0x7ffff7ff>
80000254:	00700613          	li	a2,7
80000258:	40c5d733          	sra	a4,a1,a2
8000025c:	010003b7          	lui	t2,0x1000
80000260:	fff38393          	addi	t2,t2,-1 # ffffff <__stack_size+0xfff7ff>
80000264:	4c771263          	bne	a4,t2,80000728 <fail>
80000268:	00a00193          	li	gp,10
8000026c:	800005b7          	lui	a1,0x80000
80000270:	fff58593          	addi	a1,a1,-1 # 7fffffff <__stack_size+0x7ffff7ff>
80000274:	00e00613          	li	a2,14
80000278:	40c5d733          	sra	a4,a1,a2
8000027c:	000203b7          	lui	t2,0x20
80000280:	fff38393          	addi	t2,t2,-1 # 1ffff <__stack_size+0x1f7ff>
80000284:	4a771263          	bne	a4,t2,80000728 <fail>
80000288:	00b00193          	li	gp,11
8000028c:	800005b7          	lui	a1,0x80000
80000290:	fff58593          	addi	a1,a1,-1 # 7fffffff <__stack_size+0x7ffff7ff>
80000294:	01f00613          	li	a2,31
80000298:	40c5d733          	sra	a4,a1,a2
8000029c:	00000393          	li	t2,0
800002a0:	48771463          	bne	a4,t2,80000728 <fail>
800002a4:	00c00193          	li	gp,12
800002a8:	818185b7          	lui	a1,0x81818
800002ac:	18158593          	addi	a1,a1,385 # 81818181 <pass+0x1817a3d>
800002b0:	00000613          	li	a2,0
800002b4:	40c5d733          	sra	a4,a1,a2
800002b8:	818183b7          	lui	t2,0x81818
800002bc:	18138393          	addi	t2,t2,385 # 81818181 <pass+0x1817a3d>
800002c0:	46771463          	bne	a4,t2,80000728 <fail>
800002c4:	00d00193          	li	gp,13
800002c8:	818185b7          	lui	a1,0x81818
800002cc:	18158593          	addi	a1,a1,385 # 81818181 <pass+0x1817a3d>
800002d0:	00100613          	li	a2,1
800002d4:	40c5d733          	sra	a4,a1,a2
800002d8:	c0c0c3b7          	lui	t2,0xc0c0c
800002dc:	0c038393          	addi	t2,t2,192 # c0c0c0c0 <_end+0x20c0b678>
800002e0:	44771463          	bne	a4,t2,80000728 <fail>
800002e4:	00e00193          	li	gp,14
800002e8:	818185b7          	lui	a1,0x81818
800002ec:	18158593          	addi	a1,a1,385 # 81818181 <pass+0x1817a3d>
800002f0:	00700613          	li	a2,7
800002f4:	40c5d733          	sra	a4,a1,a2
800002f8:	ff0303b7          	lui	t2,0xff030
800002fc:	30338393          	addi	t2,t2,771 # ff030303 <_end+0x5f02f8bb>
80000300:	42771463          	bne	a4,t2,80000728 <fail>
80000304:	00f00193          	li	gp,15
80000308:	818185b7          	lui	a1,0x81818
8000030c:	18158593          	addi	a1,a1,385 # 81818181 <pass+0x1817a3d>
80000310:	00e00613          	li	a2,14
80000314:	40c5d733          	sra	a4,a1,a2
80000318:	fffe03b7          	lui	t2,0xfffe0
8000031c:	60638393          	addi	t2,t2,1542 # fffe0606 <_end+0x5ffdfbbe>
80000320:	40771463          	bne	a4,t2,80000728 <fail>
80000324:	01000193          	li	gp,16
80000328:	818185b7          	lui	a1,0x81818
8000032c:	18158593          	addi	a1,a1,385 # 81818181 <pass+0x1817a3d>
80000330:	01f00613          	li	a2,31
80000334:	40c5d733          	sra	a4,a1,a2
80000338:	fff00393          	li	t2,-1
8000033c:	3e771663          	bne	a4,t2,80000728 <fail>
80000340:	01100193          	li	gp,17
80000344:	818185b7          	lui	a1,0x81818
80000348:	18158593          	addi	a1,a1,385 # 81818181 <pass+0x1817a3d>
8000034c:	fc000613          	li	a2,-64
80000350:	40c5d733          	sra	a4,a1,a2
80000354:	818183b7          	lui	t2,0x81818
80000358:	18138393          	addi	t2,t2,385 # 81818181 <pass+0x1817a3d>
8000035c:	3c771663          	bne	a4,t2,80000728 <fail>
80000360:	01200193          	li	gp,18
80000364:	818185b7          	lui	a1,0x81818
80000368:	18158593          	addi	a1,a1,385 # 81818181 <pass+0x1817a3d>
8000036c:	fc100613          	li	a2,-63
80000370:	40c5d733          	sra	a4,a1,a2
80000374:	c0c0c3b7          	lui	t2,0xc0c0c
80000378:	0c038393          	addi	t2,t2,192 # c0c0c0c0 <_end+0x20c0b678>
8000037c:	3a771663          	bne	a4,t2,80000728 <fail>
80000380:	01300193          	li	gp,19
80000384:	818185b7          	lui	a1,0x81818
80000388:	18158593          	addi	a1,a1,385 # 81818181 <pass+0x1817a3d>
8000038c:	fc700613          	li	a2,-57
80000390:	40c5d733          	sra	a4,a1,a2
80000394:	ff0303b7          	lui	t2,0xff030
80000398:	30338393          	addi	t2,t2,771 # ff030303 <_end+0x5f02f8bb>
8000039c:	38771663          	bne	a4,t2,80000728 <fail>
800003a0:	01400193          	li	gp,20
800003a4:	818185b7          	lui	a1,0x81818
800003a8:	18158593          	addi	a1,a1,385 # 81818181 <pass+0x1817a3d>
800003ac:	fce00613          	li	a2,-50
800003b0:	40c5d733          	sra	a4,a1,a2
800003b4:	fffe03b7          	lui	t2,0xfffe0
800003b8:	60638393          	addi	t2,t2,1542 # fffe0606 <_end+0x5ffdfbbe>
800003bc:	36771663          	bne	a4,t2,80000728 <fail>
800003c0:	01500193          	li	gp,21
800003c4:	818185b7          	lui	a1,0x81818
800003c8:	18158593          	addi	a1,a1,385 # 81818181 <pass+0x1817a3d>
800003cc:	fff00613          	li	a2,-1
800003d0:	40c5d733          	sra	a4,a1,a2
800003d4:	fff00393          	li	t2,-1
800003d8:	34771863          	bne	a4,t2,80000728 <fail>
800003dc:	01600193          	li	gp,22
800003e0:	800005b7          	lui	a1,0x80000
800003e4:	00700613          	li	a2,7
800003e8:	40c5d5b3          	sra	a1,a1,a2
800003ec:	ff0003b7          	lui	t2,0xff000
800003f0:	32759c63          	bne	a1,t2,80000728 <fail>
800003f4:	01700193          	li	gp,23
800003f8:	800005b7          	lui	a1,0x80000
800003fc:	00e00613          	li	a2,14
80000400:	40c5d633          	sra	a2,a1,a2
80000404:	fffe03b7          	lui	t2,0xfffe0
80000408:	32761063          	bne	a2,t2,80000728 <fail>
8000040c:	01800193          	li	gp,24
80000410:	00700593          	li	a1,7
80000414:	40b5d5b3          	sra	a1,a1,a1
80000418:	00000393          	li	t2,0
8000041c:	30759663          	bne	a1,t2,80000728 <fail>
80000420:	01900193          	li	gp,25
80000424:	00000213          	li	tp,0
80000428:	800000b7          	lui	ra,0x80000
8000042c:	00700113          	li	sp,7
80000430:	4020d733          	sra	a4,ra,sp
80000434:	00070313          	mv	t1,a4
80000438:	00120213          	addi	tp,tp,1 # 1 <__heap_size-0x1ff>
8000043c:	00200293          	li	t0,2
80000440:	fe5214e3          	bne	tp,t0,80000428 <test_25+0x8>
80000444:	ff0003b7          	lui	t2,0xff000
80000448:	2e731063          	bne	t1,t2,80000728 <fail>
8000044c:	01a00193          	li	gp,26
80000450:	00000213          	li	tp,0
80000454:	800000b7          	lui	ra,0x80000
80000458:	00e00113          	li	sp,14
8000045c:	4020d733          	sra	a4,ra,sp
80000460:	00000013          	nop
80000464:	00070313          	mv	t1,a4
80000468:	00120213          	addi	tp,tp,1 # 1 <__heap_size-0x1ff>
8000046c:	00200293          	li	t0,2
80000470:	fe5212e3          	bne	tp,t0,80000454 <test_26+0x8>
80000474:	fffe03b7          	lui	t2,0xfffe0
80000478:	2a731863          	bne	t1,t2,80000728 <fail>
8000047c:	01b00193          	li	gp,27
80000480:	00000213          	li	tp,0
80000484:	800000b7          	lui	ra,0x80000
80000488:	01f00113          	li	sp,31
8000048c:	4020d733          	sra	a4,ra,sp
80000490:	00000013          	nop
80000494:	00000013          	nop
80000498:	00070313          	mv	t1,a4
8000049c:	00120213          	addi	tp,tp,1 # 1 <__heap_size-0x1ff>
800004a0:	00200293          	li	t0,2
800004a4:	fe5210e3          	bne	tp,t0,80000484 <test_27+0x8>
800004a8:	fff00393          	li	t2,-1
800004ac:	26731e63          	bne	t1,t2,80000728 <fail>
800004b0:	01c00193          	li	gp,28
800004b4:	00000213          	li	tp,0
800004b8:	800000b7          	lui	ra,0x80000
800004bc:	00700113          	li	sp,7
800004c0:	4020d733          	sra	a4,ra,sp
800004c4:	00120213          	addi	tp,tp,1 # 1 <__heap_size-0x1ff>
800004c8:	00200293          	li	t0,2
800004cc:	fe5216e3          	bne	tp,t0,800004b8 <test_28+0x8>
800004d0:	ff0003b7          	lui	t2,0xff000
800004d4:	24771a63          	bne	a4,t2,80000728 <fail>
800004d8:	01d00193          	li	gp,29
800004dc:	00000213          	li	tp,0
800004e0:	800000b7          	lui	ra,0x80000
800004e4:	00e00113          	li	sp,14
800004e8:	00000013          	nop
800004ec:	4020d733          	sra	a4,ra,sp
800004f0:	00120213          	addi	tp,tp,1 # 1 <__heap_size-0x1ff>
800004f4:	00200293          	li	t0,2
800004f8:	fe5214e3          	bne	tp,t0,800004e0 <test_29+0x8>
800004fc:	fffe03b7          	lui	t2,0xfffe0
80000500:	22771463          	bne	a4,t2,80000728 <fail>
80000504:	01e00193          	li	gp,30
80000508:	00000213          	li	tp,0
8000050c:	800000b7          	lui	ra,0x80000
80000510:	01f00113          	li	sp,31
80000514:	00000013          	nop
80000518:	00000013          	nop
8000051c:	4020d733          	sra	a4,ra,sp
80000520:	00120213          	addi	tp,tp,1 # 1 <__heap_size-0x1ff>
80000524:	00200293          	li	t0,2
80000528:	fe5212e3          	bne	tp,t0,8000050c <test_30+0x8>
8000052c:	fff00393          	li	t2,-1
80000530:	1e771c63          	bne	a4,t2,80000728 <fail>
80000534:	01f00193          	li	gp,31
80000538:	00000213          	li	tp,0
8000053c:	800000b7          	lui	ra,0x80000
80000540:	00000013          	nop
80000544:	00700113          	li	sp,7
80000548:	4020d733          	sra	a4,ra,sp
8000054c:	00120213          	addi	tp,tp,1 # 1 <__heap_size-0x1ff>
80000550:	00200293          	li	t0,2
80000554:	fe5214e3          	bne	tp,t0,8000053c <test_31+0x8>
80000558:	ff0003b7          	lui	t2,0xff000
8000055c:	1c771663          	bne	a4,t2,80000728 <fail>
80000560:	02000193          	li	gp,32
80000564:	00000213          	li	tp,0
80000568:	800000b7          	lui	ra,0x80000
8000056c:	00000013          	nop
80000570:	00e00113          	li	sp,14
80000574:	00000013          	nop
80000578:	4020d733          	sra	a4,ra,sp
8000057c:	00120213          	addi	tp,tp,1 # 1 <__heap_size-0x1ff>
80000580:	00200293          	li	t0,2
80000584:	fe5212e3          	bne	tp,t0,80000568 <test_32+0x8>
80000588:	fffe03b7          	lui	t2,0xfffe0
8000058c:	18771e63          	bne	a4,t2,80000728 <fail>
80000590:	02100193          	li	gp,33
80000594:	00000213          	li	tp,0
80000598:	800000b7          	lui	ra,0x80000
8000059c:	00000013          	nop
800005a0:	00000013          	nop
800005a4:	01f00113          	li	sp,31
800005a8:	4020d733          	sra	a4,ra,sp
800005ac:	00120213          	addi	tp,tp,1 # 1 <__heap_size-0x1ff>
800005b0:	00200293          	li	t0,2
800005b4:	fe5212e3          	bne	tp,t0,80000598 <test_33+0x8>
800005b8:	fff00393          	li	t2,-1
800005bc:	16771663          	bne	a4,t2,80000728 <fail>
800005c0:	02200193          	li	gp,34
800005c4:	00000213          	li	tp,0
800005c8:	00700113          	li	sp,7
800005cc:	800000b7          	lui	ra,0x80000
800005d0:	4020d733          	sra	a4,ra,sp
800005d4:	00120213          	addi	tp,tp,1 # 1 <__heap_size-0x1ff>
800005d8:	00200293          	li	t0,2
800005dc:	fe5216e3          	bne	tp,t0,800005c8 <test_34+0x8>
800005e0:	ff0003b7          	lui	t2,0xff000
800005e4:	14771263          	bne	a4,t2,80000728 <fail>
800005e8:	02300193          	li	gp,35
800005ec:	00000213          	li	tp,0
800005f0:	00e00113          	li	sp,14
800005f4:	800000b7          	lui	ra,0x80000
800005f8:	00000013          	nop
800005fc:	4020d733          	sra	a4,ra,sp
80000600:	00120213          	addi	tp,tp,1 # 1 <__heap_size-0x1ff>
80000604:	00200293          	li	t0,2
80000608:	fe5214e3          	bne	tp,t0,800005f0 <test_35+0x8>
8000060c:	fffe03b7          	lui	t2,0xfffe0
80000610:	10771c63          	bne	a4,t2,80000728 <fail>
80000614:	02400193          	li	gp,36
80000618:	00000213          	li	tp,0
8000061c:	01f00113          	li	sp,31
80000620:	800000b7          	lui	ra,0x80000
80000624:	00000013          	nop
80000628:	00000013          	nop
8000062c:	4020d733          	sra	a4,ra,sp
80000630:	00120213          	addi	tp,tp,1 # 1 <__heap_size-0x1ff>
80000634:	00200293          	li	t0,2
80000638:	fe5212e3          	bne	tp,t0,8000061c <test_36+0x8>
8000063c:	fff00393          	li	t2,-1
80000640:	0e771463          	bne	a4,t2,80000728 <fail>
80000644:	02500193          	li	gp,37
80000648:	00000213          	li	tp,0
8000064c:	00700113          	li	sp,7
80000650:	00000013          	nop
80000654:	800000b7          	lui	ra,0x80000
80000658:	4020d733          	sra	a4,ra,sp
8000065c:	00120213          	addi	tp,tp,1 # 1 <__heap_size-0x1ff>
80000660:	00200293          	li	t0,2
80000664:	fe5214e3          	bne	tp,t0,8000064c <test_37+0x8>
80000668:	ff0003b7          	lui	t2,0xff000
8000066c:	0a771e63          	bne	a4,t2,80000728 <fail>
80000670:	02600193          	li	gp,38
80000674:	00000213          	li	tp,0
80000678:	00e00113          	li	sp,14
8000067c:	00000013          	nop
80000680:	800000b7          	lui	ra,0x80000
80000684:	00000013          	nop
80000688:	4020d733          	sra	a4,ra,sp
8000068c:	00120213          	addi	tp,tp,1 # 1 <__heap_size-0x1ff>
80000690:	00200293          	li	t0,2
80000694:	fe5212e3          	bne	tp,t0,80000678 <test_38+0x8>
80000698:	fffe03b7          	lui	t2,0xfffe0
8000069c:	08771663          	bne	a4,t2,80000728 <fail>
800006a0:	02700193          	li	gp,39
800006a4:	00000213          	li	tp,0
800006a8:	01f00113          	li	sp,31
800006ac:	00000013          	nop
800006b0:	00000013          	nop
800006b4:	800000b7          	lui	ra,0x80000
800006b8:	4020d733          	sra	a4,ra,sp
800006bc:	00120213          	addi	tp,tp,1 # 1 <__heap_size-0x1ff>
800006c0:	00200293          	li	t0,2
800006c4:	fe5212e3          	bne	tp,t0,800006a8 <test_39+0x8>
800006c8:	fff00393          	li	t2,-1
800006cc:	04771e63          	bne	a4,t2,80000728 <fail>
800006d0:	02800193          	li	gp,40
800006d4:	00f00093          	li	ra,15
800006d8:	40105133          	sra	sp,zero,ra
800006dc:	00000393          	li	t2,0
800006e0:	04711463          	bne	sp,t2,80000728 <fail>
800006e4:	02900193          	li	gp,41
800006e8:	02000093          	li	ra,32
800006ec:	4000d133          	sra	sp,ra,zero
800006f0:	02000393          	li	t2,32
800006f4:	02711a63          	bne	sp,t2,80000728 <fail>
800006f8:	02a00193          	li	gp,42
800006fc:	400050b3          	sra	ra,zero,zero
80000700:	00000393          	li	t2,0
80000704:	02709263          	bne	ra,t2,80000728 <fail>
80000708:	02b00193          	li	gp,43
8000070c:	40000093          	li	ra,1024
80000710:	00001137          	lui	sp,0x1
80000714:	80010113          	addi	sp,sp,-2048 # 800 <__stack_size>
80000718:	4020d033          	sra	zero,ra,sp
8000071c:	00000393          	li	t2,0
80000720:	00701463          	bne	zero,t2,80000728 <fail>
80000724:	02301063          	bne	zero,gp,80000744 <pass>
80000728:	0ff0000f          	fence
8000072c:	00018063          	beqz	gp,8000072c <fail+0x4>
80000730:	00119193          	slli	gp,gp,0x1
80000734:	0011e193          	ori	gp,gp,1
80000738:	05d00893          	li	a7,93
8000073c:	00018513          	mv	a0,gp
80000740:	00000073          	ecall
80000744:	0ff0000f          	fence
80000748:	00100193          	li	gp,1
8000074c:	05d00893          	li	a7,93
80000750:	00000513          	li	a0,0
80000754:	00000073          	ecall
80000758:	c0001073          	unimp
8000075c:	0000                	.insn	2, 0x
8000075e:	0000                	.insn	2, 0x
80000760:	0000                	.insn	2, 0x
80000762:	0000                	.insn	2, 0x
80000764:	0000                	.insn	2, 0x
80000766:	0000                	.insn	2, 0x
80000768:	0000                	.insn	2, 0x
8000076a:	0000                	.insn	2, 0x
8000076c:	0000                	.insn	2, 0x
8000076e:	0000                	.insn	2, 0x
80000770:	0000                	.insn	2, 0x
80000772:	0000                	.insn	2, 0x
80000774:	0000                	.insn	2, 0x
80000776:	0000                	.insn	2, 0x
80000778:	0000                	.insn	2, 0x
8000077a:	0000                	.insn	2, 0x
80000000:	0500006f          	j	80000050 <reset_vector>
80000004:	34202f73          	csrr	t5,mcause
80000008:	00800f93          	li	t6,8
8000000c:	03ff0863          	beq	t5,t6,8000003c <write_tohost>
80000010:	00900f93          	li	t6,9
80000014:	03ff0463          	beq	t5,t6,8000003c <write_tohost>
80000018:	00b00f93          	li	t6,11
8000001c:	03ff0063          	beq	t5,t6,8000003c <write_tohost>
80000020:	00000f13          	li	t5,0
80000024:	000f0463          	beqz	t5,8000002c <trap_vector+0x28>
80000028:	000f0067          	jr	t5
8000002c:	34202f73          	csrr	t5,mcause
80000030:	000f5463          	bgez	t5,80000038 <handle_exception>
80000034:	0040006f          	j	80000038 <handle_exception>
80000038:	5391e193          	ori	gp,gp,1337
8000003c:	20000f17          	auipc	t5,0x20000
80000040:	fc3f2223          	sw	gp,-60(t5) # a0000000 <tohost>
80000044:	20000f17          	auipc	t5,0x20000
80000048:	fc0f2023          	sw	zero,-64(t5) # a0000004 <tohost+0x4>
8000004c:	ff1ff06f          	j	8000003c <write_tohost>
80000050:	00000093          	li	ra,0
80000054:	00000113          	li	sp,0
80000058:	00000193          	li	gp,0
8000005c:	00000213          	li	tp,0
80000060:	00000293          	li	t0,0
80000064:	00000313          	li	t1,0
80000068:	00000393          	li	t2,0
8000006c:	00000413          	li	s0,0
80000070:	00000493          	li	s1,0
80000074:	00000513          	li	a0,0
80000078:	00000593          	li	a1,0
8000007c:	00000613          	li	a2,0
80000080:	00000693          	li	a3,0
80000084:	00000713          	li	a4,0
80000088:	00000793          	li	a5,0
8000008c:	00000813          	li	a6,0
80000090:	00000893          	li	a7,0
80000094:	00000913          	li	s2,0
80000098:	00000993          	li	s3,0
8000009c:	00000a13          	li	s4,0
800000a0:	00000a93          	li	s5,0
800000a4:	00000b13          	li	s6,0
800000a8:	00000b93          	li	s7,0
800000ac:	00000c13          	li	s8,0
800000b0:	00000c93          	li	s9,0
800000b4:	00000d13          	li	s10,0
800000b8:	00000d93          	li	s11,0
800000bc:	00000e13          	li	t3,0
800000c0:	00000e93          	li	t4,0
800000c4:	00000f13          	li	t5,0
800000c8:	00000f93          	li	t6,0
800000cc:	f1402573          	csrr	a0,mhartid
800000d0:	00051063          	bnez	a0,800000d0 <reset_vector+0x80>
800000d4:	00000297          	auipc	t0,0x0
800000d8:	01028293          	addi	t0,t0,16 # 800000e4 <reset_vector+0x94>
800000dc:	30529073          	csrw	mtvec,t0
800000e0:	74445073          	csrwi	0x744,8
800000e4:	00000297          	auipc	t0,0x0
800000e8:	01028293          	addi	t0,t0,16 # 800000f4 <reset_vector+0xa4>
800000ec:	30529073          	csrw	mtvec,t0
800000f0:	18005073          	csrwi	satp,0
800000f4:	00000297          	auipc	t0,0x0
800000f8:	02028293          	addi	t0,t0,32 # 80000114 <reset_vector+0xc4>
800000fc:	30529073          	csrw	mtvec,t0
80000100:	800002b7          	lui	t0,0x80000
80000104:	fff28293          	addi	t0,t0,-1 # 7fffffff <__stack_size+0x7ffff7ff>
80000108:	3b029073          	csrw	pmpaddr0,t0
8000010c:	01f00293          	li	t0,31
80000110:	3a029073          	csrw	pmpcfg0,t0
80000114:	30405073          	csrwi	mie,0
80000118:	00000297          	auipc	t0,0x0
8000011c:	01428293          	addi	t0,t0,20 # 8000012c <reset_vector+0xdc>
80000120:	30529073          	csrw	mtvec,t0
80000124:	30205073          	csrwi	medeleg,0
80000128:	30305073          	csrwi	mideleg,0
8000012c:	00000193          	li	gp,0
80000130:	00000297          	auipc	t0,0x0
80000134:	ed428293          	addi	t0,t0,-300 # 80000004 <trap_vector>
80000138:	30529073          	csrw	mtvec,t0
8000013c:	00100513          	li	a0,1
80000140:	01f51513          	slli	a0,a0,0x1f
80000144:	00054c63          	bltz	a0,8000015c <reset_vector+0x10c>
80000148:	0ff0000f          	fence
8000014c:	00100193          	li	gp,1
80000150:	05d00893          	li	a7,93
80000154:	00000513          	li	a0,0
80000158:	00000073          	ecall
8000015c:	00000293          	li	t0,0
80000160:	00028a63          	beqz	t0,80000174 <reset_vector+0x124>
80000164:	10529073          	csrw	stvec,t0
80000168:	0000b2b7          	lui	t0,0xb
8000016c:	10928293          	addi	t0,t0,265 # b109 <__stack_size+0xa909>
80000170:	30229073          	csrw	medeleg,t0
80000174:	30005073          	csrwi	mstatus,0
80000178:	00000297          	auipc	t0,0x0
8000017c:	01428293          	addi	t0,t0,20 # 8000018c <test_2>
80000180:	34129073          	csrw	mepc,t0
80000184:	f1402573          	csrr	a0,mhartid
80000188:	30200073          	mret
8000018c:	00200193          	li	gp,2
80000190:	00000593          	li	a1,0
80000194:	00000613          	li	a2,0
80000198:	00c5b733          	sltu	a4,a1,a2
8000019c:	00000393          	li	t2,0
800001a0:	4a771a63          	bne	a4,t2,80000654 <fail>
800001a4:	00300193          	li	gp,3
800001a8:	00100593          	li	a1,1
800001ac:	00100613          	li	a2,1
800001b0:	00c5b733          	sltu	a4,a1,a2
800001b4:	00000393          	li	t2,0
800001b8:	48771e63          	bne	a4,t2,80000654 <fail>
800001bc:	00400193          	li	gp,4
800001c0:	00300593          	li	a1,3
800001c4:	00700613          	li	a2,7
800001c8:	00c5b733          	sltu	a4,a1,a2
800001cc:	00100393          	li	t2,1
800001d0:	48771263          	bne	a4,t2,80000654 <fail>
800001d4:	00500193          	li	gp,5
800001d8:	00700593          	li	a1,7
800001dc:	00300613          	li	a2,3
800001e0:	00c5b733          	sltu	a4,a1,a2
800001e4:	00000393          	li	t2,0
800001e8:	46771663          	bne	a4,t2,80000654 <fail>
800001ec:	00600193          	li	gp,6
800001f0:	00000593          	li	a1,0
800001f4:	ffff8637          	lui	a2,0xffff8
800001f8:	00c5b733          	sltu	a4,a1,a2
800001fc:	00100393          	li	t2,1
80000200:	44771a63          	bne	a4,t2,80000654 <fail>
80000204:	00700193          	li	gp,7
80000208:	800005b7          	lui	a1,0x80000
8000020c:	00000613          	li	a2,0
80000210:	00c5b733          	sltu	a4,a1,a2
80000214:	00000393          	li	t2,0
80000218:	42771e63          	bne	a4,t2,80000654 <fail>
8000021c:	00800193          	li	gp,8
80000220:	800005b7          	lui	a1,0x80000
80000224:	ffff8637          	lui	a2,0xffff8
80000228:	00c5b733          	sltu	a4,a1,a2
8000022c:	00100393          	li	t2,1
80000230:	42771263          	bne	a4,t2,80000654 <fail>
80000234:	00900193          	li	gp,9
80000238:	00000593          	li	a1,0
8000023c:	00008637          	lui	a2,0x8
80000240:	fff60613          	addi	a2,a2,-1 # 7fff <__stack_size+0x77ff>
80000244:	00c5b733          	sltu	a4,a1,a2
80000248:	00100393          	li	t2,1
8000024c:	40771463          	bne	a4,t2,80000654 <fail>
80000250:	00a00193          	li	gp,10
80000254:	800005b7          	lui	a1,0x80000
80000258:	fff58593          	addi	a1,a1,-1 # 7fffffff <__stack_size+0x7ffff7ff>
8000025c:	00000613          	li	a2,0
80000260:	00c5b733          	sltu	a4,a1,a2
80000264:	00000393          	li	t2,0
80000268:	3e771663          	bne	a4,t2,80000654 <fail>
8000026c:	00b00193          	li	gp,11
80000270:	800005b7          	lui	a1,0x80000
80000274:	fff58593          	addi	a1,a1,-1 # 7fffffff <__stack_size+0x7ffff7ff>
80000278:	00008637          	lui	a2,0x8
8000027c:	fff60613          	addi	a2,a2,-1 # 7fff <__stack_size+0x77ff>
80000280:	00c5b733          	sltu	a4,a1,a2
80000284:	00000393          	li	t2,0
80000288:	3c771663          	bne	a4,t2,80000654 <fail>
8000028c:	00c00193          	li	gp,12
80000290:	800005b7          	lui	a1,0x80000
80000294:	00008637          	lui	a2,0x8
80000298:	fff60613          	addi	a2,a2,-1 # 7fff <__stack_size+0x77ff>
8000029c:	00c5b733          	sltu	a4,a1,a2
800002a0:	00000393          	li	t2,0
800002a4:	3a771863          	bne	a4,t2,80000654 <fail>
800002a8:	00d00193          	li	gp,13
800002ac:	800005b7          	lui	a1,0x80000
800002b0:	fff58593          	addi	a1,a1,-1 # 7fffffff <__stack_size+0x7ffff7ff>
800002b4:	ffff8637          	lui	a2,0xffff8
800002b8:	00c5b733          	sltu	a4,a1,a2
800002bc:	00100393          	li	t2,1
800002c0:	38771a63          	bne	a4,t2,80000654 <fail>
800002c4:	00e00193          	li	gp,14
800002c8:	00000593          	li	a1,0
800002cc:	fff00613          	li	a2,-1
800002d0:	00c5b733          	sltu	a4,a1,a2
800002d4:	00100393          	li	t2,1
800002d8:	36771e63          	bne	a4,t2,80000654 <fail>
800002dc:	00f00193          	li	gp,15
800002e0:	fff00593          	li	a1,-1
800002e4:	00100613          	li	a2,1
800002e8:	00c5b733          	sltu	a4,a1,a2
800002ec:	00000393          	li	t2,0
800002f0:	36771263          	bne	a4,t2,80000654 <fail>
800002f4:	01000193          	li	gp,16
800002f8:	fff00593          	li	a1,-1
800002fc:	fff00613          	li	a2,-1
80000300:	00c5b733          	sltu	a4,a1,a2
80000304:	00000393          	li	t2,0
80000308:	34771663          	bne	a4,t2,80000654 <fail>
8000030c:	01100193          	li	gp,17
80000310:	00e00593          	li	a1,14
80000314:	00d00613          	li	a2,13
80000318:	00c5b5b3          	sltu	a1,a1,a2
8000031c:	00000393          	li	t2,0
80000320:	32759a63          	bne	a1,t2,80000654 <fail>
80000324:	01200193          	li	gp,18
80000328:	00b00593          	li	a1,11
8000032c:	00d00613          	li	a2,13
80000330:	00c5b633          	sltu	a2,a1,a2
80000334:	00100393          	li	t2,1
80000338:	30761e63          	bne	a2,t2,80000654 <fail>
8000033c:	01300193          	li	gp,19
80000340:	00d00593          	li	a1,13
80000344:	00b5b5b3          	sltu	a1,a1,a1
80000348:	00000393          	li	t2,0
8000034c:	30759463          	bne	a1,t2,80000654 <fail>
80000350:	01400193          	li	gp,20
80000354:	00000213          	li	tp,0
80000358:	00b00093          	li	ra,11
8000035c:	00d00113          	li	sp,13
80000360:	0020b733          	sltu	a4,ra,sp
80000364:	00070313          	mv	t1,a4
80000368:	00120213          	addi	tp,tp,1 # 1 <__heap_size-0x1ff>
8000036c:	00200293          	li	t0,2
80000370:	fe5214e3          	bne	tp,t0,80000358 <test_20+0x8>
80000374:	00100393          	li	t2,1
80000378:	2c731e63          	bne	t1,t2,80000654 <fail>
8000037c:	01500193          	li	gp,21
80000380:	00000213          	li	tp,0
80000384:	00e00093          	li	ra,14
80000388:	00d00113          	li	sp,13
8000038c:	0020b733          	sltu	a4,ra,sp
80000390:	00000013          	nop
80000394:	00070313          	mv	t1,a4
80000398:	00120213          	addi	tp,tp,1 # 1 <__heap_size-0x1ff>
8000039c:	00200293          	li	t0,2
800003a0:	fe5212e3          	bne	tp,t0,80000384 <test_21+0x8>
800003a4:	00000393          	li	t2,0
800003a8:	2a731663          	bne	t1,t2,80000654 <fail>
800003ac:	01600193          	li	gp,22
800003b0:	00000213          	li	tp,0
800003b4:	00c00093          	li	ra,12
800003b8:	00d00113          	li	sp,13
800003bc:	0020b733          	sltu	a4,ra,sp
800003c0:	00000013          	nop
800003c4:	00000013          	nop
800003c8:	00070313          	mv	t1,a4
800003cc:	00120213          	addi	tp,tp,1 # 1 <__heap_size-0x1ff>
800003d0:	00200293          	li	t0,2
800003d4:	fe5210e3          	bne	tp,t0,800003b4 <test_22+0x8>
800003d8:	00100393          	li	t2,1
800003dc:	26731c63          	bne	t1,t2,80000654 <fail>
800003e0:	01700193          	li	gp,23
800003e4:	00000213          	li	tp,0
800003e8:	00e00093          	li	ra,14
800003ec:	00d00113          	li	sp,13
800003f0:	0020b733          	sltu	a4,ra,sp
800003f4:	00120213          	addi	tp,tp,1 # 1 <__heap_size-0x1ff>
800003f8:	00200293          	li	t0,2
800003fc:	fe5216e3          	bne	tp,t0,800003e8 <test_23+0x8>
80000400:	00000393          	li	t2,0
80000404:	24771863          	bne	a4,t2,80000654 <fail>
80000408:	01800193          	li	gp,24
8000040c:	00000213          	li	tp,0
80000410:	00b00093          	li	ra,11
80000414:	00d00113          	li	sp,13
80000418:	00000013          	nop
8000041c:	0020b733          	sltu	a4,ra,sp
80000420:	00120213          	addi	tp,tp,1 # 1 <__heap_size-0x1ff>
80000424:	00200293          	li	t0,2
80000428:	fe5214e3          	bne	tp,t0,80000410 <test_24+0x8>
8000042c:	00100393          	li	t2,1
80000430:	22771263          	bne	a4,t2,80000654 <fail>
80000434:	01900193          	li	gp,25
80000438:	00000213          	li	tp,0
8000043c:	00f00093          	li	ra,15
80000440:	00d00113          	li	sp,13
80000444:	00000013          	nop
80000448:	00000013          	nop
8000044c:	0020b733          	sltu	a4,ra,sp
80000450:	00120213          	addi	tp,tp,1 # 1 <__heap_size-0x1ff>
80000454:	00200293          	li	t0,2
80000458:	fe5212e3          	bne	tp,t0,8000043c <test_25+0x8>
8000045c:	00000393          	li	t2,0
80000460:	1e771a63          	bne	a4,t2,80000654 <fail>
80000464:	01a00193          	li	gp,26
80000468:	00000213          	li	tp,0
8000046c:	00a00093          	li	ra,10
80000470:	00000013          	nop
80000474:	00d00113          	li	sp,13
80000478:	0020b733          	sltu	a4,ra,sp
8000047c:	00120213          	addi	tp,tp,1 # 1 <__heap_size-0x1ff>
80000480:	00200293          	li	t0,2
80000484:	fe5214e3          	bne	tp,t0,8000046c <test_26+0x8>
80000488:	00100393          	li	t2,1
8000048c:	1c771463          	bne	a4,t2,80000654 <fail>
80000490:	01b00193          	li	gp,27
80000494:	00000213          	li	tp,0
80000498:	01000093          	li	ra,16
8000049c:	00000013          	nop
800004a0:	00d00113          	li	sp,13
800004a4:	00000013          	nop
800004a8:	0020b733          	sltu	a4,ra,sp
800004ac:	00120213          	addi	tp,tp,1 # 1 <__heap_size-0x1ff>
800004b0:	00200293          	li	t0,2
800004b4:	fe5212e3          	bne	tp,t0,80000498 <test_27+0x8>
800004b8:	00000393          	li	t2,0
800004bc:	18771c63          	bne	a4,t2,80000654 <fail>
800004c0:	01c00193          	li	gp,28
800004c4:	00000213          	li	tp,0
800004c8:	00900093          	li	ra,9
800004cc:	00000013          	nop
800004d0:	00000013          	nop
800004d4:	00d00113          	li	sp,13
800004d8:	0020b733          	sltu	a4,ra,sp
800004dc:	00120213          	addi	tp,tp,1 # 1 <__heap_size-0x1ff>
800004e0:	00200293          	li	t0,2
800004e4:	fe5212e3          	bne	tp,t0,800004c8 <test_28+0x8>
800004e8:	00100393          	li	t2,1
800004ec:	16771463          	bne	a4,t2,80000654 <fail>
800004f0:	01d00193          	li	gp,29
800004f4:	00000213          	li	tp,0
800004f8:	00d00113          	li	sp,13
800004fc:	01100093          	li	ra,17
80000500:	0020b733          	sltu	a4,ra,sp
80000504:	00120213          	addi	tp,tp,1 # 1 <__heap_size-0x1ff>
80000508:	00200293          	li	t0,2
8000050c:	fe5216e3          	bne	tp,t0,800004f8 <test_29+0x8>
80000510:	00000393          	li	t2,0
80000514:	14771063          	bne	a4,t2,80000654 <fail>
80000518:	01e00193          	li	gp,30
8000051c:	00000213          	li	tp,0
80000520:	00d00113          	li	sp,13
80000524:	00800093          	li	ra,8
80000528:	00000013          	nop
8000052c:	0020b733          	sltu	a4,ra,sp
80000530:	00120213          	addi	tp,tp,1 # 1 <__heap_size-0x1ff>
80000534:	00200293          	li	t0,2
80000538:	fe5214e3          	bne	tp,t0,80000520 <test_30+0x8>
8000053c:	00100393          	li	t2,1
80000540:	10771a63          	bne	a4,t2,80000654 <fail>
80000544:	01f00193          	li	gp,31
80000548:	00000213          	li	tp,0
8000054c:	00d00113          	li	sp,13
80000550:	01200093          	li	ra,18
80000554:	00000013          	nop
80000558:	00000013          	nop
8000055c:	0020b733          	sltu	a4,ra,sp
80000560:	00120213          	addi	tp,tp,1 # 1 <__heap_size-0x1ff>
80000564:	00200293          	li	t0,2
80000568:	fe5212e3          	bne	tp,t0,8000054c <test_31+0x8>
8000056c:	00000393          	li	t2,0
80000570:	0e771263          	bne	a4,t2,80000654 <fail>
80000574:	02000193          	li	gp,32
80000578:	00000213          	li	tp,0
8000057c:	00d00113          	li	sp,13
80000580:	00000013          	nop
80000584:	00700093          	li	ra,7
80000588:	0020b733          	sltu	a4,ra,sp
8000058c:	00120213          	addi	tp,tp,1 # 1 <__heap_size-0x1ff>
80000590:	00200293          	li	t0,2
80000594:	fe5214e3          	bne	tp,t0,8000057c <test_32+0x8>
80000598:	00100393          	li	t2,1
8000059c:	0a771c63          	bne	a4,t2,80000654 <fail>
800005a0:	02100193          	li	gp,33
800005a4:	00000213          	li	tp,0
800005a8:	00d00113          	li	sp,13
800005ac:	00000013          	nop
800005b0:	01300093          	li	ra,19
800005b4:	00000013          	nop
800005b8:	0020b733          	sltu	a4,ra,sp
800005bc:	00120213          	addi	tp,tp,1 # 1 <__heap_size-0x1ff>
800005c0:	00200293          	li	t0,2
800005c4:	fe5212e3          	bne	tp,t0,800005a8 <test_33+0x8>
800005c8:	00000393          	li	t2,0
800005cc:	08771463          	bne	a4,t2,80000654 <fail>
800005d0:	02200193          	li	gp,34
800005d4:	00000213          	li	tp,0
800005d8:	00d00113          	li	sp,13
800005dc:	00000013          	nop
800005e0:	00000013          	nop
800005e4:	00600093          	li	ra,6
800005e8:	0020b733          	sltu	a4,ra,sp
800005ec:	00120213          	addi	tp,tp,1 # 1 <__heap_size-0x1ff>
800005f0:	00200293          	li	t0,2
800005f4:	fe5212e3          	bne	tp,t0,800005d8 <test_34+0x8>
800005f8:	00100393          	li	t2,1
800005fc:	04771c63          	bne	a4,t2,80000654 <fail>
80000600:	02300193          	li	gp,35
80000604:	fff00093          	li	ra,-1
80000608:	00103133          	snez	sp,ra
8000060c:	00100393          	li	t2,1
80000610:	04711263          	bne	sp,t2,80000654 <fail>
80000614:	02400193          	li	gp,36
80000618:	fff00093          	li	ra,-1
8000061c:	0000b133          	sltu	sp,ra,zero
80000620:	00000393          	li	t2,0
80000624:	02711863          	bne	sp,t2,80000654 <fail>
80000628:	02500193          	li	gp,37
8000062c:	000030b3          	snez	ra,zero
80000630:	00000393          	li	t2,0
80000634:	02709063          	bne	ra,t2,80000654 <fail>
80000638:	02600193          	li	gp,38
8000063c:	01000093          	li	ra,16
80000640:	01e00113          	li	sp,30
80000644:	0020b033          	sltu	zero,ra,sp
80000648:	00000393          	li	t2,0
8000064c:	00701463          	bne	zero,t2,80000654 <fail>
80000650:	02301063          	bne	zero,gp,80000670 <pass>
80000654:	0ff0000f          	fence
80000658:	00018063          	beqz	gp,80000658 <fail+0x4>
8000065c:	00119193          	slli	gp,gp,0x1
80000660:	0011e193          	ori	gp,gp,1
80000664:	05d00893          	li	a7,93
80000668:	00018513          	mv	a0,gp
8000066c:	00000073          	ecall
80000670:	0ff0000f          	fence
80000674:	00100193          	li	gp,1
80000678:	05d00893          	li	a7,93
8000067c:	00000513          	li	a0,0
80000680:	00000073          	ecall
80000684:	c0001073          	unimp
80000688:	0000                	.insn	2, 0x
8000068a:	0000                	.insn	2, 0x
8000068c:	0000                	.insn	2, 0x
8000068e:	0000                	.insn	2, 0x
80000690:	0000                	.insn	2, 0x
80000692:	0000                	.insn	2, 0x
80000694:	0000                	.insn	2, 0x
80000696:	0000                	.insn	2, 0x
80000698:	0000                	.insn	2, 0x
8000069a:	0000                	.insn	2, 0x
8000069c:	0000                	.insn	2, 0x
8000069e:	0000                	.insn	2, 0x
800006a0:	0000                	.insn	2, 0x
800006a2:	0000                	.insn	2, 0x
800006a4:	0000                	.insn	2, 0x
800006a6:	0000                	.insn	2, 0x
800006a8:	0000                	.insn	2, 0x
800006aa:	0000                	.insn	2, 0x
800006ac:	0000                	.insn	2, 0x
800006ae:	0000                	.insn	2, 0x
800006b0:	0000                	.insn	2, 0x
800006b2:	0000                	.insn	2, 0x
800006b4:	0000                	.insn	2, 0x
800006b6:	0000                	.insn	2, 0x
800006b8:	0000                	.insn	2, 0x
800006ba:	0000                	.insn	2, 0x
80000000:	0500006f          	j	80000050 <reset_vector>
80000004:	34202f73          	csrr	t5,mcause
80000008:	00800f93          	li	t6,8
8000000c:	03ff0863          	beq	t5,t6,8000003c <write_tohost>
80000010:	00900f93          	li	t6,9
80000014:	03ff0463          	beq	t5,t6,8000003c <write_tohost>
80000018:	00b00f93          	li	t6,11
8000001c:	03ff0063          	beq	t5,t6,8000003c <write_tohost>
80000020:	00000f13          	li	t5,0
80000024:	000f0463          	beqz	t5,8000002c <trap_vector+0x28>
80000028:	000f0067          	jr	t5
8000002c:	34202f73          	csrr	t5,mcause
80000030:	000f5463          	bgez	t5,80000038 <handle_exception>
80000034:	0040006f          	j	80000038 <handle_exception>
80000038:	5391e193          	ori	gp,gp,1337
8000003c:	20000f17          	auipc	t5,0x20000
80000040:	fc3f2223          	sw	gp,-60(t5) # a0000000 <tohost>
80000044:	20000f17          	auipc	t5,0x20000
80000048:	fc0f2023          	sw	zero,-64(t5) # a0000004 <tohost+0x4>
8000004c:	ff1ff06f          	j	8000003c <write_tohost>
80000050:	00000093          	li	ra,0
80000054:	00000113          	li	sp,0
80000058:	00000193          	li	gp,0
8000005c:	00000213          	li	tp,0
80000060:	00000293          	li	t0,0
80000064:	00000313          	li	t1,0
80000068:	00000393          	li	t2,0
8000006c:	00000413          	li	s0,0
80000070:	00000493          	li	s1,0
80000074:	00000513          	li	a0,0
80000078:	00000593          	li	a1,0
8000007c:	00000613          	li	a2,0
80000080:	00000693          	li	a3,0
80000084:	00000713          	li	a4,0
80000088:	00000793          	li	a5,0
8000008c:	00000813          	li	a6,0
80000090:	00000893          	li	a7,0
80000094:	00000913          	li	s2,0
80000098:	00000993          	li	s3,0
8000009c:	00000a13          	li	s4,0
800000a0:	00000a93          	li	s5,0
800000a4:	00000b13          	li	s6,0
800000a8:	00000b93          	li	s7,0
800000ac:	00000c13          	li	s8,0
800000b0:	00000c93          	li	s9,0
800000b4:	00000d13          	li	s10,0
800000b8:	00000d93          	li	s11,0
800000bc:	00000e13          	li	t3,0
800000c0:	00000e93          	li	t4,0
800000c4:	00000f13          	li	t5,0
800000c8:	00000f93          	li	t6,0
800000cc:	f1402573          	csrr	a0,mhartid
800000d0:	00051063          	bnez	a0,800000d0 <reset_vector+0x80>
800000d4:	00000297          	auipc	t0,0x0
800000d8:	01028293          	addi	t0,t0,16 # 800000e4 <reset_vector+0x94>
800000dc:	30529073          	csrw	mtvec,t0
800000e0:	74445073          	csrwi	0x744,8
800000e4:	00000297          	auipc	t0,0x0
800000e8:	01028293          	addi	t0,t0,16 # 800000f4 <reset_vector+0xa4>
800000ec:	30529073          	csrw	mtvec,t0
800000f0:	18005073          	csrwi	satp,0
800000f4:	00000297          	auipc	t0,0x0
800000f8:	02028293          	addi	t0,t0,32 # 80000114 <reset_vector+0xc4>
800000fc:	30529073          	csrw	mtvec,t0
80000100:	800002b7          	lui	t0,0x80000
80000104:	fff28293          	addi	t0,t0,-1 # 7fffffff <__stack_size+0x7ffff7ff>
80000108:	3b029073          	csrw	pmpaddr0,t0
8000010c:	01f00293          	li	t0,31
80000110:	3a029073          	csrw	pmpcfg0,t0
80000114:	30405073          	csrwi	mie,0
80000118:	00000297          	auipc	t0,0x0
8000011c:	01428293          	addi	t0,t0,20 # 8000012c <reset_vector+0xdc>
80000120:	30529073          	csrw	mtvec,t0
80000124:	30205073          	csrwi	medeleg,0
80000128:	30305073          	csrwi	mideleg,0
8000012c:	00000193          	li	gp,0
80000130:	00000297          	auipc	t0,0x0
80000134:	ed428293          	addi	t0,t0,-300 # 80000004 <trap_vector>
80000138:	30529073          	csrw	mtvec,t0
8000013c:	00100513          	li	a0,1
80000140:	01f51513          	slli	a0,a0,0x1f
80000144:	00054c63          	bltz	a0,8000015c <reset_vector+0x10c>
80000148:	0ff0000f          	fence
8000014c:	00100193          	li	gp,1
80000150:	05d00893          	li	a7,93
80000154:	00000513          	li	a0,0
80000158:	00000073          	ecall
8000015c:	00000293          	li	t0,0
80000160:	00028a63          	beqz	t0,80000174 <reset_vector+0x124>
80000164:	10529073          	csrw	stvec,t0
80000168:	0000b2b7          	lui	t0,0xb
8000016c:	10928293          	addi	t0,t0,265 # b109 <__stack_size+0xa909>
80000170:	30229073          	csrw	medeleg,t0
80000174:	30005073          	csrwi	mstatus,0
80000178:	00000297          	auipc	t0,0x0
8000017c:	01428293          	addi	t0,t0,20 # 8000018c <test_2>
80000180:	34129073          	csrw	mepc,t0
80000184:	f1402573          	csrr	a0,mhartid
80000188:	30200073          	mret
8000018c:	00200193          	li	gp,2
80000190:	ff0105b7          	lui	a1,0xff010
80000194:	f0058593          	addi	a1,a1,-256 # ff00ff00 <_end+0x5f00f4b8>
80000198:	0f0f1637          	lui	a2,0xf0f1
8000019c:	f0f60613          	addi	a2,a2,-241 # f0f0f0f <__stack_size+0xf0f070f>
800001a0:	00c5e733          	or	a4,a1,a2
800001a4:	ff1003b7          	lui	t2,0xff100
800001a8:	f0f38393          	addi	t2,t2,-241 # ff0fff0f <_end+0x5f0ff4c7>
800001ac:	4a771263          	bne	a4,t2,80000650 <fail>
800001b0:	00300193          	li	gp,3
800001b4:	0ff015b7          	lui	a1,0xff01
800001b8:	ff058593          	addi	a1,a1,-16 # ff00ff0 <__stack_size+0xff007f0>
800001bc:	f0f0f637          	lui	a2,0xf0f0f
800001c0:	0f060613          	addi	a2,a2,240 # f0f0f0f0 <_end+0x50f0e6a8>
800001c4:	00c5e733          	or	a4,a1,a2
800001c8:	fff103b7          	lui	t2,0xfff10
800001cc:	ff038393          	addi	t2,t2,-16 # fff0fff0 <_end+0x5ff0f5a8>
800001d0:	48771063          	bne	a4,t2,80000650 <fail>
800001d4:	00400193          	li	gp,4
800001d8:	00ff05b7          	lui	a1,0xff0
800001dc:	0ff58593          	addi	a1,a1,255 # ff00ff <__stack_size+0xfef8ff>
800001e0:	0f0f1637          	lui	a2,0xf0f1
800001e4:	f0f60613          	addi	a2,a2,-241 # f0f0f0f <__stack_size+0xf0f070f>
800001e8:	00c5e733          	or	a4,a1,a2
800001ec:	0fff13b7          	lui	t2,0xfff1
800001f0:	fff38393          	addi	t2,t2,-1 # fff0fff <__stack_size+0xfff07ff>
800001f4:	44771e63          	bne	a4,t2,80000650 <fail>
800001f8:	00500193          	li	gp,5
800001fc:	f00ff5b7          	lui	a1,0xf00ff
80000200:	00f58593          	addi	a1,a1,15 # f00ff00f <_end+0x500fe5c7>
80000204:	f0f0f637          	lui	a2,0xf0f0f
80000208:	0f060613          	addi	a2,a2,240 # f0f0f0f0 <_end+0x50f0e6a8>
8000020c:	00c5e733          	or	a4,a1,a2
80000210:	f0fff3b7          	lui	t2,0xf0fff
80000214:	0ff38393          	addi	t2,t2,255 # f0fff0ff <_end+0x50ffe6b7>
80000218:	42771c63          	bne	a4,t2,80000650 <fail>
8000021c:	00600193          	li	gp,6
80000220:	ff0105b7          	lui	a1,0xff010
80000224:	f0058593          	addi	a1,a1,-256 # ff00ff00 <_end+0x5f00f4b8>
80000228:	0f0f1637          	lui	a2,0xf0f1
8000022c:	f0f60613          	addi	a2,a2,-241 # f0f0f0f <__stack_size+0xf0f070f>
80000230:	00c5e5b3          	or	a1,a1,a2
80000234:	ff1003b7          	lui	t2,0xff100
80000238:	f0f38393          	addi	t2,t2,-241 # ff0fff0f <_end+0x5f0ff4c7>
8000023c:	40759a63          	bne	a1,t2,80000650 <fail>
80000240:	00700193          	li	gp,7
80000244:	ff0105b7          	lui	a1,0xff010
80000248:	f0058593          	addi	a1,a1,-256 # ff00ff00 <_end+0x5f00f4b8>
8000024c:	0f0f1637          	lui	a2,0xf0f1
80000250:	f0f60613          	addi	a2,a2,-241 # f0f0f0f <__stack_size+0xf0f070f>
80000254:	00c5e633          	or	a2,a1,a2
80000258:	ff1003b7          	lui	t2,0xff100
8000025c:	f0f38393          	addi	t2,t2,-241 # ff0fff0f <_end+0x5f0ff4c7>
80000260:	3e761863          	bne	a2,t2,80000650 <fail>
80000264:	00800193          	li	gp,8
80000268:	ff0105b7          	lui	a1,0xff010
8000026c:	f0058593          	addi	a1,a1,-256 # ff00ff00 <_end+0x5f00f4b8>
80000270:	00b5e5b3          	or	a1,a1,a1
80000274:	ff0103b7          	lui	t2,0xff010
80000278:	f0038393          	addi	t2,t2,-256 # ff00ff00 <_end+0x5f00f4b8>
8000027c:	3c759a63          	bne	a1,t2,80000650 <fail>
80000280:	00900193          	li	gp,9
80000284:	00000213          	li	tp,0
80000288:	ff0100b7          	lui	ra,0xff010
8000028c:	f0008093          	addi	ra,ra,-256 # ff00ff00 <_end+0x5f00f4b8>
80000290:	0f0f1137          	lui	sp,0xf0f1
80000294:	f0f10113          	addi	sp,sp,-241 # f0f0f0f <__stack_size+0xf0f070f>
80000298:	0020e733          	or	a4,ra,sp
8000029c:	00070313          	mv	t1,a4
800002a0:	00120213          	addi	tp,tp,1 # 1 <__heap_size-0x1ff>
800002a4:	00200293          	li	t0,2
800002a8:	fe5210e3          	bne	tp,t0,80000288 <test_9+0x8>
800002ac:	ff1003b7          	lui	t2,0xff100
800002b0:	f0f38393          	addi	t2,t2,-241 # ff0fff0f <_end+0x5f0ff4c7>
800002b4:	38731e63          	bne	t1,t2,80000650 <fail>
800002b8:	00a00193          	li	gp,10
800002bc:	00000213          	li	tp,0
800002c0:	0ff010b7          	lui	ra,0xff01
800002c4:	ff008093          	addi	ra,ra,-16 # ff00ff0 <__stack_size+0xff007f0>
800002c8:	f0f0f137          	lui	sp,0xf0f0f
800002cc:	0f010113          	addi	sp,sp,240 # f0f0f0f0 <_end+0x50f0e6a8>
800002d0:	0020e733          	or	a4,ra,sp
800002d4:	00000013          	nop
800002d8:	00070313          	mv	t1,a4
800002dc:	00120213          	addi	tp,tp,1 # 1 <__heap_size-0x1ff>
800002e0:	00200293          	li	t0,2
800002e4:	fc521ee3          	bne	tp,t0,800002c0 <test_10+0x8>
800002e8:	fff103b7          	lui	t2,0xfff10
800002ec:	ff038393          	addi	t2,t2,-16 # fff0fff0 <_end+0x5ff0f5a8>
800002f0:	36731063          	bne	t1,t2,80000650 <fail>
800002f4:	00b00193          	li	gp,11
800002f8:	00000213          	li	tp,0
800002fc:	00ff00b7          	lui	ra,0xff0
80000300:	0ff08093          	addi	ra,ra,255 # ff00ff <__stack_size+0xfef8ff>
80000304:	0f0f1137          	lui	sp,0xf0f1
80000308:	f0f10113          	addi	sp,sp,-241 # f0f0f0f <__stack_size+0xf0f070f>
8000030c:	0020e733          	or	a4,ra,sp
80000310:	00000013          	nop
80000314:	00000013          	nop
80000318:	00070313          	mv	t1,a4
8000031c:	00120213          	addi	tp,tp,1 # 1 <__heap_size-0x1ff>
80000320:	00200293          	li	t0,2
80000324:	fc521ce3          	bne	tp,t0,800002fc <test_11+0x8>
80000328:	0fff13b7          	lui	t2,0xfff1
8000032c:	fff38393          	addi	t2,t2,-1 # fff0fff <__stack_size+0xfff07ff>
80000330:	32731063          	bne	t1,t2,80000650 <fail>
80000334:	00c00193          	li	gp,12
80000338:	00000213          	li	tp,0
8000033c:	ff0100b7          	lui	ra,0xff010
80000340:	f0008093          	addi	ra,ra,-256 # ff00ff00 <_end+0x5f00f4b8>
80000344:	0f0f1137          	lui	sp,0xf0f1
80000348:	f0f10113          	addi	sp,sp,-241 # f0f0f0f <__stack_size+0xf0f070f>
8000034c:	0020e733          	or	a4,ra,sp
80000350:	00120213          	addi	tp,tp,1 # 1 <__heap_size-0x1ff>
80000354:	00200293          	li	t0,2
80000358:	fe5212e3          	bne	tp,t0,8000033c <test_12+0x8>
8000035c:	ff1003b7          	lui	t2,0xff100
80000360:	f0f38393          	addi	t2,t2,-241 # ff0fff0f <_end+0x5f0ff4c7>
80000364:	2e771663          	bne	a4,t2,80000650 <fail>
80000368:	00d00193          	li	gp,13
8000036c:	00000213          	li	tp,0
80000370:	0ff010b7          	lui	ra,0xff01
80000374:	ff008093          	addi	ra,ra,-16 # ff00ff0 <__stack_size+0xff007f0>
80000378:	f0f0f137          	lui	sp,0xf0f0f
8000037c:	0f010113          	addi	sp,sp,240 # f0f0f0f0 <_end+0x50f0e6a8>
80000380:	00000013          	nop
80000384:	0020e733          	or	a4,ra,sp
80000388:	00120213          	addi	tp,tp,1 # 1 <__heap_size-0x1ff>
8000038c:	00200293          	li	t0,2
80000390:	fe5210e3          	bne	tp,t0,80000370 <test_13+0x8>
80000394:	fff103b7          	lui	t2,0xfff10
80000398:	ff038393          	addi	t2,t2,-16 # fff0fff0 <_end+0x5ff0f5a8>
8000039c:	2a771a63          	bne	a4,t2,80000650 <fail>
800003a0:	00e00193          	li	gp,14
800003a4:	00000213          	li	tp,0
800003a8:	00ff00b7          	lui	ra,0xff0
800003ac:	0ff08093          	addi	ra,ra,255 # ff00ff <__stack_size+0xfef8ff>
800003b0:	0f0f1137          	lui	sp,0xf0f1
800003b4:	f0f10113          	addi	sp,sp,-241 # f0f0f0f <__stack_size+0xf0f070f>
800003b8:	00000013          	nop
800003bc:	00000013          	nop
800003c0:	0020e733          	or	a4,ra,sp
800003c4:	00120213          	addi	tp,tp,1 # 1 <__heap_size-0x1ff>
800003c8:	00200293          	li	t0,2
800003cc:	fc521ee3          	bne	tp,t0,800003a8 <test_14+0x8>
800003d0:	0fff13b7          	lui	t2,0xfff1
800003d4:	fff38393          	addi	t2,t2,-1 # fff0fff <__stack_size+0xfff07ff>
800003d8:	26771c63          	bne	a4,t2,80000650 <fail>
800003dc:	00f00193          	li	gp,15
800003e0:	00000213          	li	tp,0
800003e4:	ff0100b7          	lui	ra,0xff010
800003e8:	f0008093          	addi	ra,ra,-256 # ff00ff00 <_end+0x5f00f4b8>
800003ec:	00000013          	nop
800003f0:	0f0f1137          	lui	sp,0xf0f1
800003f4:	f0f10113          	addi	sp,sp,-241 # f0f0f0f <__stack_size+0xf0f070f>
800003f8:	0020e733          	or	a4,ra,sp
800003fc:	00120213          	addi	tp,tp,1 # 1 <__heap_size-0x1ff>
80000400:	00200293          	li	t0,2
80000404:	fe5210e3          	bne	tp,t0,800003e4 <test_15+0x8>
80000408:	ff1003b7          	lui	t2,0xff100
8000040c:	f0f38393          	addi	t2,t2,-241 # ff0fff0f <_end+0x5f0ff4c7>
80000410:	24771063          	bne	a4,t2,80000650 <fail>
80000414:	01000193          	li	gp,16
80000418:	00000213          	li	tp,0
8000041c:	0ff010b7          	lui	ra,0xff01
80000420:	ff008093          	addi	ra,ra,-16 # ff00ff0 <__stack_size+0xff007f0>
80000424:	00000013          	nop
80000428:	f0f0f137          	lui	sp,0xf0f0f
8000042c:	0f010113          	addi	sp,sp,240 # f0f0f0f0 <_end+0x50f0e6a8>
80000430:	00000013          	nop
80000434:	0020e733          	or	a4,ra,sp
80000438:	00120213          	addi	tp,tp,1 # 1 <__heap_size-0x1ff>
8000043c:	00200293          	li	t0,2
80000440:	fc521ee3          	bne	tp,t0,8000041c <test_16+0x8>
80000444:	fff103b7          	lui	t2,0xfff10
80000448:	ff038393          	addi	t2,t2,-16 # fff0fff0 <_end+0x5ff0f5a8>
8000044c:	20771263          	bne	a4,t2,80000650 <fail>
80000450:	01100193          	li	gp,17
80000454:	00000213          	li	tp,0
80000458:	00ff00b7          	lui	ra,0xff0
8000045c:	0ff08093          	addi	ra,ra,255 # ff00ff <__stack_size+0xfef8ff>
80000460:	00000013          	nop
80000464:	00000013          	nop
80000468:	0f0f1137          	lui	sp,0xf0f1
8000046c:	f0f10113          	addi	sp,sp,-241 # f0f0f0f <__stack_size+0xf0f070f>
80000470:	0020e733          	or	a4,ra,sp
80000474:	00120213          	addi	tp,tp,1 # 1 <__heap_size-0x1ff>
80000478:	00200293          	li	t0,2
8000047c:	fc521ee3          	bne	tp,t0,80000458 <test_17+0x8>
80000480:	0fff13b7          	lui	t2,0xfff1
80000484:	fff38393          	addi	t2,t2,-1 # fff0fff <__stack_size+0xfff07ff>
80000488:	1c771463          	bne	a4,t2,80000650 <fail>
8000048c:	01200193          	li	gp,18
80000490:	00000213          	li	tp,0
80000494:	0f0f1137          	lui	sp,0xf0f1
80000498:	f0f10113          	addi	sp,sp,-241 # f0f0f0f <__stack_size+0xf0f070f>
8000049c:	ff0100b7          	lui	ra,0xff010
800004a0:	f0008093          	addi	ra,ra,-256 # ff00ff00 <_end+0x5f00f4b8>
800004a4:	0020e733          	or	a4,ra,sp
800004a8:	00120213          	addi	tp,tp,1 # 1 <__heap_size-0x1ff>
800004ac:	00200293          	li	t0,2
800004b0:	fe5212e3          	bne	tp,t0,80000494 <test_18+0x8>
800004b4:	ff1003b7          	lui	t2,0xff100
800004b8:	f0f38393          	addi	t2,t2,-241 # ff0fff0f <_end+0x5f0ff4c7>
800004bc:	18771a63          	bne	a4,t2,80000650 <fail>
800004c0:	01300193          	li	gp,19
800004c4:	00000213          	li	tp,0
800004c8:	f0f0f137          	lui	sp,0xf0f0f
800004cc:	0f010113          	addi	sp,sp,240 # f0f0f0f0 <_end+0x50f0e6a8>
800004d0:	0ff010b7          	lui	ra,0xff01
800004d4:	ff008093          	addi	ra,ra,-16 # ff00ff0 <__stack_size+0xff007f0>
800004d8:	00000013          	nop
800004dc:	0020e733          	or	a4,ra,sp
800004e0:	00120213          	addi	tp,tp,1 # 1 <__heap_size-0x1ff>
800004e4:	00200293          	li	t0,2
800004e8:	fe5210e3          	bne	tp,t0,800004c8 <test_19+0x8>
800004ec:	fff103b7          	lui	t2,0xfff10
800004f0:	ff038393          	addi	t2,t2,-16 # fff0fff0 <_end+0x5ff0f5a8>
800004f4:	14771e63          	bne	a4,t2,80000650 <fail>
800004f8:	01400193          	li	gp,20
800004fc:	00000213          	li	tp,0
80000500:	0f0f1137          	lui	sp,0xf0f1
80000504:	f0f10113          	addi	sp,sp,-241 # f0f0f0f <__stack_size+0xf0f070f>
80000508:	00ff00b7          	lui	ra,0xff0
8000050c:	0ff08093          	addi	ra,ra,255 # ff00ff <__stack_size+0xfef8ff>
80000510:	00000013          	nop
80000514:	00000013          	nop
80000518:	0020e733          	or	a4,ra,sp
8000051c:	00120213          	addi	tp,tp,1 # 1 <__heap_size-0x1ff>
80000520:	00200293          	li	t0,2
80000524:	fc521ee3          	bne	tp,t0,80000500 <test_20+0x8>
80000528:	0fff13b7          	lui	t2,0xfff1
8000052c:	fff38393          	addi	t2,t2,-1 # fff0fff <__stack_size+0xfff07ff>
80000530:	12771063          	bne	a4,t2,80000650 <fail>
80000534:	01500193          	li	gp,21
80000538:	00000213          	li	tp,0
8000053c:	0f0f1137          	lui	sp,0xf0f1
80000540:	f0f10113          	addi	sp,sp,-241 # f0f0f0f <__stack_size+0xf0f070f>
80000544:	00000013          	nop
80000548:	ff0100b7          	lui	ra,0xff010
8000054c:	f0008093          	addi	ra,ra,-256 # ff00ff00 <_end+0x5f00f4b8>
80000550:	0020e733          	or	a4,ra,sp
80000554:	00120213          	addi	tp,tp,1 # 1 <__heap_size-0x1ff>
80000558:	00200293          	li	t0,2
8000055c:	fe5210e3          	bne	tp,t0,8000053c <test_21+0x8>
80000560:	ff1003b7          	lui	t2,0xff100
80000564:	f0f38393          	addi	t2,t2,-241 # ff0fff0f <_end+0x5f0ff4c7>
80000568:	0e771463          	bne	a4,t2,80000650 <fail>
8000056c:	01600193          	li	gp,22
80000570:	00000213          	li	tp,0
80000574:	f0f0f137          	lui	sp,0xf0f0f
80000578:	0f010113          	addi	sp,sp,240 # f0f0f0f0 <_end+0x50f0e6a8>
8000057c:	00000013          	nop
80000580:	0ff010b7          	lui	ra,0xff01
80000584:	ff008093          	addi	ra,ra,-16 # ff00ff0 <__stack_size+0xff007f0>
80000588:	00000013          	nop
8000058c:	0020e733          	or	a4,ra,sp
80000590:	00120213          	addi	tp,tp,1 # 1 <__heap_size-0x1ff>
80000594:	00200293          	li	t0,2
80000598:	fc521ee3          	bne	tp,t0,80000574 <test_22+0x8>
8000059c:	fff103b7          	lui	t2,0xfff10
800005a0:	ff038393          	addi	t2,t2,-16 # fff0fff0 <_end+0x5ff0f5a8>
800005a4:	0a771663          	bne	a4,t2,80000650 <fail>
800005a8:	01700193          	li	gp,23
800005ac:	00000213          	li	tp,0
800005b0:	0f0f1137          	lui	sp,0xf0f1
800005b4:	f0f10113          	addi	sp,sp,-241 # f0f0f0f <__stack_size+0xf0f070f>
800005b8:	00000013          	nop
800005bc:	00000013          	nop
800005c0:	00ff00b7          	lui	ra,0xff0
800005c4:	0ff08093          	addi	ra,ra,255 # ff00ff <__stack_size+0xfef8ff>
800005c8:	0020e733          	or	a4,ra,sp
800005cc:	00120213          	addi	tp,tp,1 # 1 <__heap_size-0x1ff>
800005d0:	00200293          	li	t0,2
800005d4:	fc521ee3          	bne	tp,t0,800005b0 <test_23+0x8>
800005d8:	0fff13b7          	lui	t2,0xfff1
800005dc:	fff38393          	addi	t2,t2,-1 # fff0fff <__stack_size+0xfff07ff>
800005e0:	06771863          	bne	a4,t2,80000650 <fail>
800005e4:	01800193          	li	gp,24
800005e8:	ff0100b7          	lui	ra,0xff010
800005ec:	f0008093          	addi	ra,ra,-256 # ff00ff00 <_end+0x5f00f4b8>
800005f0:	00106133          	or	sp,zero,ra
800005f4:	ff0103b7          	lui	t2,0xff010
800005f8:	f0038393          	addi	t2,t2,-256 # ff00ff00 <_end+0x5f00f4b8>
800005fc:	04711a63          	bne	sp,t2,80000650 <fail>
80000600:	01900193          	li	gp,25
80000604:	00ff00b7          	lui	ra,0xff0
80000608:	0ff08093          	addi	ra,ra,255 # ff00ff <__stack_size+0xfef8ff>
8000060c:	0000e133          	or	sp,ra,zero
80000610:	00ff03b7          	lui	t2,0xff0
80000614:	0ff38393          	addi	t2,t2,255 # ff00ff <__stack_size+0xfef8ff>
80000618:	02711c63          	bne	sp,t2,80000650 <fail>
8000061c:	01a00193          	li	gp,26
80000620:	000060b3          	or	ra,zero,zero
80000624:	00000393          	li	t2,0
80000628:	02709463          	bne	ra,t2,80000650 <fail>
8000062c:	01b00193          	li	gp,27
80000630:	111110b7          	lui	ra,0x11111
80000634:	11108093          	addi	ra,ra,273 # 11111111 <__stack_size+0x11110911>
80000638:	22222137          	lui	sp,0x22222
8000063c:	22210113          	addi	sp,sp,546 # 22222222 <__stack_size+0x22221a22>
80000640:	0020e033          	or	zero,ra,sp
80000644:	00000393          	li	t2,0
80000648:	00701463          	bne	zero,t2,80000650 <fail>
8000064c:	02301063          	bne	zero,gp,8000066c <pass>
80000650:	0ff0000f          	fence
80000654:	00018063          	beqz	gp,80000654 <fail+0x4>
80000658:	00119193          	slli	gp,gp,0x1
8000065c:	0011e193          	ori	gp,gp,1
80000660:	05d00893          	li	a7,93
80000664:	00018513          	mv	a0,gp
80000668:	00000073          	ecall
8000066c:	0ff0000f          	fence
80000670:	00100193          	li	gp,1
80000674:	05d00893          	li	a7,93
80000678:	00000513          	li	a0,0
8000067c:	00000073          	ecall
80000680:	c0001073          	unimp
80000684:	0000                	.insn	2, 0x
80000686:	0000                	.insn	2, 0x
80000688:	0000                	.insn	2, 0x
8000068a:	0000                	.insn	2, 0x
8000068c:	0000                	.insn	2, 0x
8000068e:	0000                	.insn	2, 0x
80000690:	0000                	.insn	2, 0x
80000692:	0000                	.insn	2, 0x
80000694:	0000                	.insn	2, 0x
80000696:	0000                	.insn	2, 0x
80000698:	0000                	.insn	2, 0x
8000069a:	0000                	.insn	2, 0x
8000069c:	0000                	.insn	2, 0x
8000069e:	0000                	.insn	2, 0x
800006a0:	0000                	.insn	2, 0x
800006a2:	0000                	.insn	2, 0x
800006a4:	0000                	.insn	2, 0x
800006a6:	0000                	.insn	2, 0x
800006a8:	0000                	.insn	2, 0x
800006aa:	0000                	.insn	2, 0x
800006ac:	0000                	.insn	2, 0x
800006ae:	0000                	.insn	2, 0x
800006b0:	0000                	.insn	2, 0x
800006b2:	0000                	.insn	2, 0x
800006b4:	0000                	.insn	2, 0x
800006b6:	0000                	.insn	2, 0x
800006b8:	0000                	.insn	2, 0x
800006ba:	0000                	.insn	2, 0x
80000000:	0500006f          	j	80000050 <reset_vector>
80000004:	34202f73          	csrr	t5,mcause
80000008:	00800f93          	li	t6,8
8000000c:	03ff0863          	beq	t5,t6,8000003c <write_tohost>
80000010:	00900f93          	li	t6,9
80000014:	03ff0463          	beq	t5,t6,8000003c <write_tohost>
80000018:	00b00f93          	li	t6,11
8000001c:	03ff0063          	beq	t5,t6,8000003c <write_tohost>
80000020:	00000f13          	li	t5,0
80000024:	000f0463          	beqz	t5,8000002c <trap_vector+0x28>
80000028:	000f0067          	jr	t5
8000002c:	34202f73          	csrr	t5,mcause
80000030:	000f5463          	bgez	t5,80000038 <handle_exception>
80000034:	0040006f          	j	80000038 <handle_exception>
80000038:	5391e193          	ori	gp,gp,1337
8000003c:	20000f17          	auipc	t5,0x20000
80000040:	fc3f2223          	sw	gp,-60(t5) # a0000000 <tohost>
80000044:	20000f17          	auipc	t5,0x20000
80000048:	fc0f2023          	sw	zero,-64(t5) # a0000004 <tohost+0x4>
8000004c:	ff1ff06f          	j	8000003c <write_tohost>
80000050:	00000093          	li	ra,0
80000054:	00000113          	li	sp,0
80000058:	00000193          	li	gp,0
8000005c:	00000213          	li	tp,0
80000060:	00000293          	li	t0,0
80000064:	00000313          	li	t1,0
80000068:	00000393          	li	t2,0
8000006c:	00000413          	li	s0,0
80000070:	00000493          	li	s1,0
80000074:	00000513          	li	a0,0
80000078:	00000593          	li	a1,0
8000007c:	00000613          	li	a2,0
80000080:	00000693          	li	a3,0
80000084:	00000713          	li	a4,0
80000088:	00000793          	li	a5,0
8000008c:	00000813          	li	a6,0
80000090:	00000893          	li	a7,0
80000094:	00000913          	li	s2,0
80000098:	00000993          	li	s3,0
8000009c:	00000a13          	li	s4,0
800000a0:	00000a93          	li	s5,0
800000a4:	00000b13          	li	s6,0
800000a8:	00000b93          	li	s7,0
800000ac:	00000c13          	li	s8,0
800000b0:	00000c93          	li	s9,0
800000b4:	00000d13          	li	s10,0
800000b8:	00000d93          	li	s11,0
800000bc:	00000e13          	li	t3,0
800000c0:	00000e93          	li	t4,0
800000c4:	00000f13          	li	t5,0
800000c8:	00000f93          	li	t6,0
800000cc:	f1402573          	csrr	a0,mhartid
800000d0:	00051063          	bnez	a0,800000d0 <reset_vector+0x80>
800000d4:	00000297          	auipc	t0,0x0
800000d8:	01028293          	addi	t0,t0,16 # 800000e4 <reset_vector+0x94>
800000dc:	30529073          	csrw	mtvec,t0
800000e0:	74445073          	csrwi	0x744,8
800000e4:	00000297          	auipc	t0,0x0
800000e8:	01028293          	addi	t0,t0,16 # 800000f4 <reset_vector+0xa4>
800000ec:	30529073          	csrw	mtvec,t0
800000f0:	18005073          	csrwi	satp,0
800000f4:	00000297          	auipc	t0,0x0
800000f8:	02028293          	addi	t0,t0,32 # 80000114 <reset_vector+0xc4>
800000fc:	30529073          	csrw	mtvec,t0
80000100:	800002b7          	lui	t0,0x80000
80000104:	fff28293          	addi	t0,t0,-1 # 7fffffff <__stack_size+0x7ffff7ff>
80000108:	3b029073          	csrw	pmpaddr0,t0
8000010c:	01f00293          	li	t0,31
80000110:	3a029073          	csrw	pmpcfg0,t0
80000114:	30405073          	csrwi	mie,0
80000118:	00000297          	auipc	t0,0x0
8000011c:	01428293          	addi	t0,t0,20 # 8000012c <reset_vector+0xdc>
80000120:	30529073          	csrw	mtvec,t0
80000124:	30205073          	csrwi	medeleg,0
80000128:	30305073          	csrwi	mideleg,0
8000012c:	00000193          	li	gp,0
80000130:	00000297          	auipc	t0,0x0
80000134:	ed428293          	addi	t0,t0,-300 # 80000004 <trap_vector>
80000138:	30529073          	csrw	mtvec,t0
8000013c:	00100513          	li	a0,1
80000140:	01f51513          	slli	a0,a0,0x1f
80000144:	00054c63          	bltz	a0,8000015c <reset_vector+0x10c>
80000148:	0ff0000f          	fence
8000014c:	00100193          	li	gp,1
80000150:	05d00893          	li	a7,93
80000154:	00000513          	li	a0,0
80000158:	00000073          	ecall
8000015c:	00000293          	li	t0,0
80000160:	00028a63          	beqz	t0,80000174 <reset_vector+0x124>
80000164:	10529073          	csrw	stvec,t0
80000168:	0000b2b7          	lui	t0,0xb
8000016c:	10928293          	addi	t0,t0,265 # b109 <__stack_size+0xa909>
80000170:	30229073          	csrw	medeleg,t0
80000174:	30005073          	csrwi	mstatus,0
80000178:	00000297          	auipc	t0,0x0
8000017c:	01428293          	addi	t0,t0,20 # 8000018c <test_2>
80000180:	34129073          	csrw	mepc,t0
80000184:	f1402573          	csrr	a0,mhartid
80000188:	30200073          	mret
8000018c:	00200193          	li	gp,2
80000190:	800005b7          	lui	a1,0x80000
80000194:	00000613          	li	a2,0
80000198:	00c5d733          	srl	a4,a1,a2
8000019c:	800003b7          	lui	t2,0x80000
800001a0:	56771863          	bne	a4,t2,80000710 <fail>
800001a4:	00300193          	li	gp,3
800001a8:	800005b7          	lui	a1,0x80000
800001ac:	00100613          	li	a2,1
800001b0:	00c5d733          	srl	a4,a1,a2
800001b4:	400003b7          	lui	t2,0x40000
800001b8:	54771c63          	bne	a4,t2,80000710 <fail>
800001bc:	00400193          	li	gp,4
800001c0:	800005b7          	lui	a1,0x80000
800001c4:	00700613          	li	a2,7
800001c8:	00c5d733          	srl	a4,a1,a2
800001cc:	010003b7          	lui	t2,0x1000
800001d0:	54771063          	bne	a4,t2,80000710 <fail>
800001d4:	00500193          	li	gp,5
800001d8:	800005b7          	lui	a1,0x80000
800001dc:	00e00613          	li	a2,14
800001e0:	00c5d733          	srl	a4,a1,a2
800001e4:	000203b7          	lui	t2,0x20
800001e8:	52771463          	bne	a4,t2,80000710 <fail>
800001ec:	00600193          	li	gp,6
800001f0:	800005b7          	lui	a1,0x80000
800001f4:	00158593          	addi	a1,a1,1 # 80000001 <_start+0x1>
800001f8:	01f00613          	li	a2,31
800001fc:	00c5d733          	srl	a4,a1,a2
80000200:	00100393          	li	t2,1
80000204:	50771663          	bne	a4,t2,80000710 <fail>
80000208:	00700193          	li	gp,7
8000020c:	fff00593          	li	a1,-1
80000210:	00000613          	li	a2,0
80000214:	00c5d733          	srl	a4,a1,a2
80000218:	fff00393          	li	t2,-1
8000021c:	4e771a63          	bne	a4,t2,80000710 <fail>
80000220:	00800193          	li	gp,8
80000224:	fff00593          	li	a1,-1
80000228:	00100613          	li	a2,1
8000022c:	00c5d733          	srl	a4,a1,a2
80000230:	800003b7          	lui	t2,0x80000
80000234:	fff38393          	addi	t2,t2,-1 # 7fffffff <__stack_size+0x7ffff7ff>
80000238:	4c771c63          	bne	a4,t2,80000710 <fail>
8000023c:	00900193          	li	gp,9
80000240:	fff00593          	li	a1,-1
80000244:	00700613          	li	a2,7
80000248:	00c5d733          	srl	a4,a1,a2
8000024c:	020003b7          	lui	t2,0x2000
80000250:	fff38393          	addi	t2,t2,-1 # 1ffffff <__stack_size+0x1fff7ff>
80000254:	4a771e63          	bne	a4,t2,80000710 <fail>
80000258:	00a00193          	li	gp,10
8000025c:	fff00593          	li	a1,-1
80000260:	00e00613          	li	a2,14
80000264:	00c5d733          	srl	a4,a1,a2
80000268:	000403b7          	lui	t2,0x40
8000026c:	fff38393          	addi	t2,t2,-1 # 3ffff <__stack_size+0x3f7ff>
80000270:	4a771063          	bne	a4,t2,80000710 <fail>
80000274:	00b00193          	li	gp,11
80000278:	fff00593          	li	a1,-1
8000027c:	01f00613          	li	a2,31
80000280:	00c5d733          	srl	a4,a1,a2
80000284:	00100393          	li	t2,1
80000288:	48771463          	bne	a4,t2,80000710 <fail>
8000028c:	00c00193          	li	gp,12
80000290:	212125b7          	lui	a1,0x21212
80000294:	12158593          	addi	a1,a1,289 # 21212121 <__stack_size+0x21211921>
80000298:	00000613          	li	a2,0
8000029c:	00c5d733          	srl	a4,a1,a2
800002a0:	212123b7          	lui	t2,0x21212
800002a4:	12138393          	addi	t2,t2,289 # 21212121 <__stack_size+0x21211921>
800002a8:	46771463          	bne	a4,t2,80000710 <fail>
800002ac:	00d00193          	li	gp,13
800002b0:	212125b7          	lui	a1,0x21212
800002b4:	12158593          	addi	a1,a1,289 # 21212121 <__stack_size+0x21211921>
800002b8:	00100613          	li	a2,1
800002bc:	00c5d733          	srl	a4,a1,a2
800002c0:	109093b7          	lui	t2,0x10909
800002c4:	09038393          	addi	t2,t2,144 # 10909090 <__stack_size+0x10908890>
800002c8:	44771463          	bne	a4,t2,80000710 <fail>
800002cc:	00e00193          	li	gp,14
800002d0:	212125b7          	lui	a1,0x21212
800002d4:	12158593          	addi	a1,a1,289 # 21212121 <__stack_size+0x21211921>
800002d8:	00700613          	li	a2,7
800002dc:	00c5d733          	srl	a4,a1,a2
800002e0:	004243b7          	lui	t2,0x424
800002e4:	24238393          	addi	t2,t2,578 # 424242 <__stack_size+0x423a42>
800002e8:	42771463          	bne	a4,t2,80000710 <fail>
800002ec:	00f00193          	li	gp,15
800002f0:	212125b7          	lui	a1,0x21212
800002f4:	12158593          	addi	a1,a1,289 # 21212121 <__stack_size+0x21211921>
800002f8:	00e00613          	li	a2,14
800002fc:	00c5d733          	srl	a4,a1,a2
80000300:	000083b7          	lui	t2,0x8
80000304:	48438393          	addi	t2,t2,1156 # 8484 <__stack_size+0x7c84>
80000308:	40771463          	bne	a4,t2,80000710 <fail>
8000030c:	01000193          	li	gp,16
80000310:	212125b7          	lui	a1,0x21212
80000314:	12158593          	addi	a1,a1,289 # 21212121 <__stack_size+0x21211921>
80000318:	01f00613          	li	a2,31
8000031c:	00c5d733          	srl	a4,a1,a2
80000320:	00000393          	li	t2,0
80000324:	3e771663          	bne	a4,t2,80000710 <fail>
80000328:	01100193          	li	gp,17
8000032c:	212125b7          	lui	a1,0x21212
80000330:	12158593          	addi	a1,a1,289 # 21212121 <__stack_size+0x21211921>
80000334:	fc000613          	li	a2,-64
80000338:	00c5d733          	srl	a4,a1,a2
8000033c:	212123b7          	lui	t2,0x21212
80000340:	12138393          	addi	t2,t2,289 # 21212121 <__stack_size+0x21211921>
80000344:	3c771663          	bne	a4,t2,80000710 <fail>
80000348:	01200193          	li	gp,18
8000034c:	212125b7          	lui	a1,0x21212
80000350:	12158593          	addi	a1,a1,289 # 21212121 <__stack_size+0x21211921>
80000354:	fc100613          	li	a2,-63
80000358:	00c5d733          	srl	a4,a1,a2
8000035c:	109093b7          	lui	t2,0x10909
80000360:	09038393          	addi	t2,t2,144 # 10909090 <__stack_size+0x10908890>
80000364:	3a771663          	bne	a4,t2,80000710 <fail>
80000368:	01300193          	li	gp,19
8000036c:	212125b7          	lui	a1,0x21212
80000370:	12158593          	addi	a1,a1,289 # 21212121 <__stack_size+0x21211921>
80000374:	fc700613          	li	a2,-57
80000378:	00c5d733          	srl	a4,a1,a2
8000037c:	004243b7          	lui	t2,0x424
80000380:	24238393          	addi	t2,t2,578 # 424242 <__stack_size+0x423a42>
80000384:	38771663          	bne	a4,t2,80000710 <fail>
80000388:	01400193          	li	gp,20
8000038c:	212125b7          	lui	a1,0x21212
80000390:	12158593          	addi	a1,a1,289 # 21212121 <__stack_size+0x21211921>
80000394:	fce00613          	li	a2,-50
80000398:	00c5d733          	srl	a4,a1,a2
8000039c:	000083b7          	lui	t2,0x8
800003a0:	48438393          	addi	t2,t2,1156 # 8484 <__stack_size+0x7c84>
800003a4:	36771663          	bne	a4,t2,80000710 <fail>
800003a8:	01500193          	li	gp,21
800003ac:	212125b7          	lui	a1,0x21212
800003b0:	12158593          	addi	a1,a1,289 # 21212121 <__stack_size+0x21211921>
800003b4:	fff00613          	li	a2,-1
800003b8:	00c5d733          	srl	a4,a1,a2
800003bc:	00000393          	li	t2,0
800003c0:	34771863          	bne	a4,t2,80000710 <fail>
800003c4:	01600193          	li	gp,22
800003c8:	800005b7          	lui	a1,0x80000
800003cc:	00700613          	li	a2,7
800003d0:	00c5d5b3          	srl	a1,a1,a2
800003d4:	010003b7          	lui	t2,0x1000
800003d8:	32759c63          	bne	a1,t2,80000710 <fail>
800003dc:	01700193          	li	gp,23
800003e0:	800005b7          	lui	a1,0x80000
800003e4:	00e00613          	li	a2,14
800003e8:	00c5d633          	srl	a2,a1,a2
800003ec:	000203b7          	lui	t2,0x20
800003f0:	32761063          	bne	a2,t2,80000710 <fail>
800003f4:	01800193          	li	gp,24
800003f8:	00700593          	li	a1,7
800003fc:	00b5d5b3          	srl	a1,a1,a1
80000400:	00000393          	li	t2,0
80000404:	30759663          	bne	a1,t2,80000710 <fail>
80000408:	01900193          	li	gp,25
8000040c:	00000213          	li	tp,0
80000410:	800000b7          	lui	ra,0x80000
80000414:	00700113          	li	sp,7
80000418:	0020d733          	srl	a4,ra,sp
8000041c:	00070313          	mv	t1,a4
80000420:	00120213          	addi	tp,tp,1 # 1 <__heap_size-0x1ff>
80000424:	00200293          	li	t0,2
80000428:	fe5214e3          	bne	tp,t0,80000410 <test_25+0x8>
8000042c:	010003b7          	lui	t2,0x1000
80000430:	2e731063          	bne	t1,t2,80000710 <fail>
80000434:	01a00193          	li	gp,26
80000438:	00000213          	li	tp,0
8000043c:	800000b7          	lui	ra,0x80000
80000440:	00e00113          	li	sp,14
80000444:	0020d733          	srl	a4,ra,sp
80000448:	00000013          	nop
8000044c:	00070313          	mv	t1,a4
80000450:	00120213          	addi	tp,tp,1 # 1 <__heap_size-0x1ff>
80000454:	00200293          	li	t0,2
80000458:	fe5212e3          	bne	tp,t0,8000043c <test_26+0x8>
8000045c:	000203b7          	lui	t2,0x20
80000460:	2a731863          	bne	t1,t2,80000710 <fail>
80000464:	01b00193          	li	gp,27
80000468:	00000213          	li	tp,0
8000046c:	800000b7          	lui	ra,0x80000
80000470:	01f00113          	li	sp,31
80000474:	0020d733          	srl	a4,ra,sp
80000478:	00000013          	nop
8000047c:	00000013          	nop
80000480:	00070313          	mv	t1,a4
80000484:	00120213          	addi	tp,tp,1 # 1 <__heap_size-0x1ff>
80000488:	00200293          	li	t0,2
8000048c:	fe5210e3          	bne	tp,t0,8000046c <test_27+0x8>
80000490:	00100393          	li	t2,1
80000494:	26731e63          	bne	t1,t2,80000710 <fail>
80000498:	01c00193          	li	gp,28
8000049c:	00000213          	li	tp,0
800004a0:	800000b7          	lui	ra,0x80000
800004a4:	00700113          	li	sp,7
800004a8:	0020d733          	srl	a4,ra,sp
800004ac:	00120213          	addi	tp,tp,1 # 1 <__heap_size-0x1ff>
800004b0:	00200293          	li	t0,2
800004b4:	fe5216e3          	bne	tp,t0,800004a0 <test_28+0x8>
800004b8:	010003b7          	lui	t2,0x1000
800004bc:	24771a63          	bne	a4,t2,80000710 <fail>
800004c0:	01d00193          	li	gp,29
800004c4:	00000213          	li	tp,0
800004c8:	800000b7          	lui	ra,0x80000
800004cc:	00e00113          	li	sp,14
800004d0:	00000013          	nop
800004d4:	0020d733          	srl	a4,ra,sp
800004d8:	00120213          	addi	tp,tp,1 # 1 <__heap_size-0x1ff>
800004dc:	00200293          	li	t0,2
800004e0:	fe5214e3          	bne	tp,t0,800004c8 <test_29+0x8>
800004e4:	000203b7          	lui	t2,0x20
800004e8:	22771463          	bne	a4,t2,80000710 <fail>
800004ec:	01e00193          	li	gp,30
800004f0:	00000213          	li	tp,0
800004f4:	800000b7          	lui	ra,0x80000
800004f8:	01f00113          	li	sp,31
800004fc:	00000013          	nop
80000500:	00000013          	nop
80000504:	0020d733          	srl	a4,ra,sp
80000508:	00120213          	addi	tp,tp,1 # 1 <__heap_size-0x1ff>
8000050c:	00200293          	li	t0,2
80000510:	fe5212e3          	bne	tp,t0,800004f4 <test_30+0x8>
80000514:	00100393          	li	t2,1
80000518:	1e771c63          	bne	a4,t2,80000710 <fail>
8000051c:	01f00193          	li	gp,31
80000520:	00000213          	li	tp,0
80000524:	800000b7          	lui	ra,0x80000
80000528:	00000013          	nop
8000052c:	00700113          	li	sp,7
80000530:	0020d733          	srl	a4,ra,sp
80000534:	00120213          	addi	tp,tp,1 # 1 <__heap_size-0x1ff>
80000538:	00200293          	li	t0,2
8000053c:	fe5214e3          	bne	tp,t0,80000524 <test_31+0x8>
80000540:	010003b7          	lui	t2,0x1000
80000544:	1c771663          	bne	a4,t2,80000710 <fail>
80000548:	02000193          	li	gp,32
8000054c:	00000213          	li	tp,0
80000550:	800000b7          	lui	ra,0x80000
80000554:	00000013          	nop
80000558:	00e00113          	li	sp,14
8000055c:	00000013          	nop
80000560:	0020d733          	srl	a4,ra,sp
80000564:	00120213          	addi	tp,tp,1 # 1 <__heap_size-0x1ff>
80000568:	00200293          	li	t0,2
8000056c:	fe5212e3          	bne	tp,t0,80000550 <test_32+0x8>
80000570:	000203b7          	lui	t2,0x20
80000574:	18771e63          	bne	a4,t2,80000710 <fail>
80000578:	02100193          	li	gp,33
8000057c:	00000213          	li	tp,0
80000580:	800000b7          	lui	ra,0x80000
80000584:	00000013          	nop
80000588:	00000013          	nop
8000058c:	01f00113          	li	sp,31
80000590:	0020d733          	srl	a4,ra,sp
80000594:	00120213          	addi	tp,tp,1 # 1 <__heap_size-0x1ff>
80000598:	00200293          	li	t0,2
8000059c:	fe5212e3          	bne	tp,t0,80000580 <test_33+0x8>
800005a0:	00100393          	li	t2,1
800005a4:	16771663          	bne	a4,t2,80000710 <fail>
800005a8:	02200193          	li	gp,34
800005ac:	00000213          	li	tp,0
800005b0:	00700113          	li	sp,7
800005b4:	800000b7          	lui	ra,0x80000
800005b8:	0020d733          	srl	a4,ra,sp
800005bc:	00120213          	addi	tp,tp,1 # 1 <__heap_size-0x1ff>
800005c0:	00200293          	li	t0,2
800005c4:	fe5216e3          	bne	tp,t0,800005b0 <test_34+0x8>
800005c8:	010003b7          	lui	t2,0x1000
800005cc:	14771263          	bne	a4,t2,80000710 <fail>
800005d0:	02300193          	li	gp,35
800005d4:	00000213          	li	tp,0
800005d8:	00e00113          	li	sp,14
800005dc:	800000b7          	lui	ra,0x80000
800005e0:	00000013          	nop
800005e4:	0020d733          	srl	a4,ra,sp
800005e8:	00120213          	addi	tp,tp,1 # 1 <__heap_size-0x1ff>
800005ec:	00200293          	li	t0,2
800005f0:	fe5214e3          	bne	tp,t0,800005d8 <test_35+0x8>
800005f4:	000203b7          	lui	t2,0x20
800005f8:	10771c63          	bne	a4,t2,80000710 <fail>
800005fc:	02400193          	li	gp,36
80000600:	00000213          	li	tp,0
80000604:	01f00113          	li	sp,31
80000608:	800000b7          	lui	ra,0x80000
8000060c:	00000013          	nop
80000610:	00000013          	nop
80000614:	0020d733          	srl	a4,ra,sp
80000618:	00120213          	addi	tp,tp,1 # 1 <__heap_size-0x1ff>
8000061c:	00200293          	li	t0,2
80000620:	fe5212e3          	bne	tp,t0,80000604 <test_36+0x8>
80000624:	00100393          	li	t2,1
80000628:	0e771463          	bne	a4,t2,80000710 <fail>
8000062c:	02500193          	li	gp,37
80000630:	00000213          	li	tp,0
80000634:	00700113          	li	sp,7
80000638:	00000013          	nop
8000063c:	800000b7          	lui	ra,0x80000
80000640:	0020d733          	srl	a4,ra,sp
80000644:	00120213          	addi	tp,tp,1 # 1 <__heap_size-0x1ff>
80000648:	00200293          	li	t0,2
8000064c:	fe5214e3          	bne	tp,t0,80000634 <test_37+0x8>
80000650:	010003b7          	lui	t2,0x1000
80000654:	0a771e63          	bne	a4,t2,80000710 <fail>
80000658:	02600193          	li	gp,38
8000065c:	00000213          	li	tp,0
80000660:	00e00113          	li	sp,14
80000664:	00000013          	nop
80000668:	800000b7          	lui	ra,0x80000
8000066c:	00000013          	nop
80000670:	0020d733          	srl	a4,ra,sp
80000674:	00120213          	addi	tp,tp,1 # 1 <__heap_size-0x1ff>
80000678:	00200293          	li	t0,2
8000067c:	fe5212e3          	bne	tp,t0,80000660 <test_38+0x8>
80000680:	000203b7          	lui	t2,0x20
80000684:	08771663          	bne	a4,t2,80000710 <fail>
80000688:	02700193          	li	gp,39
8000068c:	00000213          	li	tp,0
80000690:	01f00113          	li	sp,31
80000694:	00000013          	nop
80000698:	00000013          	nop
8000069c:	800000b7          	lui	ra,0x80000
800006a0:	0020d733          	srl	a4,ra,sp
800006a4:	00120213          	addi	tp,tp,1 # 1 <__heap_size-0x1ff>
800006a8:	00200293          	li	t0,2
800006ac:	fe5212e3          	bne	tp,t0,80000690 <test_39+0x8>
800006b0:	00100393          	li	t2,1
800006b4:	04771e63          	bne	a4,t2,80000710 <fail>
800006b8:	02800193          	li	gp,40
800006bc:	00f00093          	li	ra,15
800006c0:	00105133          	srl	sp,zero,ra
800006c4:	00000393          	li	t2,0
800006c8:	04711463          	bne	sp,t2,80000710 <fail>
800006cc:	02900193          	li	gp,41
800006d0:	02000093          	li	ra,32
800006d4:	0000d133          	srl	sp,ra,zero
800006d8:	02000393          	li	t2,32
800006dc:	02711a63          	bne	sp,t2,80000710 <fail>
800006e0:	02a00193          	li	gp,42
800006e4:	000050b3          	srl	ra,zero,zero
800006e8:	00000393          	li	t2,0
800006ec:	02709263          	bne	ra,t2,80000710 <fail>
800006f0:	02b00193          	li	gp,43
800006f4:	40000093          	li	ra,1024
800006f8:	00001137          	lui	sp,0x1
800006fc:	80010113          	addi	sp,sp,-2048 # 800 <__stack_size>
80000700:	0020d033          	srl	zero,ra,sp
80000704:	00000393          	li	t2,0
80000708:	00701463          	bne	zero,t2,80000710 <fail>
8000070c:	02301063          	bne	zero,gp,8000072c <pass>
80000710:	0ff0000f          	fence
80000714:	00018063          	beqz	gp,80000714 <fail+0x4>
80000718:	00119193          	slli	gp,gp,0x1
8000071c:	0011e193          	ori	gp,gp,1
80000720:	05d00893          	li	a7,93
80000724:	00018513          	mv	a0,gp
80000728:	00000073          	ecall
8000072c:	0ff0000f          	fence
80000730:	00100193          	li	gp,1
80000734:	05d00893          	li	a7,93
80000738:	00000513          	li	a0,0
8000073c:	00000073          	ecall
80000740:	c0001073          	unimp
80000744:	0000                	.insn	2, 0x
80000746:	0000                	.insn	2, 0x
80000748:	0000                	.insn	2, 0x
8000074a:	0000                	.insn	2, 0x
8000074c:	0000                	.insn	2, 0x
8000074e:	0000                	.insn	2, 0x
80000750:	0000                	.insn	2, 0x
80000752:	0000                	.insn	2, 0x
80000754:	0000                	.insn	2, 0x
80000756:	0000                	.insn	2, 0x
80000758:	0000                	.insn	2, 0x
8000075a:	0000                	.insn	2, 0x
8000075c:	0000                	.insn	2, 0x
8000075e:	0000                	.insn	2, 0x
80000760:	0000                	.insn	2, 0x
80000762:	0000                	.insn	2, 0x
80000764:	0000                	.insn	2, 0x
80000766:	0000                	.insn	2, 0x
80000768:	0000                	.insn	2, 0x
8000076a:	0000                	.insn	2, 0x
8000076c:	0000                	.insn	2, 0x
8000076e:	0000                	.insn	2, 0x
80000770:	0000                	.insn	2, 0x
80000772:	0000                	.insn	2, 0x
80000774:	0000                	.insn	2, 0x
80000776:	0000                	.insn	2, 0x
80000778:	0000                	.insn	2, 0x
8000077a:	0000                	.insn	2, 0x
80000000:	0500006f          	j	80000050 <reset_vector>
80000004:	34202f73          	csrr	t5,mcause
80000008:	00800f93          	li	t6,8
8000000c:	03ff0863          	beq	t5,t6,8000003c <write_tohost>
80000010:	00900f93          	li	t6,9
80000014:	03ff0463          	beq	t5,t6,8000003c <write_tohost>
80000018:	00b00f93          	li	t6,11
8000001c:	03ff0063          	beq	t5,t6,8000003c <write_tohost>
80000020:	00000f13          	li	t5,0
80000024:	000f0463          	beqz	t5,8000002c <trap_vector+0x28>
80000028:	000f0067          	jr	t5
8000002c:	34202f73          	csrr	t5,mcause
80000030:	000f5463          	bgez	t5,80000038 <handle_exception>
80000034:	0040006f          	j	80000038 <handle_exception>
80000038:	5391e193          	ori	gp,gp,1337
8000003c:	20000f17          	auipc	t5,0x20000
80000040:	fc3f2223          	sw	gp,-60(t5) # a0000000 <tohost>
80000044:	20000f17          	auipc	t5,0x20000
80000048:	fc0f2023          	sw	zero,-64(t5) # a0000004 <tohost+0x4>
8000004c:	ff1ff06f          	j	8000003c <write_tohost>
80000050:	00000093          	li	ra,0
80000054:	00000113          	li	sp,0
80000058:	00000193          	li	gp,0
8000005c:	00000213          	li	tp,0
80000060:	00000293          	li	t0,0
80000064:	00000313          	li	t1,0
80000068:	00000393          	li	t2,0
8000006c:	00000413          	li	s0,0
80000070:	00000493          	li	s1,0
80000074:	00000513          	li	a0,0
80000078:	00000593          	li	a1,0
8000007c:	00000613          	li	a2,0
80000080:	00000693          	li	a3,0
80000084:	00000713          	li	a4,0
80000088:	00000793          	li	a5,0
8000008c:	00000813          	li	a6,0
80000090:	00000893          	li	a7,0
80000094:	00000913          	li	s2,0
80000098:	00000993          	li	s3,0
8000009c:	00000a13          	li	s4,0
800000a0:	00000a93          	li	s5,0
800000a4:	00000b13          	li	s6,0
800000a8:	00000b93          	li	s7,0
800000ac:	00000c13          	li	s8,0
800000b0:	00000c93          	li	s9,0
800000b4:	00000d13          	li	s10,0
800000b8:	00000d93          	li	s11,0
800000bc:	00000e13          	li	t3,0
800000c0:	00000e93          	li	t4,0
800000c4:	00000f13          	li	t5,0
800000c8:	00000f93          	li	t6,0
800000cc:	f1402573          	csrr	a0,mhartid
800000d0:	00051063          	bnez	a0,800000d0 <reset_vector+0x80>
800000d4:	00000297          	auipc	t0,0x0
800000d8:	01028293          	addi	t0,t0,16 # 800000e4 <reset_vector+0x94>
800000dc:	30529073          	csrw	mtvec,t0
800000e0:	74445073          	csrwi	0x744,8
800000e4:	00000297          	auipc	t0,0x0
800000e8:	01028293          	addi	t0,t0,16 # 800000f4 <reset_vector+0xa4>
800000ec:	30529073          	csrw	mtvec,t0
800000f0:	18005073          	csrwi	satp,0
800000f4:	00000297          	auipc	t0,0x0
800000f8:	02028293          	addi	t0,t0,32 # 80000114 <reset_vector+0xc4>
800000fc:	30529073          	csrw	mtvec,t0
80000100:	800002b7          	lui	t0,0x80000
80000104:	fff28293          	addi	t0,t0,-1 # 7fffffff <__stack_size+0x7ffff7ff>
80000108:	3b029073          	csrw	pmpaddr0,t0
8000010c:	01f00293          	li	t0,31
80000110:	3a029073          	csrw	pmpcfg0,t0
80000114:	30405073          	csrwi	mie,0
80000118:	00000297          	auipc	t0,0x0
8000011c:	01428293          	addi	t0,t0,20 # 8000012c <reset_vector+0xdc>
80000120:	30529073          	csrw	mtvec,t0
80000124:	30205073          	csrwi	medeleg,0
80000128:	30305073          	csrwi	mideleg,0
8000012c:	00000193          	li	gp,0
80000130:	00000297          	auipc	t0,0x0
80000134:	ed428293          	addi	t0,t0,-300 # 80000004 <trap_vector>
80000138:	30529073          	csrw	mtvec,t0
8000013c:	00100513          	li	a0,1
80000140:	01f51513          	slli	a0,a0,0x1f
80000144:	00054c63          	bltz	a0,8000015c <reset_vector+0x10c>
80000148:	0ff0000f          	fence
8000014c:	00100193          	li	gp,1
80000150:	05d00893          	li	a7,93
80000154:	00000513          	li	a0,0
80000158:	00000073          	ecall
8000015c:	00000293          	li	t0,0
80000160:	00028a63          	beqz	t0,80000174 <reset_vector+0x124>
80000164:	10529073          	csrw	stvec,t0
80000168:	0000b2b7          	lui	t0,0xb
8000016c:	10928293          	addi	t0,t0,265 # b109 <__stack_size+0xa909>
80000170:	30229073          	csrw	medeleg,t0
80000174:	30005073          	csrwi	mstatus,0
80000178:	00000297          	auipc	t0,0x0
8000017c:	01428293          	addi	t0,t0,20 # 8000018c <test_2>
80000180:	34129073          	csrw	mepc,t0
80000184:	f1402573          	csrr	a0,mhartid
80000188:	30200073          	mret
8000018c:	00200193          	li	gp,2
80000190:	00002517          	auipc	a0,0x2
80000194:	71c50513          	addi	a0,a0,1820 # 800028ac <pass+0x26c0>
80000198:	004005ef          	jal	a1,8000019c <test_2+0x10>
8000019c:	40b50533          	sub	a0,a0,a1
800001a0:	000023b7          	lui	t2,0x2
800001a4:	71038393          	addi	t2,t2,1808 # 2710 <__stack_size+0x1f10>
800001a8:	02751463          	bne	a0,t2,800001d0 <fail>
800001ac:	00300193          	li	gp,3
800001b0:	ffffe517          	auipc	a0,0xffffe
800001b4:	8fc50513          	addi	a0,a0,-1796 # 7fffdaac <__stack_size+0x7fffd2ac>
800001b8:	004005ef          	jal	a1,800001bc <test_3+0x10>
800001bc:	40b50533          	sub	a0,a0,a1
800001c0:	ffffe3b7          	lui	t2,0xffffe
800001c4:	8f038393          	addi	t2,t2,-1808 # ffffd8f0 <_end+0x5fffcea8>
800001c8:	00751463          	bne	a0,t2,800001d0 <fail>
800001cc:	02301063          	bne	zero,gp,800001ec <pass>
800001d0:	0ff0000f          	fence
800001d4:	00018063          	beqz	gp,800001d4 <fail+0x4>
800001d8:	00119193          	slli	gp,gp,0x1
800001dc:	0011e193          	ori	gp,gp,1
800001e0:	05d00893          	li	a7,93
800001e4:	00018513          	mv	a0,gp
800001e8:	00000073          	ecall
800001ec:	0ff0000f          	fence
800001f0:	00100193          	li	gp,1
800001f4:	05d00893          	li	a7,93
800001f8:	00000513          	li	a0,0
800001fc:	00000073          	ecall
80000200:	c0001073          	unimp
80000204:	0000                	.insn	2, 0x
80000206:	0000                	.insn	2, 0x
80000208:	0000                	.insn	2, 0x
8000020a:	0000                	.insn	2, 0x
8000020c:	0000                	.insn	2, 0x
8000020e:	0000                	.insn	2, 0x
80000210:	0000                	.insn	2, 0x
80000212:	0000                	.insn	2, 0x
80000214:	0000                	.insn	2, 0x
80000216:	0000                	.insn	2, 0x
80000218:	0000                	.insn	2, 0x
8000021a:	0000                	.insn	2, 0x
8000021c:	0000                	.insn	2, 0x
8000021e:	0000                	.insn	2, 0x
80000220:	0000                	.insn	2, 0x
80000222:	0000                	.insn	2, 0x
80000224:	0000                	.insn	2, 0x
80000226:	0000                	.insn	2, 0x
80000228:	0000                	.insn	2, 0x
8000022a:	0000                	.insn	2, 0x
8000022c:	0000                	.insn	2, 0x
8000022e:	0000                	.insn	2, 0x
80000230:	0000                	.insn	2, 0x
80000232:	0000                	.insn	2, 0x
80000000:	0500006f          	j	80000050 <reset_vector>
80000004:	34202f73          	csrr	t5,mcause
80000008:	00800f93          	li	t6,8
8000000c:	03ff0863          	beq	t5,t6,8000003c <write_tohost>
80000010:	00900f93          	li	t6,9
80000014:	03ff0463          	beq	t5,t6,8000003c <write_tohost>
80000018:	00b00f93          	li	t6,11
8000001c:	03ff0063          	beq	t5,t6,8000003c <write_tohost>
80000020:	00000f13          	li	t5,0
80000024:	000f0463          	beqz	t5,8000002c <trap_vector+0x28>
80000028:	000f0067          	jr	t5
8000002c:	34202f73          	csrr	t5,mcause
80000030:	000f5463          	bgez	t5,80000038 <handle_exception>
80000034:	0040006f          	j	80000038 <handle_exception>
80000038:	5391e193          	ori	gp,gp,1337
8000003c:	20000f17          	auipc	t5,0x20000
80000040:	003f2223          	sw	gp,4(t5) # a0000040 <tohost>
80000044:	20000f17          	auipc	t5,0x20000
80000048:	000f2023          	sw	zero,0(t5) # a0000044 <tohost+0x4>
8000004c:	ff1ff06f          	j	8000003c <write_tohost>
80000050:	00000093          	li	ra,0
80000054:	00000113          	li	sp,0
80000058:	00000193          	li	gp,0
8000005c:	00000213          	li	tp,0
80000060:	00000293          	li	t0,0
80000064:	00000313          	li	t1,0
80000068:	00000393          	li	t2,0
8000006c:	00000413          	li	s0,0
80000070:	00000493          	li	s1,0
80000074:	00000513          	li	a0,0
80000078:	00000593          	li	a1,0
8000007c:	00000613          	li	a2,0
80000080:	00000693          	li	a3,0
80000084:	00000713          	li	a4,0
80000088:	00000793          	li	a5,0
8000008c:	00000813          	li	a6,0
80000090:	00000893          	li	a7,0
80000094:	00000913          	li	s2,0
80000098:	00000993          	li	s3,0
8000009c:	00000a13          	li	s4,0
800000a0:	00000a93          	li	s5,0
800000a4:	00000b13          	li	s6,0
800000a8:	00000b93          	li	s7,0
800000ac:	00000c13          	li	s8,0
800000b0:	00000c93          	li	s9,0
800000b4:	00000d13          	li	s10,0
800000b8:	00000d93          	li	s11,0
800000bc:	00000e13          	li	t3,0
800000c0:	00000e93          	li	t4,0
800000c4:	00000f13          	li	t5,0
800000c8:	00000f93          	li	t6,0
800000cc:	f1402573          	csrr	a0,mhartid
800000d0:	00051063          	bnez	a0,800000d0 <reset_vector+0x80>
800000d4:	00000297          	auipc	t0,0x0
800000d8:	01028293          	addi	t0,t0,16 # 800000e4 <reset_vector+0x94>
800000dc:	30529073          	csrw	mtvec,t0
800000e0:	74445073          	csrwi	0x744,8
800000e4:	00000297          	auipc	t0,0x0
800000e8:	01028293          	addi	t0,t0,16 # 800000f4 <reset_vector+0xa4>
800000ec:	30529073          	csrw	mtvec,t0
800000f0:	18005073          	csrwi	satp,0
800000f4:	00000297          	auipc	t0,0x0
800000f8:	02028293          	addi	t0,t0,32 # 80000114 <reset_vector+0xc4>
800000fc:	30529073          	csrw	mtvec,t0
80000100:	800002b7          	lui	t0,0x80000
80000104:	fff28293          	addi	t0,t0,-1 # 7fffffff <__stack_size+0x7ffff7ff>
80000108:	3b029073          	csrw	pmpaddr0,t0
8000010c:	01f00293          	li	t0,31
80000110:	3a029073          	csrw	pmpcfg0,t0
80000114:	30405073          	csrwi	mie,0
80000118:	00000297          	auipc	t0,0x0
8000011c:	01428293          	addi	t0,t0,20 # 8000012c <reset_vector+0xdc>
80000120:	30529073          	csrw	mtvec,t0
80000124:	30205073          	csrwi	medeleg,0
80000128:	30305073          	csrwi	mideleg,0
8000012c:	00000193          	li	gp,0
80000130:	00000297          	auipc	t0,0x0
80000134:	ed428293          	addi	t0,t0,-300 # 80000004 <trap_vector>
80000138:	30529073          	csrw	mtvec,t0
8000013c:	00100513          	li	a0,1
80000140:	01f51513          	slli	a0,a0,0x1f
80000144:	00054c63          	bltz	a0,8000015c <reset_vector+0x10c>
80000148:	0ff0000f          	fence
8000014c:	00100193          	li	gp,1
80000150:	05d00893          	li	a7,93
80000154:	00000513          	li	a0,0
80000158:	00000073          	ecall
8000015c:	00000293          	li	t0,0
80000160:	00028a63          	beqz	t0,80000174 <reset_vector+0x124>
80000164:	10529073          	csrw	stvec,t0
80000168:	0000b2b7          	lui	t0,0xb
8000016c:	10928293          	addi	t0,t0,265 # b109 <__stack_size+0xa909>
80000170:	30229073          	csrw	medeleg,t0
80000174:	30005073          	csrwi	mstatus,0
80000178:	00000297          	auipc	t0,0x0
8000017c:	01428293          	addi	t0,t0,20 # 8000018c <test_2>
80000180:	34129073          	csrw	mepc,t0
80000184:	f1402573          	csrr	a0,mhartid
80000188:	30200073          	mret
8000018c:	00200193          	li	gp,2
80000190:	0ff00793          	li	a5,255
80000194:	20000117          	auipc	sp,0x20000
80000198:	e6c10113          	addi	sp,sp,-404 # a0000000 <begin_signature>
8000019c:	00014703          	lbu	a4,0(sp)
800001a0:	0ff00393          	li	t2,255
800001a4:	24771a63          	bne	a4,t2,800003f8 <fail>
800001a8:	00300193          	li	gp,3
800001ac:	00000793          	li	a5,0
800001b0:	20000117          	auipc	sp,0x20000
800001b4:	e5010113          	addi	sp,sp,-432 # a0000000 <begin_signature>
800001b8:	00114703          	lbu	a4,1(sp)
800001bc:	00000393          	li	t2,0
800001c0:	22771c63          	bne	a4,t2,800003f8 <fail>
800001c4:	00400193          	li	gp,4
800001c8:	0f000793          	li	a5,240
800001cc:	20000117          	auipc	sp,0x20000
800001d0:	e3410113          	addi	sp,sp,-460 # a0000000 <begin_signature>
800001d4:	00214703          	lbu	a4,2(sp)
800001d8:	0f000393          	li	t2,240
800001dc:	20771e63          	bne	a4,t2,800003f8 <fail>
800001e0:	00500193          	li	gp,5
800001e4:	00f00793          	li	a5,15
800001e8:	20000117          	auipc	sp,0x20000
800001ec:	e1810113          	addi	sp,sp,-488 # a0000000 <begin_signature>
800001f0:	00314703          	lbu	a4,3(sp)
800001f4:	00f00393          	li	t2,15
800001f8:	20771063          	bne	a4,t2,800003f8 <fail>
800001fc:	00600193          	li	gp,6
80000200:	0ff00793          	li	a5,255
80000204:	20000117          	auipc	sp,0x20000
80000208:	dff10113          	addi	sp,sp,-513 # a0000003 <tdat4>
8000020c:	ffd14703          	lbu	a4,-3(sp)
80000210:	0ff00393          	li	t2,255
80000214:	1e771263          	bne	a4,t2,800003f8 <fail>
80000218:	00700193          	li	gp,7
8000021c:	00000793          	li	a5,0
80000220:	20000117          	auipc	sp,0x20000
80000224:	de310113          	addi	sp,sp,-541 # a0000003 <tdat4>
80000228:	ffe14703          	lbu	a4,-2(sp)
8000022c:	00000393          	li	t2,0
80000230:	1c771463          	bne	a4,t2,800003f8 <fail>
80000234:	00800193          	li	gp,8
80000238:	0f000793          	li	a5,240
8000023c:	20000117          	auipc	sp,0x20000
80000240:	dc710113          	addi	sp,sp,-569 # a0000003 <tdat4>
80000244:	fff14703          	lbu	a4,-1(sp)
80000248:	0f000393          	li	t2,240
8000024c:	1a771663          	bne	a4,t2,800003f8 <fail>
80000250:	00900193          	li	gp,9
80000254:	00f00793          	li	a5,15
80000258:	20000117          	auipc	sp,0x20000
8000025c:	dab10113          	addi	sp,sp,-597 # a0000003 <tdat4>
80000260:	00014703          	lbu	a4,0(sp)
80000264:	00f00393          	li	t2,15
80000268:	18771863          	bne	a4,t2,800003f8 <fail>
8000026c:	00a00193          	li	gp,10
80000270:	20000097          	auipc	ra,0x20000
80000274:	d9008093          	addi	ra,ra,-624 # a0000000 <begin_signature>
80000278:	fe008093          	addi	ra,ra,-32
8000027c:	0200c283          	lbu	t0,32(ra)
80000280:	0ff00393          	li	t2,255
80000284:	16729a63          	bne	t0,t2,800003f8 <fail>
80000288:	00b00193          	li	gp,11
8000028c:	20000097          	auipc	ra,0x20000
80000290:	d7408093          	addi	ra,ra,-652 # a0000000 <begin_signature>
80000294:	ffa08093          	addi	ra,ra,-6
80000298:	0070c283          	lbu	t0,7(ra)
8000029c:	00000393          	li	t2,0
800002a0:	14729c63          	bne	t0,t2,800003f8 <fail>
800002a4:	00c00193          	li	gp,12
800002a8:	00000213          	li	tp,0
800002ac:	20000697          	auipc	a3,0x20000
800002b0:	d5568693          	addi	a3,a3,-683 # a0000001 <tdat2>
800002b4:	0016c703          	lbu	a4,1(a3)
800002b8:	00070313          	mv	t1,a4
800002bc:	0f000393          	li	t2,240
800002c0:	12731c63          	bne	t1,t2,800003f8 <fail>
800002c4:	00120213          	addi	tp,tp,1 # 1 <__heap_size-0x1ff>
800002c8:	00200293          	li	t0,2
800002cc:	fe5210e3          	bne	tp,t0,800002ac <test_12+0x8>
800002d0:	00d00193          	li	gp,13
800002d4:	00000213          	li	tp,0
800002d8:	20000697          	auipc	a3,0x20000
800002dc:	d2a68693          	addi	a3,a3,-726 # a0000002 <tdat3>
800002e0:	0016c703          	lbu	a4,1(a3)
800002e4:	00000013          	nop
800002e8:	00070313          	mv	t1,a4
800002ec:	00f00393          	li	t2,15
800002f0:	10731463          	bne	t1,t2,800003f8 <fail>
800002f4:	00120213          	addi	tp,tp,1 # 1 <__heap_size-0x1ff>
800002f8:	00200293          	li	t0,2
800002fc:	fc521ee3          	bne	tp,t0,800002d8 <test_13+0x8>
80000300:	00e00193          	li	gp,14
80000304:	00000213          	li	tp,0
80000308:	20000697          	auipc	a3,0x20000
8000030c:	cf868693          	addi	a3,a3,-776 # a0000000 <begin_signature>
80000310:	0016c703          	lbu	a4,1(a3)
80000314:	00000013          	nop
80000318:	00000013          	nop
8000031c:	00070313          	mv	t1,a4
80000320:	00000393          	li	t2,0
80000324:	0c731a63          	bne	t1,t2,800003f8 <fail>
80000328:	00120213          	addi	tp,tp,1 # 1 <__heap_size-0x1ff>
8000032c:	00200293          	li	t0,2
80000330:	fc521ce3          	bne	tp,t0,80000308 <test_14+0x8>
80000334:	00f00193          	li	gp,15
80000338:	00000213          	li	tp,0
8000033c:	20000697          	auipc	a3,0x20000
80000340:	cc568693          	addi	a3,a3,-827 # a0000001 <tdat2>
80000344:	0016c703          	lbu	a4,1(a3)
80000348:	0f000393          	li	t2,240
8000034c:	0a771663          	bne	a4,t2,800003f8 <fail>
80000350:	00120213          	addi	tp,tp,1 # 1 <__heap_size-0x1ff>
80000354:	00200293          	li	t0,2
80000358:	fe5212e3          	bne	tp,t0,8000033c <test_15+0x8>
8000035c:	01000193          	li	gp,16
80000360:	00000213          	li	tp,0
80000364:	20000697          	auipc	a3,0x20000
80000368:	c9e68693          	addi	a3,a3,-866 # a0000002 <tdat3>
8000036c:	00000013          	nop
80000370:	0016c703          	lbu	a4,1(a3)
80000374:	00f00393          	li	t2,15
80000378:	08771063          	bne	a4,t2,800003f8 <fail>
8000037c:	00120213          	addi	tp,tp,1 # 1 <__heap_size-0x1ff>
80000380:	00200293          	li	t0,2
80000384:	fe5210e3          	bne	tp,t0,80000364 <test_16+0x8>
80000388:	01100193          	li	gp,17
8000038c:	00000213          	li	tp,0
80000390:	20000697          	auipc	a3,0x20000
80000394:	c7068693          	addi	a3,a3,-912 # a0000000 <begin_signature>
80000398:	00000013          	nop
8000039c:	00000013          	nop
800003a0:	0016c703          	lbu	a4,1(a3)
800003a4:	00000393          	li	t2,0
800003a8:	04771863          	bne	a4,t2,800003f8 <fail>
800003ac:	00120213          	addi	tp,tp,1 # 1 <__heap_size-0x1ff>
800003b0:	00200293          	li	t0,2
800003b4:	fc521ee3          	bne	tp,t0,80000390 <test_17+0x8>
800003b8:	01200193          	li	gp,18
800003bc:	20000297          	auipc	t0,0x20000
800003c0:	c4428293          	addi	t0,t0,-956 # a0000000 <begin_signature>
800003c4:	0002c103          	lbu	sp,0(t0)
800003c8:	00200113          	li	sp,2
800003cc:	00200393          	li	t2,2
800003d0:	02711463          	bne	sp,t2,800003f8 <fail>
800003d4:	01300193          	li	gp,19
800003d8:	20000297          	auipc	t0,0x20000
800003dc:	c2828293          	addi	t0,t0,-984 # a0000000 <begin_signature>
800003e0:	0002c103          	lbu	sp,0(t0)
800003e4:	00000013          	nop
800003e8:	00200113          	li	sp,2
800003ec:	00200393          	li	t2,2
800003f0:	00711463          	bne	sp,t2,800003f8 <fail>
800003f4:	02301063          	bne	zero,gp,80000414 <pass>
800003f8:	0ff0000f          	fence
800003fc:	00018063          	beqz	gp,800003fc <fail+0x4>
80000400:	00119193          	slli	gp,gp,0x1
80000404:	0011e193          	ori	gp,gp,1
80000408:	05d00893          	li	a7,93
8000040c:	00018513          	mv	a0,gp
80000410:	00000073          	ecall
80000414:	0ff0000f          	fence
80000418:	00100193          	li	gp,1
8000041c:	05d00893          	li	a7,93
80000420:	00000513          	li	a0,0
80000424:	00000073          	ecall
80000428:	c0001073          	unimp
8000042c:	0000                	.insn	2, 0x
8000042e:	0000                	.insn	2, 0x
80000430:	0000                	.insn	2, 0x
80000432:	0000                	.insn	2, 0x
80000434:	0000                	.insn	2, 0x
80000436:	0000                	.insn	2, 0x
80000438:	0000                	.insn	2, 0x
8000043a:	0000                	.insn	2, 0x
a0000003:	0000000f          	fence	unknown,unknown
a0000007:	0000                	.insn	2, 0x
a0000009:	0000                	.insn	2, 0x
a000000b:	0000                	.insn	2, 0x
a000000d:	0000                	.insn	2, 0x
80000000:	0500006f          	j	80000050 <reset_vector>
80000004:	34202f73          	csrr	t5,mcause
80000008:	00800f93          	li	t6,8
8000000c:	03ff0863          	beq	t5,t6,8000003c <write_tohost>
80000010:	00900f93          	li	t6,9
80000014:	03ff0463          	beq	t5,t6,8000003c <write_tohost>
80000018:	00b00f93          	li	t6,11
8000001c:	03ff0063          	beq	t5,t6,8000003c <write_tohost>
80000020:	00000f13          	li	t5,0
80000024:	000f0463          	beqz	t5,8000002c <trap_vector+0x28>
80000028:	000f0067          	jr	t5
8000002c:	34202f73          	csrr	t5,mcause
80000030:	000f5463          	bgez	t5,80000038 <handle_exception>
80000034:	0040006f          	j	80000038 <handle_exception>
80000038:	5391e193          	ori	gp,gp,1337
8000003c:	20000f17          	auipc	t5,0x20000
80000040:	003f2223          	sw	gp,4(t5) # a0000040 <tohost>
80000044:	20000f17          	auipc	t5,0x20000
80000048:	000f2023          	sw	zero,0(t5) # a0000044 <tohost+0x4>
8000004c:	ff1ff06f          	j	8000003c <write_tohost>
80000050:	00000093          	li	ra,0
80000054:	00000113          	li	sp,0
80000058:	00000193          	li	gp,0
8000005c:	00000213          	li	tp,0
80000060:	00000293          	li	t0,0
80000064:	00000313          	li	t1,0
80000068:	00000393          	li	t2,0
8000006c:	00000413          	li	s0,0
80000070:	00000493          	li	s1,0
80000074:	00000513          	li	a0,0
80000078:	00000593          	li	a1,0
8000007c:	00000613          	li	a2,0
80000080:	00000693          	li	a3,0
80000084:	00000713          	li	a4,0
80000088:	00000793          	li	a5,0
8000008c:	00000813          	li	a6,0
80000090:	00000893          	li	a7,0
80000094:	00000913          	li	s2,0
80000098:	00000993          	li	s3,0
8000009c:	00000a13          	li	s4,0
800000a0:	00000a93          	li	s5,0
800000a4:	00000b13          	li	s6,0
800000a8:	00000b93          	li	s7,0
800000ac:	00000c13          	li	s8,0
800000b0:	00000c93          	li	s9,0
800000b4:	00000d13          	li	s10,0
800000b8:	00000d93          	li	s11,0
800000bc:	00000e13          	li	t3,0
800000c0:	00000e93          	li	t4,0
800000c4:	00000f13          	li	t5,0
800000c8:	00000f93          	li	t6,0
800000cc:	f1402573          	csrr	a0,mhartid
800000d0:	00051063          	bnez	a0,800000d0 <reset_vector+0x80>
800000d4:	00000297          	auipc	t0,0x0
800000d8:	01028293          	addi	t0,t0,16 # 800000e4 <reset_vector+0x94>
800000dc:	30529073          	csrw	mtvec,t0
800000e0:	74445073          	csrwi	0x744,8
800000e4:	00000297          	auipc	t0,0x0
800000e8:	01028293          	addi	t0,t0,16 # 800000f4 <reset_vector+0xa4>
800000ec:	30529073          	csrw	mtvec,t0
800000f0:	18005073          	csrwi	satp,0
800000f4:	00000297          	auipc	t0,0x0
800000f8:	02028293          	addi	t0,t0,32 # 80000114 <reset_vector+0xc4>
800000fc:	30529073          	csrw	mtvec,t0
80000100:	800002b7          	lui	t0,0x80000
80000104:	fff28293          	addi	t0,t0,-1 # 7fffffff <__stack_size+0x7ffff7ff>
80000108:	3b029073          	csrw	pmpaddr0,t0
8000010c:	01f00293          	li	t0,31
80000110:	3a029073          	csrw	pmpcfg0,t0
80000114:	30405073          	csrwi	mie,0
80000118:	00000297          	auipc	t0,0x0
8000011c:	01428293          	addi	t0,t0,20 # 8000012c <reset_vector+0xdc>
80000120:	30529073          	csrw	mtvec,t0
80000124:	30205073          	csrwi	medeleg,0
80000128:	30305073          	csrwi	mideleg,0
8000012c:	00000193          	li	gp,0
80000130:	00000297          	auipc	t0,0x0
80000134:	ed428293          	addi	t0,t0,-300 # 80000004 <trap_vector>
80000138:	30529073          	csrw	mtvec,t0
8000013c:	00100513          	li	a0,1
80000140:	01f51513          	slli	a0,a0,0x1f
80000144:	00054c63          	bltz	a0,8000015c <reset_vector+0x10c>
80000148:	0ff0000f          	fence
8000014c:	00100193          	li	gp,1
80000150:	05d00893          	li	a7,93
80000154:	00000513          	li	a0,0
80000158:	00000073          	ecall
8000015c:	00000293          	li	t0,0
80000160:	00028a63          	beqz	t0,80000174 <reset_vector+0x124>
80000164:	10529073          	csrw	stvec,t0
80000168:	0000b2b7          	lui	t0,0xb
8000016c:	10928293          	addi	t0,t0,265 # b109 <__stack_size+0xa909>
80000170:	30229073          	csrw	medeleg,t0
80000174:	30005073          	csrwi	mstatus,0
80000178:	00000297          	auipc	t0,0x0
8000017c:	01428293          	addi	t0,t0,20 # 8000018c <test_2>
80000180:	34129073          	csrw	mepc,t0
80000184:	f1402573          	csrr	a0,mhartid
80000188:	30200073          	mret
8000018c:	00200193          	li	gp,2
80000190:	00ff07b7          	lui	a5,0xff0
80000194:	0ff78793          	addi	a5,a5,255 # ff00ff <__stack_size+0xfef8ff>
80000198:	20000117          	auipc	sp,0x20000
8000019c:	e6810113          	addi	sp,sp,-408 # a0000000 <begin_signature>
800001a0:	00012703          	lw	a4,0(sp)
800001a4:	00ff03b7          	lui	t2,0xff0
800001a8:	0ff38393          	addi	t2,t2,255 # ff00ff <__stack_size+0xfef8ff>
800001ac:	2a771663          	bne	a4,t2,80000458 <fail>
800001b0:	00300193          	li	gp,3
800001b4:	ff0107b7          	lui	a5,0xff010
800001b8:	f0078793          	addi	a5,a5,-256 # ff00ff00 <_end+0x5f00f478>
800001bc:	20000117          	auipc	sp,0x20000
800001c0:	e4410113          	addi	sp,sp,-444 # a0000000 <begin_signature>
800001c4:	00412703          	lw	a4,4(sp)
800001c8:	ff0103b7          	lui	t2,0xff010
800001cc:	f0038393          	addi	t2,t2,-256 # ff00ff00 <_end+0x5f00f478>
800001d0:	28771463          	bne	a4,t2,80000458 <fail>
800001d4:	00400193          	li	gp,4
800001d8:	0ff017b7          	lui	a5,0xff01
800001dc:	ff078793          	addi	a5,a5,-16 # ff00ff0 <__stack_size+0xff007f0>
800001e0:	20000117          	auipc	sp,0x20000
800001e4:	e2010113          	addi	sp,sp,-480 # a0000000 <begin_signature>
800001e8:	00812703          	lw	a4,8(sp)
800001ec:	0ff013b7          	lui	t2,0xff01
800001f0:	ff038393          	addi	t2,t2,-16 # ff00ff0 <__stack_size+0xff007f0>
800001f4:	26771263          	bne	a4,t2,80000458 <fail>
800001f8:	00500193          	li	gp,5
800001fc:	f00ff7b7          	lui	a5,0xf00ff
80000200:	00f78793          	addi	a5,a5,15 # f00ff00f <_end+0x500fe587>
80000204:	20000117          	auipc	sp,0x20000
80000208:	dfc10113          	addi	sp,sp,-516 # a0000000 <begin_signature>
8000020c:	00c12703          	lw	a4,12(sp)
80000210:	f00ff3b7          	lui	t2,0xf00ff
80000214:	00f38393          	addi	t2,t2,15 # f00ff00f <_end+0x500fe587>
80000218:	24771063          	bne	a4,t2,80000458 <fail>
8000021c:	00600193          	li	gp,6
80000220:	00ff07b7          	lui	a5,0xff0
80000224:	0ff78793          	addi	a5,a5,255 # ff00ff <__stack_size+0xfef8ff>
80000228:	20000117          	auipc	sp,0x20000
8000022c:	de410113          	addi	sp,sp,-540 # a000000c <tdat4>
80000230:	ff412703          	lw	a4,-12(sp)
80000234:	00ff03b7          	lui	t2,0xff0
80000238:	0ff38393          	addi	t2,t2,255 # ff00ff <__stack_size+0xfef8ff>
8000023c:	20771e63          	bne	a4,t2,80000458 <fail>
80000240:	00700193          	li	gp,7
80000244:	ff0107b7          	lui	a5,0xff010
80000248:	f0078793          	addi	a5,a5,-256 # ff00ff00 <_end+0x5f00f478>
8000024c:	20000117          	auipc	sp,0x20000
80000250:	dc010113          	addi	sp,sp,-576 # a000000c <tdat4>
80000254:	ff812703          	lw	a4,-8(sp)
80000258:	ff0103b7          	lui	t2,0xff010
8000025c:	f0038393          	addi	t2,t2,-256 # ff00ff00 <_end+0x5f00f478>
80000260:	1e771c63          	bne	a4,t2,80000458 <fail>
80000264:	00800193          	li	gp,8
80000268:	0ff017b7          	lui	a5,0xff01
8000026c:	ff078793          	addi	a5,a5,-16 # ff00ff0 <__stack_size+0xff007f0>
80000270:	20000117          	auipc	sp,0x20000
80000274:	d9c10113          	addi	sp,sp,-612 # a000000c <tdat4>
80000278:	ffc12703          	lw	a4,-4(sp)
8000027c:	0ff013b7          	lui	t2,0xff01
80000280:	ff038393          	addi	t2,t2,-16 # ff00ff0 <__stack_size+0xff007f0>
80000284:	1c771a63          	bne	a4,t2,80000458 <fail>
80000288:	00900193          	li	gp,9
8000028c:	f00ff7b7          	lui	a5,0xf00ff
80000290:	00f78793          	addi	a5,a5,15 # f00ff00f <_end+0x500fe587>
80000294:	20000117          	auipc	sp,0x20000
80000298:	d7810113          	addi	sp,sp,-648 # a000000c <tdat4>
8000029c:	00012703          	lw	a4,0(sp)
800002a0:	f00ff3b7          	lui	t2,0xf00ff
800002a4:	00f38393          	addi	t2,t2,15 # f00ff00f <_end+0x500fe587>
800002a8:	1a771863          	bne	a4,t2,80000458 <fail>
800002ac:	00a00193          	li	gp,10
800002b0:	20000097          	auipc	ra,0x20000
800002b4:	d5008093          	addi	ra,ra,-688 # a0000000 <begin_signature>
800002b8:	fe008093          	addi	ra,ra,-32
800002bc:	0200a283          	lw	t0,32(ra)
800002c0:	00ff03b7          	lui	t2,0xff0
800002c4:	0ff38393          	addi	t2,t2,255 # ff00ff <__stack_size+0xfef8ff>
800002c8:	18729863          	bne	t0,t2,80000458 <fail>
800002cc:	00b00193          	li	gp,11
800002d0:	20000097          	auipc	ra,0x20000
800002d4:	d3008093          	addi	ra,ra,-720 # a0000000 <begin_signature>
800002d8:	ffd08093          	addi	ra,ra,-3
800002dc:	0070a283          	lw	t0,7(ra)
800002e0:	ff0103b7          	lui	t2,0xff010
800002e4:	f0038393          	addi	t2,t2,-256 # ff00ff00 <_end+0x5f00f478>
800002e8:	16729863          	bne	t0,t2,80000458 <fail>
800002ec:	00c00193          	li	gp,12
800002f0:	00000213          	li	tp,0
800002f4:	20000697          	auipc	a3,0x20000
800002f8:	d1068693          	addi	a3,a3,-752 # a0000004 <tdat2>
800002fc:	0046a703          	lw	a4,4(a3)
80000300:	00070313          	mv	t1,a4
80000304:	0ff013b7          	lui	t2,0xff01
80000308:	ff038393          	addi	t2,t2,-16 # ff00ff0 <__stack_size+0xff007f0>
8000030c:	14731663          	bne	t1,t2,80000458 <fail>
80000310:	00120213          	addi	tp,tp,1 # 1 <__heap_size-0x1ff>
80000314:	00200293          	li	t0,2
80000318:	fc521ee3          	bne	tp,t0,800002f4 <test_12+0x8>
8000031c:	00d00193          	li	gp,13
80000320:	00000213          	li	tp,0
80000324:	20000697          	auipc	a3,0x20000
80000328:	ce468693          	addi	a3,a3,-796 # a0000008 <tdat3>
8000032c:	0046a703          	lw	a4,4(a3)
80000330:	00000013          	nop
80000334:	00070313          	mv	t1,a4
80000338:	f00ff3b7          	lui	t2,0xf00ff
8000033c:	00f38393          	addi	t2,t2,15 # f00ff00f <_end+0x500fe587>
80000340:	10731c63          	bne	t1,t2,80000458 <fail>
80000344:	00120213          	addi	tp,tp,1 # 1 <__heap_size-0x1ff>
80000348:	00200293          	li	t0,2
8000034c:	fc521ce3          	bne	tp,t0,80000324 <test_13+0x8>
80000350:	00e00193          	li	gp,14
80000354:	00000213          	li	tp,0
80000358:	20000697          	auipc	a3,0x20000
8000035c:	ca868693          	addi	a3,a3,-856 # a0000000 <begin_signature>
80000360:	0046a703          	lw	a4,4(a3)
80000364:	00000013          	nop
80000368:	00000013          	nop
8000036c:	00070313          	mv	t1,a4
80000370:	ff0103b7          	lui	t2,0xff010
80000374:	f0038393          	addi	t2,t2,-256 # ff00ff00 <_end+0x5f00f478>
80000378:	0e731063          	bne	t1,t2,80000458 <fail>
8000037c:	00120213          	addi	tp,tp,1 # 1 <__heap_size-0x1ff>
80000380:	00200293          	li	t0,2
80000384:	fc521ae3          	bne	tp,t0,80000358 <test_14+0x8>
80000388:	00f00193          	li	gp,15
8000038c:	00000213          	li	tp,0
80000390:	20000697          	auipc	a3,0x20000
80000394:	c7468693          	addi	a3,a3,-908 # a0000004 <tdat2>
80000398:	0046a703          	lw	a4,4(a3)
8000039c:	0ff013b7          	lui	t2,0xff01
800003a0:	ff038393          	addi	t2,t2,-16 # ff00ff0 <__stack_size+0xff007f0>
800003a4:	0a771a63          	bne	a4,t2,80000458 <fail>
800003a8:	00120213          	addi	tp,tp,1 # 1 <__heap_size-0x1ff>
800003ac:	00200293          	li	t0,2
800003b0:	fe5210e3          	bne	tp,t0,80000390 <test_15+0x8>
800003b4:	01000193          	li	gp,16
800003b8:	00000213          	li	tp,0
800003bc:	20000697          	auipc	a3,0x20000
800003c0:	c4c68693          	addi	a3,a3,-948 # a0000008 <tdat3>
800003c4:	00000013          	nop
800003c8:	0046a703          	lw	a4,4(a3)
800003cc:	f00ff3b7          	lui	t2,0xf00ff
800003d0:	00f38393          	addi	t2,t2,15 # f00ff00f <_end+0x500fe587>
800003d4:	08771263          	bne	a4,t2,80000458 <fail>
800003d8:	00120213          	addi	tp,tp,1 # 1 <__heap_size-0x1ff>
800003dc:	00200293          	li	t0,2
800003e0:	fc521ee3          	bne	tp,t0,800003bc <test_16+0x8>
800003e4:	01100193          	li	gp,17
800003e8:	00000213          	li	tp,0
800003ec:	20000697          	auipc	a3,0x20000
800003f0:	c1468693          	addi	a3,a3,-1004 # a0000000 <begin_signature>
800003f4:	00000013          	nop
800003f8:	00000013          	nop
800003fc:	0046a703          	lw	a4,4(a3)
80000400:	ff0103b7          	lui	t2,0xff010
80000404:	f0038393          	addi	t2,t2,-256 # ff00ff00 <_end+0x5f00f478>
80000408:	04771863          	bne	a4,t2,80000458 <fail>
8000040c:	00120213          	addi	tp,tp,1 # 1 <__heap_size-0x1ff>
80000410:	00200293          	li	t0,2
80000414:	fc521ce3          	bne	tp,t0,800003ec <test_17+0x8>
80000418:	01200193          	li	gp,18
8000041c:	20000297          	auipc	t0,0x20000
80000420:	be428293          	addi	t0,t0,-1052 # a0000000 <begin_signature>
80000424:	0002a103          	lw	sp,0(t0)
80000428:	00200113          	li	sp,2
8000042c:	00200393          	li	t2,2
80000430:	02711463          	bne	sp,t2,80000458 <fail>
80000434:	01300193          	li	gp,19
80000438:	20000297          	auipc	t0,0x20000
8000043c:	bc828293          	addi	t0,t0,-1080 # a0000000 <begin_signature>
80000440:	0002a103          	lw	sp,0(t0)
80000444:	00000013          	nop
80000448:	00200113          	li	sp,2
8000044c:	00200393          	li	t2,2
80000450:	00711463          	bne	sp,t2,80000458 <fail>
80000454:	02301063          	bne	zero,gp,80000474 <pass>
80000458:	0ff0000f          	fence
8000045c:	00018063          	beqz	gp,8000045c <fail+0x4>
80000460:	00119193          	slli	gp,gp,0x1
80000464:	0011e193          	ori	gp,gp,1
80000468:	05d00893          	li	a7,93
8000046c:	00018513          	mv	a0,gp
80000470:	00000073          	ecall
80000474:	0ff0000f          	fence
80000478:	00100193          	li	gp,1
8000047c:	05d00893          	li	a7,93
80000480:	00000513          	li	a0,0
80000484:	00000073          	ecall
80000488:	c0001073          	unimp
8000048c:	0000                	.insn	2, 0x
8000048e:	0000                	.insn	2, 0x
80000490:	0000                	.insn	2, 0x
80000492:	0000                	.insn	2, 0x
80000494:	0000                	.insn	2, 0x
80000496:	0000                	.insn	2, 0x
80000498:	0000                	.insn	2, 0x
8000049a:	0000                	.insn	2, 0x
8000049c:	0000                	.insn	2, 0x
8000049e:	0000                	.insn	2, 0x
800004a0:	0000                	.insn	2, 0x
800004a2:	0000                	.insn	2, 0x
800004a4:	0000                	.insn	2, 0x
800004a6:	0000                	.insn	2, 0x
800004a8:	0000                	.insn	2, 0x
800004aa:	0000                	.insn	2, 0x
800004ac:	0000                	.insn	2, 0x
800004ae:	0000                	.insn	2, 0x
800004b0:	0000                	.insn	2, 0x
800004b2:	0000                	.insn	2, 0x
800004b4:	0000                	.insn	2, 0x
800004b6:	0000                	.insn	2, 0x
800004b8:	0000                	.insn	2, 0x
800004ba:	0000                	.insn	2, 0x
a0000000:	00ff 00ff   	.insn	10, 0x0ff0ff00ff0000ff00ff
a0000004:	ff00                	.insn	2, 0xff00
a0000006:	ff00                	.insn	2, 0xff00
a0000008:	0ff0                	.insn	2, 0x0ff0
a000000a:	0ff0                	.insn	2, 0x0ff0
a000000c:	f00ff00f          	.insn	4, 0xf00ff00f
80000000:	0500006f          	j	80000050 <reset_vector>
80000004:	34202f73          	csrr	t5,mcause
80000008:	00800f93          	li	t6,8
8000000c:	03ff0863          	beq	t5,t6,8000003c <write_tohost>
80000010:	00900f93          	li	t6,9
80000014:	03ff0463          	beq	t5,t6,8000003c <write_tohost>
80000018:	00b00f93          	li	t6,11
8000001c:	03ff0063          	beq	t5,t6,8000003c <write_tohost>
80000020:	00000f13          	li	t5,0
80000024:	000f0463          	beqz	t5,8000002c <trap_vector+0x28>
80000028:	000f0067          	jr	t5
8000002c:	34202f73          	csrr	t5,mcause
80000030:	000f5463          	bgez	t5,80000038 <handle_exception>
80000034:	0040006f          	j	80000038 <handle_exception>
80000038:	5391e193          	ori	gp,gp,1337
8000003c:	20000f17          	auipc	t5,0x20000
80000040:	fc3f2223          	sw	gp,-60(t5) # a0000000 <tohost>
80000044:	20000f17          	auipc	t5,0x20000
80000048:	fc0f2023          	sw	zero,-64(t5) # a0000004 <tohost+0x4>
8000004c:	ff1ff06f          	j	8000003c <write_tohost>
80000050:	00000093          	li	ra,0
80000054:	00000113          	li	sp,0
80000058:	00000193          	li	gp,0
8000005c:	00000213          	li	tp,0
80000060:	00000293          	li	t0,0
80000064:	00000313          	li	t1,0
80000068:	00000393          	li	t2,0
8000006c:	00000413          	li	s0,0
80000070:	00000493          	li	s1,0
80000074:	00000513          	li	a0,0
80000078:	00000593          	li	a1,0
8000007c:	00000613          	li	a2,0
80000080:	00000693          	li	a3,0
80000084:	00000713          	li	a4,0
80000088:	00000793          	li	a5,0
8000008c:	00000813          	li	a6,0
80000090:	00000893          	li	a7,0
80000094:	00000913          	li	s2,0
80000098:	00000993          	li	s3,0
8000009c:	00000a13          	li	s4,0
800000a0:	00000a93          	li	s5,0
800000a4:	00000b13          	li	s6,0
800000a8:	00000b93          	li	s7,0
800000ac:	00000c13          	li	s8,0
800000b0:	00000c93          	li	s9,0
800000b4:	00000d13          	li	s10,0
800000b8:	00000d93          	li	s11,0
800000bc:	00000e13          	li	t3,0
800000c0:	00000e93          	li	t4,0
800000c4:	00000f13          	li	t5,0
800000c8:	00000f93          	li	t6,0
800000cc:	f1402573          	csrr	a0,mhartid
800000d0:	00051063          	bnez	a0,800000d0 <reset_vector+0x80>
800000d4:	00000297          	auipc	t0,0x0
800000d8:	01028293          	addi	t0,t0,16 # 800000e4 <reset_vector+0x94>
800000dc:	30529073          	csrw	mtvec,t0
800000e0:	74445073          	csrwi	0x744,8
800000e4:	00000297          	auipc	t0,0x0
800000e8:	01028293          	addi	t0,t0,16 # 800000f4 <reset_vector+0xa4>
800000ec:	30529073          	csrw	mtvec,t0
800000f0:	18005073          	csrwi	satp,0
800000f4:	00000297          	auipc	t0,0x0
800000f8:	02028293          	addi	t0,t0,32 # 80000114 <reset_vector+0xc4>
800000fc:	30529073          	csrw	mtvec,t0
80000100:	800002b7          	lui	t0,0x80000
80000104:	fff28293          	addi	t0,t0,-1 # 7fffffff <__stack_size+0x7ffff7ff>
80000108:	3b029073          	csrw	pmpaddr0,t0
8000010c:	01f00293          	li	t0,31
80000110:	3a029073          	csrw	pmpcfg0,t0
80000114:	30405073          	csrwi	mie,0
80000118:	00000297          	auipc	t0,0x0
8000011c:	01428293          	addi	t0,t0,20 # 8000012c <reset_vector+0xdc>
80000120:	30529073          	csrw	mtvec,t0
80000124:	30205073          	csrwi	medeleg,0
80000128:	30305073          	csrwi	mideleg,0
8000012c:	00000193          	li	gp,0
80000130:	00000297          	auipc	t0,0x0
80000134:	ed428293          	addi	t0,t0,-300 # 80000004 <trap_vector>
80000138:	30529073          	csrw	mtvec,t0
8000013c:	00100513          	li	a0,1
80000140:	01f51513          	slli	a0,a0,0x1f
80000144:	00054c63          	bltz	a0,8000015c <reset_vector+0x10c>
80000148:	0ff0000f          	fence
8000014c:	00100193          	li	gp,1
80000150:	05d00893          	li	a7,93
80000154:	00000513          	li	a0,0
80000158:	00000073          	ecall
8000015c:	00000293          	li	t0,0
80000160:	00028a63          	beqz	t0,80000174 <reset_vector+0x124>
80000164:	10529073          	csrw	stvec,t0
80000168:	0000b2b7          	lui	t0,0xb
8000016c:	10928293          	addi	t0,t0,265 # b109 <__stack_size+0xa909>
80000170:	30229073          	csrw	medeleg,t0
80000174:	30005073          	csrwi	mstatus,0
80000178:	00000297          	auipc	t0,0x0
8000017c:	01428293          	addi	t0,t0,20 # 8000018c <test_2>
80000180:	34129073          	csrw	mepc,t0
80000184:	f1402573          	csrr	a0,mhartid
80000188:	30200073          	mret
8000018c:	00200193          	li	gp,2
80000190:	00000093          	li	ra,0
80000194:	00100113          	li	sp,1
80000198:	00209663          	bne	ra,sp,800001a4 <test_2+0x18>
8000019c:	2a301a63          	bne	zero,gp,80000450 <fail>
800001a0:	00301663          	bne	zero,gp,800001ac <test_3>
800001a4:	fe209ee3          	bne	ra,sp,800001a0 <test_2+0x14>
800001a8:	2a301463          	bne	zero,gp,80000450 <fail>
800001ac:	00300193          	li	gp,3
800001b0:	00100093          	li	ra,1
800001b4:	00000113          	li	sp,0
800001b8:	00209663          	bne	ra,sp,800001c4 <test_3+0x18>
800001bc:	28301a63          	bne	zero,gp,80000450 <fail>
800001c0:	00301663          	bne	zero,gp,800001cc <test_4>
800001c4:	fe209ee3          	bne	ra,sp,800001c0 <test_3+0x14>
800001c8:	28301463          	bne	zero,gp,80000450 <fail>
800001cc:	00400193          	li	gp,4
800001d0:	fff00093          	li	ra,-1
800001d4:	00100113          	li	sp,1
800001d8:	00209663          	bne	ra,sp,800001e4 <test_4+0x18>
800001dc:	26301a63          	bne	zero,gp,80000450 <fail>
800001e0:	00301663          	bne	zero,gp,800001ec <test_5>
800001e4:	fe209ee3          	bne	ra,sp,800001e0 <test_4+0x14>
800001e8:	26301463          	bne	zero,gp,80000450 <fail>
800001ec:	00500193          	li	gp,5
800001f0:	00100093          	li	ra,1
800001f4:	fff00113          	li	sp,-1
800001f8:	00209663          	bne	ra,sp,80000204 <test_5+0x18>
800001fc:	24301a63          	bne	zero,gp,80000450 <fail>
80000200:	00301663          	bne	zero,gp,8000020c <test_6>
80000204:	fe209ee3          	bne	ra,sp,80000200 <test_5+0x14>
80000208:	24301463          	bne	zero,gp,80000450 <fail>
8000020c:	00600193          	li	gp,6
80000210:	00000093          	li	ra,0
80000214:	00000113          	li	sp,0
80000218:	00209463          	bne	ra,sp,80000220 <test_6+0x14>
8000021c:	00301463          	bne	zero,gp,80000224 <test_6+0x18>
80000220:	22301863          	bne	zero,gp,80000450 <fail>
80000224:	fe209ee3          	bne	ra,sp,80000220 <test_6+0x14>
80000228:	00700193          	li	gp,7
8000022c:	00100093          	li	ra,1
80000230:	00100113          	li	sp,1
80000234:	00209463          	bne	ra,sp,8000023c <test_7+0x14>
80000238:	00301463          	bne	zero,gp,80000240 <test_7+0x18>
8000023c:	20301a63          	bne	zero,gp,80000450 <fail>
80000240:	fe209ee3          	bne	ra,sp,8000023c <test_7+0x14>
80000244:	00800193          	li	gp,8
80000248:	fff00093          	li	ra,-1
8000024c:	fff00113          	li	sp,-1
80000250:	00209463          	bne	ra,sp,80000258 <test_8+0x14>
80000254:	00301463          	bne	zero,gp,8000025c <test_8+0x18>
80000258:	1e301c63          	bne	zero,gp,80000450 <fail>
8000025c:	fe209ee3          	bne	ra,sp,80000258 <test_8+0x14>
80000260:	00900193          	li	gp,9
80000264:	00000213          	li	tp,0
80000268:	00000093          	li	ra,0
8000026c:	00000113          	li	sp,0
80000270:	1e209063          	bne	ra,sp,80000450 <fail>
80000274:	00120213          	addi	tp,tp,1 # 1 <__heap_size-0x1ff>
80000278:	00200293          	li	t0,2
8000027c:	fe5216e3          	bne	tp,t0,80000268 <test_9+0x8>
80000280:	00a00193          	li	gp,10
80000284:	00000213          	li	tp,0
80000288:	00000093          	li	ra,0
8000028c:	00000113          	li	sp,0
80000290:	00000013          	nop
80000294:	1a209e63          	bne	ra,sp,80000450 <fail>
80000298:	00120213          	addi	tp,tp,1 # 1 <__heap_size-0x1ff>
8000029c:	00200293          	li	t0,2
800002a0:	fe5214e3          	bne	tp,t0,80000288 <test_10+0x8>
800002a4:	00b00193          	li	gp,11
800002a8:	00000213          	li	tp,0
800002ac:	00000093          	li	ra,0
800002b0:	00000113          	li	sp,0
800002b4:	00000013          	nop
800002b8:	00000013          	nop
800002bc:	18209a63          	bne	ra,sp,80000450 <fail>
800002c0:	00120213          	addi	tp,tp,1 # 1 <__heap_size-0x1ff>
800002c4:	00200293          	li	t0,2
800002c8:	fe5212e3          	bne	tp,t0,800002ac <test_11+0x8>
800002cc:	00c00193          	li	gp,12
800002d0:	00000213          	li	tp,0
800002d4:	00000093          	li	ra,0
800002d8:	00000013          	nop
800002dc:	00000113          	li	sp,0
800002e0:	16209863          	bne	ra,sp,80000450 <fail>
800002e4:	00120213          	addi	tp,tp,1 # 1 <__heap_size-0x1ff>
800002e8:	00200293          	li	t0,2
800002ec:	fe5214e3          	bne	tp,t0,800002d4 <test_12+0x8>
800002f0:	00d00193          	li	gp,13
800002f4:	00000213          	li	tp,0
800002f8:	00000093          	li	ra,0
800002fc:	00000013          	nop
80000300:	00000113          	li	sp,0
80000304:	00000013          	nop
80000308:	14209463          	bne	ra,sp,80000450 <fail>
8000030c:	00120213          	addi	tp,tp,1 # 1 <__heap_size-0x1ff>
80000310:	00200293          	li	t0,2
80000314:	fe5212e3          	bne	tp,t0,800002f8 <test_13+0x8>
80000318:	00e00193          	li	gp,14
8000031c:	00000213          	li	tp,0
80000320:	00000093          	li	ra,0
80000324:	00000013          	nop
80000328:	00000013          	nop
8000032c:	00000113          	li	sp,0
80000330:	12209063          	bne	ra,sp,80000450 <fail>
80000334:	00120213          	addi	tp,tp,1 # 1 <__heap_size-0x1ff>
80000338:	00200293          	li	t0,2
8000033c:	fe5212e3          	bne	tp,t0,80000320 <test_14+0x8>
80000340:	00f00193          	li	gp,15
80000344:	00000213          	li	tp,0
80000348:	00000093          	li	ra,0
8000034c:	00000113          	li	sp,0
80000350:	10209063          	bne	ra,sp,80000450 <fail>
80000354:	00120213          	addi	tp,tp,1 # 1 <__heap_size-0x1ff>
80000358:	00200293          	li	t0,2
8000035c:	fe5216e3          	bne	tp,t0,80000348 <test_15+0x8>
80000360:	01000193          	li	gp,16
80000364:	00000213          	li	tp,0
80000368:	00000093          	li	ra,0
8000036c:	00000113          	li	sp,0
80000370:	00000013          	nop
80000374:	0c209e63          	bne	ra,sp,80000450 <fail>
80000378:	00120213          	addi	tp,tp,1 # 1 <__heap_size-0x1ff>
8000037c:	00200293          	li	t0,2
80000380:	fe5214e3          	bne	tp,t0,80000368 <test_16+0x8>
80000384:	01100193          	li	gp,17
80000388:	00000213          	li	tp,0
8000038c:	00000093          	li	ra,0
80000390:	00000113          	li	sp,0
80000394:	00000013          	nop
80000398:	00000013          	nop
8000039c:	0a209a63          	bne	ra,sp,80000450 <fail>
800003a0:	00120213          	addi	tp,tp,1 # 1 <__heap_size-0x1ff>
800003a4:	00200293          	li	t0,2
800003a8:	fe5212e3          	bne	tp,t0,8000038c <test_17+0x8>
800003ac:	01200193          	li	gp,18
800003b0:	00000213          	li	tp,0
800003b4:	00000093          	li	ra,0
800003b8:	00000013          	nop
800003bc:	00000113          	li	sp,0
800003c0:	08209863          	bne	ra,sp,80000450 <fail>
800003c4:	00120213          	addi	tp,tp,1 # 1 <__heap_size-0x1ff>
800003c8:	00200293          	li	t0,2
800003cc:	fe5214e3          	bne	tp,t0,800003b4 <test_18+0x8>
800003d0:	01300193          	li	gp,19
800003d4:	00000213          	li	tp,0
800003d8:	00000093          	li	ra,0
800003dc:	00000013          	nop
800003e0:	00000113          	li	sp,0
800003e4:	00000013          	nop
800003e8:	06209463          	bne	ra,sp,80000450 <fail>
800003ec:	00120213          	addi	tp,tp,1 # 1 <__heap_size-0x1ff>
800003f0:	00200293          	li	t0,2
800003f4:	fe5212e3          	bne	tp,t0,800003d8 <test_19+0x8>
800003f8:	01400193          	li	gp,20
800003fc:	00000213          	li	tp,0
80000400:	00000093          	li	ra,0
80000404:	00000013          	nop
80000408:	00000013          	nop
8000040c:	00000113          	li	sp,0
80000410:	04209063          	bne	ra,sp,80000450 <fail>
80000414:	00120213          	addi	tp,tp,1 # 1 <__heap_size-0x1ff>
80000418:	00200293          	li	t0,2
8000041c:	fe5212e3          	bne	tp,t0,80000400 <test_20+0x8>
80000420:	01500193          	li	gp,21
80000424:	00100093          	li	ra,1
80000428:	00009a63          	bnez	ra,8000043c <test_21+0x1c>
8000042c:	00108093          	addi	ra,ra,1
80000430:	00108093          	addi	ra,ra,1
80000434:	00108093          	addi	ra,ra,1
80000438:	00108093          	addi	ra,ra,1
8000043c:	00108093          	addi	ra,ra,1
80000440:	00108093          	addi	ra,ra,1
80000444:	00300393          	li	t2,3
80000448:	00709463          	bne	ra,t2,80000450 <fail>
8000044c:	02301063          	bne	zero,gp,8000046c <pass>
80000450:	0ff0000f          	fence
80000454:	00018063          	beqz	gp,80000454 <fail+0x4>
80000458:	00119193          	slli	gp,gp,0x1
8000045c:	0011e193          	ori	gp,gp,1
80000460:	05d00893          	li	a7,93
80000464:	00018513          	mv	a0,gp
80000468:	00000073          	ecall
8000046c:	0ff0000f          	fence
80000470:	00100193          	li	gp,1
80000474:	05d00893          	li	a7,93
80000478:	00000513          	li	a0,0
8000047c:	00000073          	ecall
80000480:	c0001073          	unimp
80000484:	0000                	.insn	2, 0x
80000486:	0000                	.insn	2, 0x
80000488:	0000                	.insn	2, 0x
8000048a:	0000                	.insn	2, 0x
8000048c:	0000                	.insn	2, 0x
8000048e:	0000                	.insn	2, 0x
80000490:	0000                	.insn	2, 0x
80000492:	0000                	.insn	2, 0x
80000494:	0000                	.insn	2, 0x
80000496:	0000                	.insn	2, 0x
80000498:	0000                	.insn	2, 0x
8000049a:	0000                	.insn	2, 0x
8000049c:	0000                	.insn	2, 0x
8000049e:	0000                	.insn	2, 0x
800004a0:	0000                	.insn	2, 0x
800004a2:	0000                	.insn	2, 0x
800004a4:	0000                	.insn	2, 0x
800004a6:	0000                	.insn	2, 0x
800004a8:	0000                	.insn	2, 0x
800004aa:	0000                	.insn	2, 0x
800004ac:	0000                	.insn	2, 0x
800004ae:	0000                	.insn	2, 0x
800004b0:	0000                	.insn	2, 0x
800004b2:	0000                	.insn	2, 0x
800004b4:	0000                	.insn	2, 0x
800004b6:	0000                	.insn	2, 0x
800004b8:	0000                	.insn	2, 0x
800004ba:	0000                	.insn	2, 0x
80000000:	0500006f          	j	80000050 <reset_vector>
80000004:	34202f73          	csrr	t5,mcause
80000008:	00800f93          	li	t6,8
8000000c:	03ff0863          	beq	t5,t6,8000003c <write_tohost>
80000010:	00900f93          	li	t6,9
80000014:	03ff0463          	beq	t5,t6,8000003c <write_tohost>
80000018:	00b00f93          	li	t6,11
8000001c:	03ff0063          	beq	t5,t6,8000003c <write_tohost>
80000020:	00000f13          	li	t5,0
80000024:	000f0463          	beqz	t5,8000002c <trap_vector+0x28>
80000028:	000f0067          	jr	t5
8000002c:	34202f73          	csrr	t5,mcause
80000030:	000f5463          	bgez	t5,80000038 <handle_exception>
80000034:	0040006f          	j	80000038 <handle_exception>
80000038:	5391e193          	ori	gp,gp,1337
8000003c:	20000f17          	auipc	t5,0x20000
80000040:	fc3f2223          	sw	gp,-60(t5) # a0000000 <tohost>
80000044:	20000f17          	auipc	t5,0x20000
80000048:	fc0f2023          	sw	zero,-64(t5) # a0000004 <tohost+0x4>
8000004c:	ff1ff06f          	j	8000003c <write_tohost>
80000050:	00000093          	li	ra,0
80000054:	00000113          	li	sp,0
80000058:	00000193          	li	gp,0
8000005c:	00000213          	li	tp,0
80000060:	00000293          	li	t0,0
80000064:	00000313          	li	t1,0
80000068:	00000393          	li	t2,0
8000006c:	00000413          	li	s0,0
80000070:	00000493          	li	s1,0
80000074:	00000513          	li	a0,0
80000078:	00000593          	li	a1,0
8000007c:	00000613          	li	a2,0
80000080:	00000693          	li	a3,0
80000084:	00000713          	li	a4,0
80000088:	00000793          	li	a5,0
8000008c:	00000813          	li	a6,0
80000090:	00000893          	li	a7,0
80000094:	00000913          	li	s2,0
80000098:	00000993          	li	s3,0
8000009c:	00000a13          	li	s4,0
800000a0:	00000a93          	li	s5,0
800000a4:	00000b13          	li	s6,0
800000a8:	00000b93          	li	s7,0
800000ac:	00000c13          	li	s8,0
800000b0:	00000c93          	li	s9,0
800000b4:	00000d13          	li	s10,0
800000b8:	00000d93          	li	s11,0
800000bc:	00000e13          	li	t3,0
800000c0:	00000e93          	li	t4,0
800000c4:	00000f13          	li	t5,0
800000c8:	00000f93          	li	t6,0
800000cc:	f1402573          	csrr	a0,mhartid
800000d0:	00051063          	bnez	a0,800000d0 <reset_vector+0x80>
800000d4:	00000297          	auipc	t0,0x0
800000d8:	01028293          	addi	t0,t0,16 # 800000e4 <reset_vector+0x94>
800000dc:	30529073          	csrw	mtvec,t0
800000e0:	74445073          	csrwi	0x744,8
800000e4:	00000297          	auipc	t0,0x0
800000e8:	01028293          	addi	t0,t0,16 # 800000f4 <reset_vector+0xa4>
800000ec:	30529073          	csrw	mtvec,t0
800000f0:	18005073          	csrwi	satp,0
800000f4:	00000297          	auipc	t0,0x0
800000f8:	02028293          	addi	t0,t0,32 # 80000114 <reset_vector+0xc4>
800000fc:	30529073          	csrw	mtvec,t0
80000100:	800002b7          	lui	t0,0x80000
80000104:	fff28293          	addi	t0,t0,-1 # 7fffffff <__stack_size+0x7ffff7ff>
80000108:	3b029073          	csrw	pmpaddr0,t0
8000010c:	01f00293          	li	t0,31
80000110:	3a029073          	csrw	pmpcfg0,t0
80000114:	30405073          	csrwi	mie,0
80000118:	00000297          	auipc	t0,0x0
8000011c:	01428293          	addi	t0,t0,20 # 8000012c <reset_vector+0xdc>
80000120:	30529073          	csrw	mtvec,t0
80000124:	30205073          	csrwi	medeleg,0
80000128:	30305073          	csrwi	mideleg,0
8000012c:	00000193          	li	gp,0
80000130:	00000297          	auipc	t0,0x0
80000134:	ed428293          	addi	t0,t0,-300 # 80000004 <trap_vector>
80000138:	30529073          	csrw	mtvec,t0
8000013c:	00100513          	li	a0,1
80000140:	01f51513          	slli	a0,a0,0x1f
80000144:	00054c63          	bltz	a0,8000015c <reset_vector+0x10c>
80000148:	0ff0000f          	fence
8000014c:	00100193          	li	gp,1
80000150:	05d00893          	li	a7,93
80000154:	00000513          	li	a0,0
80000158:	00000073          	ecall
8000015c:	00000293          	li	t0,0
80000160:	00028a63          	beqz	t0,80000174 <reset_vector+0x124>
80000164:	10529073          	csrw	stvec,t0
80000168:	0000b2b7          	lui	t0,0xb
8000016c:	10928293          	addi	t0,t0,265 # b109 <__stack_size+0xa909>
80000170:	30229073          	csrw	medeleg,t0
80000174:	30005073          	csrwi	mstatus,0
80000178:	00000297          	auipc	t0,0x0
8000017c:	01428293          	addi	t0,t0,20 # 8000018c <test_2>
80000180:	34129073          	csrw	mepc,t0
80000184:	f1402573          	csrr	a0,mhartid
80000188:	30200073          	mret
8000018c:	00200193          	li	gp,2
80000190:	00000293          	li	t0,0
80000194:	00000317          	auipc	t1,0x0
80000198:	01030313          	addi	t1,t1,16 # 800001a4 <target_2>
8000019c:	000302e7          	jalr	t0,t1
800001a0:	0e00006f          	j	80000280 <fail>
800001a4:	00000317          	auipc	t1,0x0
800001a8:	ffc30313          	addi	t1,t1,-4 # 800001a0 <linkaddr_2>
800001ac:	0c629a63          	bne	t0,t1,80000280 <fail>
800001b0:	00300193          	li	gp,3
800001b4:	00000297          	auipc	t0,0x0
800001b8:	01028293          	addi	t0,t0,16 # 800001c4 <target_3>
800001bc:	000282e7          	jalr	t0,t0
800001c0:	0c00006f          	j	80000280 <fail>
800001c4:	00000317          	auipc	t1,0x0
800001c8:	ffc30313          	addi	t1,t1,-4 # 800001c0 <linkaddr_3>
800001cc:	0a629a63          	bne	t0,t1,80000280 <fail>
800001d0:	00400193          	li	gp,4
800001d4:	00000213          	li	tp,0
800001d8:	00000317          	auipc	t1,0x0
800001dc:	01030313          	addi	t1,t1,16 # 800001e8 <test_4+0x18>
800001e0:	000306e7          	jalr	a3,t1
800001e4:	08301e63          	bne	zero,gp,80000280 <fail>
800001e8:	00120213          	addi	tp,tp,1 # 1 <__heap_size-0x1ff>
800001ec:	00200293          	li	t0,2
800001f0:	fe5214e3          	bne	tp,t0,800001d8 <test_4+0x8>
800001f4:	00500193          	li	gp,5
800001f8:	00000213          	li	tp,0
800001fc:	00000317          	auipc	t1,0x0
80000200:	01430313          	addi	t1,t1,20 # 80000210 <test_5+0x1c>
80000204:	00000013          	nop
80000208:	000306e7          	jalr	a3,t1
8000020c:	06301a63          	bne	zero,gp,80000280 <fail>
80000210:	00120213          	addi	tp,tp,1 # 1 <__heap_size-0x1ff>
80000214:	00200293          	li	t0,2
80000218:	fe5212e3          	bne	tp,t0,800001fc <test_5+0x8>
8000021c:	00600193          	li	gp,6
80000220:	00000213          	li	tp,0
80000224:	00000317          	auipc	t1,0x0
80000228:	01830313          	addi	t1,t1,24 # 8000023c <test_6+0x20>
8000022c:	00000013          	nop
80000230:	00000013          	nop
80000234:	000306e7          	jalr	a3,t1
80000238:	04301463          	bne	zero,gp,80000280 <fail>
8000023c:	00120213          	addi	tp,tp,1 # 1 <__heap_size-0x1ff>
80000240:	00200293          	li	t0,2
80000244:	fe5210e3          	bne	tp,t0,80000224 <test_6+0x8>
80000248:	00700193          	li	gp,7
8000024c:	00100293          	li	t0,1
80000250:	00000317          	auipc	t1,0x0
80000254:	01c30313          	addi	t1,t1,28 # 8000026c <test_7+0x24>
80000258:	ffc30067          	jr	-4(t1)
8000025c:	00128293          	addi	t0,t0,1
80000260:	00128293          	addi	t0,t0,1
80000264:	00128293          	addi	t0,t0,1
80000268:	00128293          	addi	t0,t0,1
8000026c:	00128293          	addi	t0,t0,1
80000270:	00128293          	addi	t0,t0,1
80000274:	00400393          	li	t2,4
80000278:	00729463          	bne	t0,t2,80000280 <fail>
8000027c:	02301063          	bne	zero,gp,8000029c <pass>
80000280:	0ff0000f          	fence
80000284:	00018063          	beqz	gp,80000284 <fail+0x4>
80000288:	00119193          	slli	gp,gp,0x1
8000028c:	0011e193          	ori	gp,gp,1
80000290:	05d00893          	li	a7,93
80000294:	00018513          	mv	a0,gp
80000298:	00000073          	ecall
8000029c:	0ff0000f          	fence
800002a0:	00100193          	li	gp,1
800002a4:	05d00893          	li	a7,93
800002a8:	00000513          	li	a0,0
800002ac:	00000073          	ecall
800002b0:	c0001073          	unimp
800002b4:	0000                	.insn	2, 0x
800002b6:	0000                	.insn	2, 0x
800002b8:	0000                	.insn	2, 0x
800002ba:	0000                	.insn	2, 0x
80000000:	0500006f          	j	80000050 <reset_vector>
80000004:	34202f73          	csrr	t5,mcause
80000008:	00800f93          	li	t6,8
8000000c:	03ff0863          	beq	t5,t6,8000003c <write_tohost>
80000010:	00900f93          	li	t6,9
80000014:	03ff0463          	beq	t5,t6,8000003c <write_tohost>
80000018:	00b00f93          	li	t6,11
8000001c:	03ff0063          	beq	t5,t6,8000003c <write_tohost>
80000020:	00000f13          	li	t5,0
80000024:	000f0463          	beqz	t5,8000002c <trap_vector+0x28>
80000028:	000f0067          	jr	t5
8000002c:	34202f73          	csrr	t5,mcause
80000030:	000f5463          	bgez	t5,80000038 <handle_exception>
80000034:	0040006f          	j	80000038 <handle_exception>
80000038:	5391e193          	ori	gp,gp,1337
8000003c:	20000f17          	auipc	t5,0x20000
80000040:	003f2223          	sw	gp,4(t5) # a0000040 <tohost>
80000044:	20000f17          	auipc	t5,0x20000
80000048:	000f2023          	sw	zero,0(t5) # a0000044 <tohost+0x4>
8000004c:	ff1ff06f          	j	8000003c <write_tohost>
80000050:	00000093          	li	ra,0
80000054:	00000113          	li	sp,0
80000058:	00000193          	li	gp,0
8000005c:	00000213          	li	tp,0
80000060:	00000293          	li	t0,0
80000064:	00000313          	li	t1,0
80000068:	00000393          	li	t2,0
8000006c:	00000413          	li	s0,0
80000070:	00000493          	li	s1,0
80000074:	00000513          	li	a0,0
80000078:	00000593          	li	a1,0
8000007c:	00000613          	li	a2,0
80000080:	00000693          	li	a3,0
80000084:	00000713          	li	a4,0
80000088:	00000793          	li	a5,0
8000008c:	00000813          	li	a6,0
80000090:	00000893          	li	a7,0
80000094:	00000913          	li	s2,0
80000098:	00000993          	li	s3,0
8000009c:	00000a13          	li	s4,0
800000a0:	00000a93          	li	s5,0
800000a4:	00000b13          	li	s6,0
800000a8:	00000b93          	li	s7,0
800000ac:	00000c13          	li	s8,0
800000b0:	00000c93          	li	s9,0
800000b4:	00000d13          	li	s10,0
800000b8:	00000d93          	li	s11,0
800000bc:	00000e13          	li	t3,0
800000c0:	00000e93          	li	t4,0
800000c4:	00000f13          	li	t5,0
800000c8:	00000f93          	li	t6,0
800000cc:	f1402573          	csrr	a0,mhartid
800000d0:	00051063          	bnez	a0,800000d0 <reset_vector+0x80>
800000d4:	00000297          	auipc	t0,0x0
800000d8:	01028293          	addi	t0,t0,16 # 800000e4 <reset_vector+0x94>
800000dc:	30529073          	csrw	mtvec,t0
800000e0:	74445073          	csrwi	0x744,8
800000e4:	00000297          	auipc	t0,0x0
800000e8:	01028293          	addi	t0,t0,16 # 800000f4 <reset_vector+0xa4>
800000ec:	30529073          	csrw	mtvec,t0
800000f0:	18005073          	csrwi	satp,0
800000f4:	00000297          	auipc	t0,0x0
800000f8:	02028293          	addi	t0,t0,32 # 80000114 <reset_vector+0xc4>
800000fc:	30529073          	csrw	mtvec,t0
80000100:	800002b7          	lui	t0,0x80000
80000104:	fff28293          	addi	t0,t0,-1 # 7fffffff <__stack_size+0x7ffff7ff>
80000108:	3b029073          	csrw	pmpaddr0,t0
8000010c:	01f00293          	li	t0,31
80000110:	3a029073          	csrw	pmpcfg0,t0
80000114:	30405073          	csrwi	mie,0
80000118:	00000297          	auipc	t0,0x0
8000011c:	01428293          	addi	t0,t0,20 # 8000012c <reset_vector+0xdc>
80000120:	30529073          	csrw	mtvec,t0
80000124:	30205073          	csrwi	medeleg,0
80000128:	30305073          	csrwi	mideleg,0
8000012c:	00000193          	li	gp,0
80000130:	00000297          	auipc	t0,0x0
80000134:	ed428293          	addi	t0,t0,-300 # 80000004 <trap_vector>
80000138:	30529073          	csrw	mtvec,t0
8000013c:	00100513          	li	a0,1
80000140:	01f51513          	slli	a0,a0,0x1f
80000144:	00054c63          	bltz	a0,8000015c <reset_vector+0x10c>
80000148:	0ff0000f          	fence
8000014c:	00100193          	li	gp,1
80000150:	05d00893          	li	a7,93
80000154:	00000513          	li	a0,0
80000158:	00000073          	ecall
8000015c:	00000293          	li	t0,0
80000160:	00028a63          	beqz	t0,80000174 <reset_vector+0x124>
80000164:	10529073          	csrw	stvec,t0
80000168:	0000b2b7          	lui	t0,0xb
8000016c:	10928293          	addi	t0,t0,265 # b109 <__stack_size+0xa909>
80000170:	30229073          	csrw	medeleg,t0
80000174:	30005073          	csrwi	mstatus,0
80000178:	00000297          	auipc	t0,0x0
8000017c:	01428293          	addi	t0,t0,20 # 8000018c <test_2>
80000180:	34129073          	csrw	mepc,t0
80000184:	f1402573          	csrr	a0,mhartid
80000188:	30200073          	mret
8000018c:	00200193          	li	gp,2
80000190:	0ff00793          	li	a5,255
80000194:	20000117          	auipc	sp,0x20000
80000198:	e6c10113          	addi	sp,sp,-404 # a0000000 <begin_signature>
8000019c:	00015703          	lhu	a4,0(sp)
800001a0:	0ff00393          	li	t2,255
800001a4:	2a771063          	bne	a4,t2,80000444 <fail>
800001a8:	00300193          	li	gp,3
800001ac:	000107b7          	lui	a5,0x10
800001b0:	f0078793          	addi	a5,a5,-256 # ff00 <__stack_size+0xf700>
800001b4:	20000117          	auipc	sp,0x20000
800001b8:	e4c10113          	addi	sp,sp,-436 # a0000000 <begin_signature>
800001bc:	00215703          	lhu	a4,2(sp)
800001c0:	000103b7          	lui	t2,0x10
800001c4:	f0038393          	addi	t2,t2,-256 # ff00 <__stack_size+0xf700>
800001c8:	26771e63          	bne	a4,t2,80000444 <fail>
800001cc:	00400193          	li	gp,4
800001d0:	000017b7          	lui	a5,0x1
800001d4:	ff078793          	addi	a5,a5,-16 # ff0 <__stack_size+0x7f0>
800001d8:	20000117          	auipc	sp,0x20000
800001dc:	e2810113          	addi	sp,sp,-472 # a0000000 <begin_signature>
800001e0:	00415703          	lhu	a4,4(sp)
800001e4:	000013b7          	lui	t2,0x1
800001e8:	ff038393          	addi	t2,t2,-16 # ff0 <__stack_size+0x7f0>
800001ec:	24771c63          	bne	a4,t2,80000444 <fail>
800001f0:	00500193          	li	gp,5
800001f4:	0000f7b7          	lui	a5,0xf
800001f8:	00f78793          	addi	a5,a5,15 # f00f <__stack_size+0xe80f>
800001fc:	20000117          	auipc	sp,0x20000
80000200:	e0410113          	addi	sp,sp,-508 # a0000000 <begin_signature>
80000204:	00615703          	lhu	a4,6(sp)
80000208:	0000f3b7          	lui	t2,0xf
8000020c:	00f38393          	addi	t2,t2,15 # f00f <__stack_size+0xe80f>
80000210:	22771a63          	bne	a4,t2,80000444 <fail>
80000214:	00600193          	li	gp,6
80000218:	0ff00793          	li	a5,255
8000021c:	20000117          	auipc	sp,0x20000
80000220:	dea10113          	addi	sp,sp,-534 # a0000006 <tdat4>
80000224:	ffa15703          	lhu	a4,-6(sp)
80000228:	0ff00393          	li	t2,255
8000022c:	20771c63          	bne	a4,t2,80000444 <fail>
80000230:	00700193          	li	gp,7
80000234:	000107b7          	lui	a5,0x10
80000238:	f0078793          	addi	a5,a5,-256 # ff00 <__stack_size+0xf700>
8000023c:	20000117          	auipc	sp,0x20000
80000240:	dca10113          	addi	sp,sp,-566 # a0000006 <tdat4>
80000244:	ffc15703          	lhu	a4,-4(sp)
80000248:	000103b7          	lui	t2,0x10
8000024c:	f0038393          	addi	t2,t2,-256 # ff00 <__stack_size+0xf700>
80000250:	1e771a63          	bne	a4,t2,80000444 <fail>
80000254:	00800193          	li	gp,8
80000258:	000017b7          	lui	a5,0x1
8000025c:	ff078793          	addi	a5,a5,-16 # ff0 <__stack_size+0x7f0>
80000260:	20000117          	auipc	sp,0x20000
80000264:	da610113          	addi	sp,sp,-602 # a0000006 <tdat4>
80000268:	ffe15703          	lhu	a4,-2(sp)
8000026c:	000013b7          	lui	t2,0x1
80000270:	ff038393          	addi	t2,t2,-16 # ff0 <__stack_size+0x7f0>
80000274:	1c771863          	bne	a4,t2,80000444 <fail>
80000278:	00900193          	li	gp,9
8000027c:	0000f7b7          	lui	a5,0xf
80000280:	00f78793          	addi	a5,a5,15 # f00f <__stack_size+0xe80f>
80000284:	20000117          	auipc	sp,0x20000
80000288:	d8210113          	addi	sp,sp,-638 # a0000006 <tdat4>
8000028c:	00015703          	lhu	a4,0(sp)
80000290:	0000f3b7          	lui	t2,0xf
80000294:	00f38393          	addi	t2,t2,15 # f00f <__stack_size+0xe80f>
80000298:	1a771663          	bne	a4,t2,80000444 <fail>
8000029c:	00a00193          	li	gp,10
800002a0:	20000097          	auipc	ra,0x20000
800002a4:	d6008093          	addi	ra,ra,-672 # a0000000 <begin_signature>
800002a8:	fe008093          	addi	ra,ra,-32
800002ac:	0200d283          	lhu	t0,32(ra)
800002b0:	0ff00393          	li	t2,255
800002b4:	18729863          	bne	t0,t2,80000444 <fail>
800002b8:	00b00193          	li	gp,11
800002bc:	20000097          	auipc	ra,0x20000
800002c0:	d4408093          	addi	ra,ra,-700 # a0000000 <begin_signature>
800002c4:	ffb08093          	addi	ra,ra,-5
800002c8:	0070d283          	lhu	t0,7(ra)
800002cc:	000103b7          	lui	t2,0x10
800002d0:	f0038393          	addi	t2,t2,-256 # ff00 <__stack_size+0xf700>
800002d4:	16729863          	bne	t0,t2,80000444 <fail>
800002d8:	00c00193          	li	gp,12
800002dc:	00000213          	li	tp,0
800002e0:	20000697          	auipc	a3,0x20000
800002e4:	d2268693          	addi	a3,a3,-734 # a0000002 <tdat2>
800002e8:	0026d703          	lhu	a4,2(a3)
800002ec:	00070313          	mv	t1,a4
800002f0:	000013b7          	lui	t2,0x1
800002f4:	ff038393          	addi	t2,t2,-16 # ff0 <__stack_size+0x7f0>
800002f8:	14731663          	bne	t1,t2,80000444 <fail>
800002fc:	00120213          	addi	tp,tp,1 # 1 <__heap_size-0x1ff>
80000300:	00200293          	li	t0,2
80000304:	fc521ee3          	bne	tp,t0,800002e0 <test_12+0x8>
80000308:	00d00193          	li	gp,13
8000030c:	00000213          	li	tp,0
80000310:	20000697          	auipc	a3,0x20000
80000314:	cf468693          	addi	a3,a3,-780 # a0000004 <tdat3>
80000318:	0026d703          	lhu	a4,2(a3)
8000031c:	00000013          	nop
80000320:	00070313          	mv	t1,a4
80000324:	0000f3b7          	lui	t2,0xf
80000328:	00f38393          	addi	t2,t2,15 # f00f <__stack_size+0xe80f>
8000032c:	10731c63          	bne	t1,t2,80000444 <fail>
80000330:	00120213          	addi	tp,tp,1 # 1 <__heap_size-0x1ff>
80000334:	00200293          	li	t0,2
80000338:	fc521ce3          	bne	tp,t0,80000310 <test_13+0x8>
8000033c:	00e00193          	li	gp,14
80000340:	00000213          	li	tp,0
80000344:	20000697          	auipc	a3,0x20000
80000348:	cbc68693          	addi	a3,a3,-836 # a0000000 <begin_signature>
8000034c:	0026d703          	lhu	a4,2(a3)
80000350:	00000013          	nop
80000354:	00000013          	nop
80000358:	00070313          	mv	t1,a4
8000035c:	000103b7          	lui	t2,0x10
80000360:	f0038393          	addi	t2,t2,-256 # ff00 <__stack_size+0xf700>
80000364:	0e731063          	bne	t1,t2,80000444 <fail>
80000368:	00120213          	addi	tp,tp,1 # 1 <__heap_size-0x1ff>
8000036c:	00200293          	li	t0,2
80000370:	fc521ae3          	bne	tp,t0,80000344 <test_14+0x8>
80000374:	00f00193          	li	gp,15
80000378:	00000213          	li	tp,0
8000037c:	20000697          	auipc	a3,0x20000
80000380:	c8668693          	addi	a3,a3,-890 # a0000002 <tdat2>
80000384:	0026d703          	lhu	a4,2(a3)
80000388:	000013b7          	lui	t2,0x1
8000038c:	ff038393          	addi	t2,t2,-16 # ff0 <__stack_size+0x7f0>
80000390:	0a771a63          	bne	a4,t2,80000444 <fail>
80000394:	00120213          	addi	tp,tp,1 # 1 <__heap_size-0x1ff>
80000398:	00200293          	li	t0,2
8000039c:	fe5210e3          	bne	tp,t0,8000037c <test_15+0x8>
800003a0:	01000193          	li	gp,16
800003a4:	00000213          	li	tp,0
800003a8:	20000697          	auipc	a3,0x20000
800003ac:	c5c68693          	addi	a3,a3,-932 # a0000004 <tdat3>
800003b0:	00000013          	nop
800003b4:	0026d703          	lhu	a4,2(a3)
800003b8:	0000f3b7          	lui	t2,0xf
800003bc:	00f38393          	addi	t2,t2,15 # f00f <__stack_size+0xe80f>
800003c0:	08771263          	bne	a4,t2,80000444 <fail>
800003c4:	00120213          	addi	tp,tp,1 # 1 <__heap_size-0x1ff>
800003c8:	00200293          	li	t0,2
800003cc:	fc521ee3          	bne	tp,t0,800003a8 <test_16+0x8>
800003d0:	01100193          	li	gp,17
800003d4:	00000213          	li	tp,0
800003d8:	20000697          	auipc	a3,0x20000
800003dc:	c2868693          	addi	a3,a3,-984 # a0000000 <begin_signature>
800003e0:	00000013          	nop
800003e4:	00000013          	nop
800003e8:	0026d703          	lhu	a4,2(a3)
800003ec:	000103b7          	lui	t2,0x10
800003f0:	f0038393          	addi	t2,t2,-256 # ff00 <__stack_size+0xf700>
800003f4:	04771863          	bne	a4,t2,80000444 <fail>
800003f8:	00120213          	addi	tp,tp,1 # 1 <__heap_size-0x1ff>
800003fc:	00200293          	li	t0,2
80000400:	fc521ce3          	bne	tp,t0,800003d8 <test_17+0x8>
80000404:	01200193          	li	gp,18
80000408:	20000297          	auipc	t0,0x20000
8000040c:	bf828293          	addi	t0,t0,-1032 # a0000000 <begin_signature>
80000410:	0002d103          	lhu	sp,0(t0)
80000414:	00200113          	li	sp,2
80000418:	00200393          	li	t2,2
8000041c:	02711463          	bne	sp,t2,80000444 <fail>
80000420:	01300193          	li	gp,19
80000424:	20000297          	auipc	t0,0x20000
80000428:	bdc28293          	addi	t0,t0,-1060 # a0000000 <begin_signature>
8000042c:	0002d103          	lhu	sp,0(t0)
80000430:	00000013          	nop
80000434:	00200113          	li	sp,2
80000438:	00200393          	li	t2,2
8000043c:	00711463          	bne	sp,t2,80000444 <fail>
80000440:	02301063          	bne	zero,gp,80000460 <pass>
80000444:	0ff0000f          	fence
80000448:	00018063          	beqz	gp,80000448 <fail+0x4>
8000044c:	00119193          	slli	gp,gp,0x1
80000450:	0011e193          	ori	gp,gp,1
80000454:	05d00893          	li	a7,93
80000458:	00018513          	mv	a0,gp
8000045c:	00000073          	ecall
80000460:	0ff0000f          	fence
80000464:	00100193          	li	gp,1
80000468:	05d00893          	li	a7,93
8000046c:	00000513          	li	a0,0
80000470:	00000073          	ecall
80000474:	c0001073          	unimp
80000478:	0000                	.insn	2, 0x
8000047a:	0000                	.insn	2, 0x
a0000000:	00ff    	.insn	10, 0xf00f0ff0ff0000ff
a0000002:	ff00                	.insn	2, 0xff00
a0000004:	0ff0                	.insn	2, 0x0ff0
a0000006:	0000f00f          	.insn	4, 0xf00f
a000000a:	0000                	.insn	2, 0x
a000000c:	0000                	.insn	2, 0x
a000000e:	0000                	.insn	2, 0x
80000000:	0500006f          	j	80000050 <reset_vector>
80000004:	34202f73          	csrr	t5,mcause
80000008:	00800f93          	li	t6,8
8000000c:	03ff0863          	beq	t5,t6,8000003c <write_tohost>
80000010:	00900f93          	li	t6,9
80000014:	03ff0463          	beq	t5,t6,8000003c <write_tohost>
80000018:	00b00f93          	li	t6,11
8000001c:	03ff0063          	beq	t5,t6,8000003c <write_tohost>
80000020:	00000f13          	li	t5,0
80000024:	000f0463          	beqz	t5,8000002c <trap_vector+0x28>
80000028:	000f0067          	jr	t5
8000002c:	34202f73          	csrr	t5,mcause
80000030:	000f5463          	bgez	t5,80000038 <handle_exception>
80000034:	0040006f          	j	80000038 <handle_exception>
80000038:	5391e193          	ori	gp,gp,1337
8000003c:	20000f17          	auipc	t5,0x20000
80000040:	fc3f2223          	sw	gp,-60(t5) # a0000000 <tohost>
80000044:	20000f17          	auipc	t5,0x20000
80000048:	fc0f2023          	sw	zero,-64(t5) # a0000004 <tohost+0x4>
8000004c:	ff1ff06f          	j	8000003c <write_tohost>
80000050:	00000093          	li	ra,0
80000054:	00000113          	li	sp,0
80000058:	00000193          	li	gp,0
8000005c:	00000213          	li	tp,0
80000060:	00000293          	li	t0,0
80000064:	00000313          	li	t1,0
80000068:	00000393          	li	t2,0
8000006c:	00000413          	li	s0,0
80000070:	00000493          	li	s1,0
80000074:	00000513          	li	a0,0
80000078:	00000593          	li	a1,0
8000007c:	00000613          	li	a2,0
80000080:	00000693          	li	a3,0
80000084:	00000713          	li	a4,0
80000088:	00000793          	li	a5,0
8000008c:	00000813          	li	a6,0
80000090:	00000893          	li	a7,0
80000094:	00000913          	li	s2,0
80000098:	00000993          	li	s3,0
8000009c:	00000a13          	li	s4,0
800000a0:	00000a93          	li	s5,0
800000a4:	00000b13          	li	s6,0
800000a8:	00000b93          	li	s7,0
800000ac:	00000c13          	li	s8,0
800000b0:	00000c93          	li	s9,0
800000b4:	00000d13          	li	s10,0
800000b8:	00000d93          	li	s11,0
800000bc:	00000e13          	li	t3,0
800000c0:	00000e93          	li	t4,0
800000c4:	00000f13          	li	t5,0
800000c8:	00000f93          	li	t6,0
800000cc:	f1402573          	csrr	a0,mhartid
800000d0:	00051063          	bnez	a0,800000d0 <reset_vector+0x80>
800000d4:	00000297          	auipc	t0,0x0
800000d8:	01028293          	addi	t0,t0,16 # 800000e4 <reset_vector+0x94>
800000dc:	30529073          	csrw	mtvec,t0
800000e0:	74445073          	csrwi	0x744,8
800000e4:	00000297          	auipc	t0,0x0
800000e8:	01028293          	addi	t0,t0,16 # 800000f4 <reset_vector+0xa4>
800000ec:	30529073          	csrw	mtvec,t0
800000f0:	18005073          	csrwi	satp,0
800000f4:	00000297          	auipc	t0,0x0
800000f8:	02028293          	addi	t0,t0,32 # 80000114 <reset_vector+0xc4>
800000fc:	30529073          	csrw	mtvec,t0
80000100:	800002b7          	lui	t0,0x80000
80000104:	fff28293          	addi	t0,t0,-1 # 7fffffff <__stack_size+0x7ffff7ff>
80000108:	3b029073          	csrw	pmpaddr0,t0
8000010c:	01f00293          	li	t0,31
80000110:	3a029073          	csrw	pmpcfg0,t0
80000114:	30405073          	csrwi	mie,0
80000118:	00000297          	auipc	t0,0x0
8000011c:	01428293          	addi	t0,t0,20 # 8000012c <reset_vector+0xdc>
80000120:	30529073          	csrw	mtvec,t0
80000124:	30205073          	csrwi	medeleg,0
80000128:	30305073          	csrwi	mideleg,0
8000012c:	00000193          	li	gp,0
80000130:	00000297          	auipc	t0,0x0
80000134:	ed428293          	addi	t0,t0,-300 # 80000004 <trap_vector>
80000138:	30529073          	csrw	mtvec,t0
8000013c:	00100513          	li	a0,1
80000140:	01f51513          	slli	a0,a0,0x1f
80000144:	00054c63          	bltz	a0,8000015c <reset_vector+0x10c>
80000148:	0ff0000f          	fence
8000014c:	00100193          	li	gp,1
80000150:	05d00893          	li	a7,93
80000154:	00000513          	li	a0,0
80000158:	00000073          	ecall
8000015c:	00000293          	li	t0,0
80000160:	00028a63          	beqz	t0,80000174 <reset_vector+0x124>
80000164:	10529073          	csrw	stvec,t0
80000168:	0000b2b7          	lui	t0,0xb
8000016c:	10928293          	addi	t0,t0,265 # b109 <__stack_size+0xa909>
80000170:	30229073          	csrw	medeleg,t0
80000174:	30005073          	csrwi	mstatus,0
80000178:	00000297          	auipc	t0,0x0
8000017c:	01428293          	addi	t0,t0,20 # 8000018c <test_2>
80000180:	34129073          	csrw	mepc,t0
80000184:	f1402573          	csrr	a0,mhartid
80000188:	30200073          	mret
8000018c:	00200193          	li	gp,2
80000190:	00000593          	li	a1,0
80000194:	00000613          	li	a2,0
80000198:	40c58733          	sub	a4,a1,a2
8000019c:	00000393          	li	t2,0
800001a0:	4a771663          	bne	a4,t2,8000064c <fail>
800001a4:	00300193          	li	gp,3
800001a8:	00100593          	li	a1,1
800001ac:	00100613          	li	a2,1
800001b0:	40c58733          	sub	a4,a1,a2
800001b4:	00000393          	li	t2,0
800001b8:	48771a63          	bne	a4,t2,8000064c <fail>
800001bc:	00400193          	li	gp,4
800001c0:	00300593          	li	a1,3
800001c4:	00700613          	li	a2,7
800001c8:	40c58733          	sub	a4,a1,a2
800001cc:	ffc00393          	li	t2,-4
800001d0:	46771e63          	bne	a4,t2,8000064c <fail>
800001d4:	00500193          	li	gp,5
800001d8:	00000593          	li	a1,0
800001dc:	ffff8637          	lui	a2,0xffff8
800001e0:	40c58733          	sub	a4,a1,a2
800001e4:	000083b7          	lui	t2,0x8
800001e8:	46771263          	bne	a4,t2,8000064c <fail>
800001ec:	00600193          	li	gp,6
800001f0:	800005b7          	lui	a1,0x80000
800001f4:	00000613          	li	a2,0
800001f8:	40c58733          	sub	a4,a1,a2
800001fc:	800003b7          	lui	t2,0x80000
80000200:	44771663          	bne	a4,t2,8000064c <fail>
80000204:	00700193          	li	gp,7
80000208:	800005b7          	lui	a1,0x80000
8000020c:	ffff8637          	lui	a2,0xffff8
80000210:	40c58733          	sub	a4,a1,a2
80000214:	800083b7          	lui	t2,0x80008
80000218:	42771a63          	bne	a4,t2,8000064c <fail>
8000021c:	00800193          	li	gp,8
80000220:	00000593          	li	a1,0
80000224:	00008637          	lui	a2,0x8
80000228:	fff60613          	addi	a2,a2,-1 # 7fff <__stack_size+0x77ff>
8000022c:	40c58733          	sub	a4,a1,a2
80000230:	ffff83b7          	lui	t2,0xffff8
80000234:	00138393          	addi	t2,t2,1 # ffff8001 <_end+0x5fff75b9>
80000238:	40771a63          	bne	a4,t2,8000064c <fail>
8000023c:	00900193          	li	gp,9
80000240:	800005b7          	lui	a1,0x80000
80000244:	fff58593          	addi	a1,a1,-1 # 7fffffff <__stack_size+0x7ffff7ff>
80000248:	00000613          	li	a2,0
8000024c:	40c58733          	sub	a4,a1,a2
80000250:	800003b7          	lui	t2,0x80000
80000254:	fff38393          	addi	t2,t2,-1 # 7fffffff <__stack_size+0x7ffff7ff>
80000258:	3e771a63          	bne	a4,t2,8000064c <fail>
8000025c:	00a00193          	li	gp,10
80000260:	800005b7          	lui	a1,0x80000
80000264:	fff58593          	addi	a1,a1,-1 # 7fffffff <__stack_size+0x7ffff7ff>
80000268:	00008637          	lui	a2,0x8
8000026c:	fff60613          	addi	a2,a2,-1 # 7fff <__stack_size+0x77ff>
80000270:	40c58733          	sub	a4,a1,a2
80000274:	7fff83b7          	lui	t2,0x7fff8
80000278:	3c771a63          	bne	a4,t2,8000064c <fail>
8000027c:	00b00193          	li	gp,11
80000280:	800005b7          	lui	a1,0x80000
80000284:	00008637          	lui	a2,0x8
80000288:	fff60613          	addi	a2,a2,-1 # 7fff <__stack_size+0x77ff>
8000028c:	40c58733          	sub	a4,a1,a2
80000290:	7fff83b7          	lui	t2,0x7fff8
80000294:	00138393          	addi	t2,t2,1 # 7fff8001 <__stack_size+0x7fff7801>
80000298:	3a771a63          	bne	a4,t2,8000064c <fail>
8000029c:	00c00193          	li	gp,12
800002a0:	800005b7          	lui	a1,0x80000
800002a4:	fff58593          	addi	a1,a1,-1 # 7fffffff <__stack_size+0x7ffff7ff>
800002a8:	ffff8637          	lui	a2,0xffff8
800002ac:	40c58733          	sub	a4,a1,a2
800002b0:	800083b7          	lui	t2,0x80008
800002b4:	fff38393          	addi	t2,t2,-1 # 80007fff <pass+0x7997>
800002b8:	38771a63          	bne	a4,t2,8000064c <fail>
800002bc:	00d00193          	li	gp,13
800002c0:	00000593          	li	a1,0
800002c4:	fff00613          	li	a2,-1
800002c8:	40c58733          	sub	a4,a1,a2
800002cc:	00100393          	li	t2,1
800002d0:	36771e63          	bne	a4,t2,8000064c <fail>
800002d4:	00e00193          	li	gp,14
800002d8:	fff00593          	li	a1,-1
800002dc:	00100613          	li	a2,1
800002e0:	40c58733          	sub	a4,a1,a2
800002e4:	ffe00393          	li	t2,-2
800002e8:	36771263          	bne	a4,t2,8000064c <fail>
800002ec:	00f00193          	li	gp,15
800002f0:	fff00593          	li	a1,-1
800002f4:	fff00613          	li	a2,-1
800002f8:	40c58733          	sub	a4,a1,a2
800002fc:	00000393          	li	t2,0
80000300:	34771663          	bne	a4,t2,8000064c <fail>
80000304:	01000193          	li	gp,16
80000308:	00d00593          	li	a1,13
8000030c:	00b00613          	li	a2,11
80000310:	40c585b3          	sub	a1,a1,a2
80000314:	00200393          	li	t2,2
80000318:	32759a63          	bne	a1,t2,8000064c <fail>
8000031c:	01100193          	li	gp,17
80000320:	00e00593          	li	a1,14
80000324:	00b00613          	li	a2,11
80000328:	40c58633          	sub	a2,a1,a2
8000032c:	00300393          	li	t2,3
80000330:	30761e63          	bne	a2,t2,8000064c <fail>
80000334:	01200193          	li	gp,18
80000338:	00d00593          	li	a1,13
8000033c:	40b585b3          	sub	a1,a1,a1
80000340:	00000393          	li	t2,0
80000344:	30759463          	bne	a1,t2,8000064c <fail>
80000348:	01300193          	li	gp,19
8000034c:	00000213          	li	tp,0
80000350:	00d00093          	li	ra,13
80000354:	00b00113          	li	sp,11
80000358:	40208733          	sub	a4,ra,sp
8000035c:	00070313          	mv	t1,a4
80000360:	00120213          	addi	tp,tp,1 # 1 <__heap_size-0x1ff>
80000364:	00200293          	li	t0,2
80000368:	fe5214e3          	bne	tp,t0,80000350 <test_19+0x8>
8000036c:	00200393          	li	t2,2
80000370:	2c731e63          	bne	t1,t2,8000064c <fail>
80000374:	01400193          	li	gp,20
80000378:	00000213          	li	tp,0
8000037c:	00e00093          	li	ra,14
80000380:	00b00113          	li	sp,11
80000384:	40208733          	sub	a4,ra,sp
80000388:	00000013          	nop
8000038c:	00070313          	mv	t1,a4
80000390:	00120213          	addi	tp,tp,1 # 1 <__heap_size-0x1ff>
80000394:	00200293          	li	t0,2
80000398:	fe5212e3          	bne	tp,t0,8000037c <test_20+0x8>
8000039c:	00300393          	li	t2,3
800003a0:	2a731663          	bne	t1,t2,8000064c <fail>
800003a4:	01500193          	li	gp,21
800003a8:	00000213          	li	tp,0
800003ac:	00f00093          	li	ra,15
800003b0:	00b00113          	li	sp,11
800003b4:	40208733          	sub	a4,ra,sp
800003b8:	00000013          	nop
800003bc:	00000013          	nop
800003c0:	00070313          	mv	t1,a4
800003c4:	00120213          	addi	tp,tp,1 # 1 <__heap_size-0x1ff>
800003c8:	00200293          	li	t0,2
800003cc:	fe5210e3          	bne	tp,t0,800003ac <test_21+0x8>
800003d0:	00400393          	li	t2,4
800003d4:	26731c63          	bne	t1,t2,8000064c <fail>
800003d8:	01600193          	li	gp,22
800003dc:	00000213          	li	tp,0
800003e0:	00d00093          	li	ra,13
800003e4:	00b00113          	li	sp,11
800003e8:	40208733          	sub	a4,ra,sp
800003ec:	00120213          	addi	tp,tp,1 # 1 <__heap_size-0x1ff>
800003f0:	00200293          	li	t0,2
800003f4:	fe5216e3          	bne	tp,t0,800003e0 <test_22+0x8>
800003f8:	00200393          	li	t2,2
800003fc:	24771863          	bne	a4,t2,8000064c <fail>
80000400:	01700193          	li	gp,23
80000404:	00000213          	li	tp,0
80000408:	00e00093          	li	ra,14
8000040c:	00b00113          	li	sp,11
80000410:	00000013          	nop
80000414:	40208733          	sub	a4,ra,sp
80000418:	00120213          	addi	tp,tp,1 # 1 <__heap_size-0x1ff>
8000041c:	00200293          	li	t0,2
80000420:	fe5214e3          	bne	tp,t0,80000408 <test_23+0x8>
80000424:	00300393          	li	t2,3
80000428:	22771263          	bne	a4,t2,8000064c <fail>
8000042c:	01800193          	li	gp,24
80000430:	00000213          	li	tp,0
80000434:	00f00093          	li	ra,15
80000438:	00b00113          	li	sp,11
8000043c:	00000013          	nop
80000440:	00000013          	nop
80000444:	40208733          	sub	a4,ra,sp
80000448:	00120213          	addi	tp,tp,1 # 1 <__heap_size-0x1ff>
8000044c:	00200293          	li	t0,2
80000450:	fe5212e3          	bne	tp,t0,80000434 <test_24+0x8>
80000454:	00400393          	li	t2,4
80000458:	1e771a63          	bne	a4,t2,8000064c <fail>
8000045c:	01900193          	li	gp,25
80000460:	00000213          	li	tp,0
80000464:	00d00093          	li	ra,13
80000468:	00000013          	nop
8000046c:	00b00113          	li	sp,11
80000470:	40208733          	sub	a4,ra,sp
80000474:	00120213          	addi	tp,tp,1 # 1 <__heap_size-0x1ff>
80000478:	00200293          	li	t0,2
8000047c:	fe5214e3          	bne	tp,t0,80000464 <test_25+0x8>
80000480:	00200393          	li	t2,2
80000484:	1c771463          	bne	a4,t2,8000064c <fail>
80000488:	01a00193          	li	gp,26
8000048c:	00000213          	li	tp,0
80000490:	00e00093          	li	ra,14
80000494:	00000013          	nop
80000498:	00b00113          	li	sp,11
8000049c:	00000013          	nop
800004a0:	40208733          	sub	a4,ra,sp
800004a4:	00120213          	addi	tp,tp,1 # 1 <__heap_size-0x1ff>
800004a8:	00200293          	li	t0,2
800004ac:	fe5212e3          	bne	tp,t0,80000490 <test_26+0x8>
800004b0:	00300393          	li	t2,3
800004b4:	18771c63          	bne	a4,t2,8000064c <fail>
800004b8:	01b00193          	li	gp,27
800004bc:	00000213          	li	tp,0
800004c0:	00f00093          	li	ra,15
800004c4:	00000013          	nop
800004c8:	00000013          	nop
800004cc:	00b00113          	li	sp,11
800004d0:	40208733          	sub	a4,ra,sp
800004d4:	00120213          	addi	tp,tp,1 # 1 <__heap_size-0x1ff>
800004d8:	00200293          	li	t0,2
800004dc:	fe5212e3          	bne	tp,t0,800004c0 <test_27+0x8>
800004e0:	00400393          	li	t2,4
800004e4:	16771463          	bne	a4,t2,8000064c <fail>
800004e8:	01c00193          	li	gp,28
800004ec:	00000213          	li	tp,0
800004f0:	00b00113          	li	sp,11
800004f4:	00d00093          	li	ra,13
800004f8:	40208733          	sub	a4,ra,sp
800004fc:	00120213          	addi	tp,tp,1 # 1 <__heap_size-0x1ff>
80000500:	00200293          	li	t0,2
80000504:	fe5216e3          	bne	tp,t0,800004f0 <test_28+0x8>
80000508:	00200393          	li	t2,2
8000050c:	14771063          	bne	a4,t2,8000064c <fail>
80000510:	01d00193          	li	gp,29
80000514:	00000213          	li	tp,0
80000518:	00b00113          	li	sp,11
8000051c:	00e00093          	li	ra,14
80000520:	00000013          	nop
80000524:	40208733          	sub	a4,ra,sp
80000528:	00120213          	addi	tp,tp,1 # 1 <__heap_size-0x1ff>
8000052c:	00200293          	li	t0,2
80000530:	fe5214e3          	bne	tp,t0,80000518 <test_29+0x8>
80000534:	00300393          	li	t2,3
80000538:	10771a63          	bne	a4,t2,8000064c <fail>
8000053c:	01e00193          	li	gp,30
80000540:	00000213          	li	tp,0
80000544:	00b00113          	li	sp,11
80000548:	00f00093          	li	ra,15
8000054c:	00000013          	nop
80000550:	00000013          	nop
80000554:	40208733          	sub	a4,ra,sp
80000558:	00120213          	addi	tp,tp,1 # 1 <__heap_size-0x1ff>
8000055c:	00200293          	li	t0,2
80000560:	fe5212e3          	bne	tp,t0,80000544 <test_30+0x8>
80000564:	00400393          	li	t2,4
80000568:	0e771263          	bne	a4,t2,8000064c <fail>
8000056c:	01f00193          	li	gp,31
80000570:	00000213          	li	tp,0
80000574:	00b00113          	li	sp,11
80000578:	00000013          	nop
8000057c:	00d00093          	li	ra,13
80000580:	40208733          	sub	a4,ra,sp
80000584:	00120213          	addi	tp,tp,1 # 1 <__heap_size-0x1ff>
80000588:	00200293          	li	t0,2
8000058c:	fe5214e3          	bne	tp,t0,80000574 <test_31+0x8>
80000590:	00200393          	li	t2,2
80000594:	0a771c63          	bne	a4,t2,8000064c <fail>
80000598:	02000193          	li	gp,32
8000059c:	00000213          	li	tp,0
800005a0:	00b00113          	li	sp,11
800005a4:	00000013          	nop
800005a8:	00e00093          	li	ra,14
800005ac:	00000013          	nop
800005b0:	40208733          	sub	a4,ra,sp
800005b4:	00120213          	addi	tp,tp,1 # 1 <__heap_size-0x1ff>
800005b8:	00200293          	li	t0,2
800005bc:	fe5212e3          	bne	tp,t0,800005a0 <test_32+0x8>
800005c0:	00300393          	li	t2,3
800005c4:	08771463          	bne	a4,t2,8000064c <fail>
800005c8:	02100193          	li	gp,33
800005cc:	00000213          	li	tp,0
800005d0:	00b00113          	li	sp,11
800005d4:	00000013          	nop
800005d8:	00000013          	nop
800005dc:	00f00093          	li	ra,15
800005e0:	40208733          	sub	a4,ra,sp
800005e4:	00120213          	addi	tp,tp,1 # 1 <__heap_size-0x1ff>
800005e8:	00200293          	li	t0,2
800005ec:	fe5212e3          	bne	tp,t0,800005d0 <test_33+0x8>
800005f0:	00400393          	li	t2,4
800005f4:	04771c63          	bne	a4,t2,8000064c <fail>
800005f8:	02200193          	li	gp,34
800005fc:	ff100093          	li	ra,-15
80000600:	40100133          	neg	sp,ra
80000604:	00f00393          	li	t2,15
80000608:	04711263          	bne	sp,t2,8000064c <fail>
8000060c:	02300193          	li	gp,35
80000610:	02000093          	li	ra,32
80000614:	40008133          	sub	sp,ra,zero
80000618:	02000393          	li	t2,32
8000061c:	02711863          	bne	sp,t2,8000064c <fail>
80000620:	02400193          	li	gp,36
80000624:	400000b3          	neg	ra,zero
80000628:	00000393          	li	t2,0
8000062c:	02709063          	bne	ra,t2,8000064c <fail>
80000630:	02500193          	li	gp,37
80000634:	01000093          	li	ra,16
80000638:	01e00113          	li	sp,30
8000063c:	40208033          	sub	zero,ra,sp
80000640:	00000393          	li	t2,0
80000644:	00701463          	bne	zero,t2,8000064c <fail>
80000648:	02301063          	bne	zero,gp,80000668 <pass>
8000064c:	0ff0000f          	fence
80000650:	00018063          	beqz	gp,80000650 <fail+0x4>
80000654:	00119193          	slli	gp,gp,0x1
80000658:	0011e193          	ori	gp,gp,1
8000065c:	05d00893          	li	a7,93
80000660:	00018513          	mv	a0,gp
80000664:	00000073          	ecall
80000668:	0ff0000f          	fence
8000066c:	00100193          	li	gp,1
80000670:	05d00893          	li	a7,93
80000674:	00000513          	li	a0,0
80000678:	00000073          	ecall
8000067c:	c0001073          	unimp
80000680:	0000                	.insn	2, 0x
80000682:	0000                	.insn	2, 0x
80000684:	0000                	.insn	2, 0x
80000686:	0000                	.insn	2, 0x
80000688:	0000                	.insn	2, 0x
8000068a:	0000                	.insn	2, 0x
8000068c:	0000                	.insn	2, 0x
8000068e:	0000                	.insn	2, 0x
80000690:	0000                	.insn	2, 0x
80000692:	0000                	.insn	2, 0x
80000694:	0000                	.insn	2, 0x
80000696:	0000                	.insn	2, 0x
80000698:	0000                	.insn	2, 0x
8000069a:	0000                	.insn	2, 0x
8000069c:	0000                	.insn	2, 0x
8000069e:	0000                	.insn	2, 0x
800006a0:	0000                	.insn	2, 0x
800006a2:	0000                	.insn	2, 0x
800006a4:	0000                	.insn	2, 0x
800006a6:	0000                	.insn	2, 0x
800006a8:	0000                	.insn	2, 0x
800006aa:	0000                	.insn	2, 0x
800006ac:	0000                	.insn	2, 0x
800006ae:	0000                	.insn	2, 0x
800006b0:	0000                	.insn	2, 0x
800006b2:	0000                	.insn	2, 0x
800006b4:	0000                	.insn	2, 0x
800006b6:	0000                	.insn	2, 0x
800006b8:	0000                	.insn	2, 0x
800006ba:	0000                	.insn	2, 0x
80000000:	0500006f          	j	80000050 <reset_vector>
80000004:	34202f73          	csrr	t5,mcause
80000008:	00800f93          	li	t6,8
8000000c:	03ff0863          	beq	t5,t6,8000003c <write_tohost>
80000010:	00900f93          	li	t6,9
80000014:	03ff0463          	beq	t5,t6,8000003c <write_tohost>
80000018:	00b00f93          	li	t6,11
8000001c:	03ff0063          	beq	t5,t6,8000003c <write_tohost>
80000020:	00000f13          	li	t5,0
80000024:	000f0463          	beqz	t5,8000002c <trap_vector+0x28>
80000028:	000f0067          	jr	t5
8000002c:	34202f73          	csrr	t5,mcause
80000030:	000f5463          	bgez	t5,80000038 <handle_exception>
80000034:	0040006f          	j	80000038 <handle_exception>
80000038:	5391e193          	ori	gp,gp,1337
8000003c:	20000f17          	auipc	t5,0x20000
80000040:	fc3f2223          	sw	gp,-60(t5) # a0000000 <tohost>
80000044:	20000f17          	auipc	t5,0x20000
80000048:	fc0f2023          	sw	zero,-64(t5) # a0000004 <tohost+0x4>
8000004c:	ff1ff06f          	j	8000003c <write_tohost>
80000050:	00000093          	li	ra,0
80000054:	00000113          	li	sp,0
80000058:	00000193          	li	gp,0
8000005c:	00000213          	li	tp,0
80000060:	00000293          	li	t0,0
80000064:	00000313          	li	t1,0
80000068:	00000393          	li	t2,0
8000006c:	00000413          	li	s0,0
80000070:	00000493          	li	s1,0
80000074:	00000513          	li	a0,0
80000078:	00000593          	li	a1,0
8000007c:	00000613          	li	a2,0
80000080:	00000693          	li	a3,0
80000084:	00000713          	li	a4,0
80000088:	00000793          	li	a5,0
8000008c:	00000813          	li	a6,0
80000090:	00000893          	li	a7,0
80000094:	00000913          	li	s2,0
80000098:	00000993          	li	s3,0
8000009c:	00000a13          	li	s4,0
800000a0:	00000a93          	li	s5,0
800000a4:	00000b13          	li	s6,0
800000a8:	00000b93          	li	s7,0
800000ac:	00000c13          	li	s8,0
800000b0:	00000c93          	li	s9,0
800000b4:	00000d13          	li	s10,0
800000b8:	00000d93          	li	s11,0
800000bc:	00000e13          	li	t3,0
800000c0:	00000e93          	li	t4,0
800000c4:	00000f13          	li	t5,0
800000c8:	00000f93          	li	t6,0
800000cc:	f1402573          	csrr	a0,mhartid
800000d0:	00051063          	bnez	a0,800000d0 <reset_vector+0x80>
800000d4:	00000297          	auipc	t0,0x0
800000d8:	01028293          	addi	t0,t0,16 # 800000e4 <reset_vector+0x94>
800000dc:	30529073          	csrw	mtvec,t0
800000e0:	74445073          	csrwi	0x744,8
800000e4:	00000297          	auipc	t0,0x0
800000e8:	01028293          	addi	t0,t0,16 # 800000f4 <reset_vector+0xa4>
800000ec:	30529073          	csrw	mtvec,t0
800000f0:	18005073          	csrwi	satp,0
800000f4:	00000297          	auipc	t0,0x0
800000f8:	02028293          	addi	t0,t0,32 # 80000114 <reset_vector+0xc4>
800000fc:	30529073          	csrw	mtvec,t0
80000100:	800002b7          	lui	t0,0x80000
80000104:	fff28293          	addi	t0,t0,-1 # 7fffffff <__stack_size+0x7ffff7ff>
80000108:	3b029073          	csrw	pmpaddr0,t0
8000010c:	01f00293          	li	t0,31
80000110:	3a029073          	csrw	pmpcfg0,t0
80000114:	30405073          	csrwi	mie,0
80000118:	00000297          	auipc	t0,0x0
8000011c:	01428293          	addi	t0,t0,20 # 8000012c <reset_vector+0xdc>
80000120:	30529073          	csrw	mtvec,t0
80000124:	30205073          	csrwi	medeleg,0
80000128:	30305073          	csrwi	mideleg,0
8000012c:	00000193          	li	gp,0
80000130:	00000297          	auipc	t0,0x0
80000134:	ed428293          	addi	t0,t0,-300 # 80000004 <trap_vector>
80000138:	30529073          	csrw	mtvec,t0
8000013c:	00100513          	li	a0,1
80000140:	01f51513          	slli	a0,a0,0x1f
80000144:	00054c63          	bltz	a0,8000015c <reset_vector+0x10c>
80000148:	0ff0000f          	fence
8000014c:	00100193          	li	gp,1
80000150:	05d00893          	li	a7,93
80000154:	00000513          	li	a0,0
80000158:	00000073          	ecall
8000015c:	00000293          	li	t0,0
80000160:	00028a63          	beqz	t0,80000174 <reset_vector+0x124>
80000164:	10529073          	csrw	stvec,t0
80000168:	0000b2b7          	lui	t0,0xb
8000016c:	10928293          	addi	t0,t0,265 # b109 <__stack_size+0xa909>
80000170:	30229073          	csrw	medeleg,t0
80000174:	30005073          	csrwi	mstatus,0
80000178:	00000297          	auipc	t0,0x0
8000017c:	01428293          	addi	t0,t0,20 # 8000018c <reset_vector+0x13c>
80000180:	34129073          	csrw	mepc,t0
80000184:	f1402573          	csrr	a0,mhartid
80000188:	30200073          	mret
8000018c:	0ff0000f          	fence
80000190:	00100193          	li	gp,1
80000194:	05d00893          	li	a7,93
80000198:	00000513          	li	a0,0
8000019c:	00000073          	ecall
800001a0:	c0001073          	unimp
800001a4:	0000                	.insn	2, 0x
800001a6:	0000                	.insn	2, 0x
800001a8:	0000                	.insn	2, 0x
800001aa:	0000                	.insn	2, 0x
800001ac:	0000                	.insn	2, 0x
800001ae:	0000                	.insn	2, 0x
800001b0:	0000                	.insn	2, 0x
800001b2:	0000                	.insn	2, 0x
800001b4:	0000                	.insn	2, 0x
800001b6:	0000                	.insn	2, 0x
800001b8:	0000                	.insn	2, 0x
800001ba:	0000                	.insn	2, 0x
80000000:	0500006f          	j	80000050 <reset_vector>
80000004:	34202f73          	csrr	t5,mcause
80000008:	00800f93          	li	t6,8
8000000c:	03ff0863          	beq	t5,t6,8000003c <write_tohost>
80000010:	00900f93          	li	t6,9
80000014:	03ff0463          	beq	t5,t6,8000003c <write_tohost>
80000018:	00b00f93          	li	t6,11
8000001c:	03ff0063          	beq	t5,t6,8000003c <write_tohost>
80000020:	00000f13          	li	t5,0
80000024:	000f0463          	beqz	t5,8000002c <trap_vector+0x28>
80000028:	000f0067          	jr	t5
8000002c:	34202f73          	csrr	t5,mcause
80000030:	000f5463          	bgez	t5,80000038 <handle_exception>
80000034:	0040006f          	j	80000038 <handle_exception>
80000038:	5391e193          	ori	gp,gp,1337
8000003c:	20000f17          	auipc	t5,0x20000
80000040:	fc3f2223          	sw	gp,-60(t5) # a0000000 <tohost>
80000044:	20000f17          	auipc	t5,0x20000
80000048:	fc0f2023          	sw	zero,-64(t5) # a0000004 <tohost+0x4>
8000004c:	ff1ff06f          	j	8000003c <write_tohost>
80000050:	00000093          	li	ra,0
80000054:	00000113          	li	sp,0
80000058:	00000193          	li	gp,0
8000005c:	00000213          	li	tp,0
80000060:	00000293          	li	t0,0
80000064:	00000313          	li	t1,0
80000068:	00000393          	li	t2,0
8000006c:	00000413          	li	s0,0
80000070:	00000493          	li	s1,0
80000074:	00000513          	li	a0,0
80000078:	00000593          	li	a1,0
8000007c:	00000613          	li	a2,0
80000080:	00000693          	li	a3,0
80000084:	00000713          	li	a4,0
80000088:	00000793          	li	a5,0
8000008c:	00000813          	li	a6,0
80000090:	00000893          	li	a7,0
80000094:	00000913          	li	s2,0
80000098:	00000993          	li	s3,0
8000009c:	00000a13          	li	s4,0
800000a0:	00000a93          	li	s5,0
800000a4:	00000b13          	li	s6,0
800000a8:	00000b93          	li	s7,0
800000ac:	00000c13          	li	s8,0
800000b0:	00000c93          	li	s9,0
800000b4:	00000d13          	li	s10,0
800000b8:	00000d93          	li	s11,0
800000bc:	00000e13          	li	t3,0
800000c0:	00000e93          	li	t4,0
800000c4:	00000f13          	li	t5,0
800000c8:	00000f93          	li	t6,0
800000cc:	f1402573          	csrr	a0,mhartid
800000d0:	00051063          	bnez	a0,800000d0 <reset_vector+0x80>
800000d4:	00000297          	auipc	t0,0x0
800000d8:	01028293          	addi	t0,t0,16 # 800000e4 <reset_vector+0x94>
800000dc:	30529073          	csrw	mtvec,t0
800000e0:	74445073          	csrwi	0x744,8
800000e4:	00000297          	auipc	t0,0x0
800000e8:	01028293          	addi	t0,t0,16 # 800000f4 <reset_vector+0xa4>
800000ec:	30529073          	csrw	mtvec,t0
800000f0:	18005073          	csrwi	satp,0
800000f4:	00000297          	auipc	t0,0x0
800000f8:	02028293          	addi	t0,t0,32 # 80000114 <reset_vector+0xc4>
800000fc:	30529073          	csrw	mtvec,t0
80000100:	800002b7          	lui	t0,0x80000
80000104:	fff28293          	addi	t0,t0,-1 # 7fffffff <__stack_size+0x7ffff7ff>
80000108:	3b029073          	csrw	pmpaddr0,t0
8000010c:	01f00293          	li	t0,31
80000110:	3a029073          	csrw	pmpcfg0,t0
80000114:	30405073          	csrwi	mie,0
80000118:	00000297          	auipc	t0,0x0
8000011c:	01428293          	addi	t0,t0,20 # 8000012c <reset_vector+0xdc>
80000120:	30529073          	csrw	mtvec,t0
80000124:	30205073          	csrwi	medeleg,0
80000128:	30305073          	csrwi	mideleg,0
8000012c:	00000193          	li	gp,0
80000130:	00000297          	auipc	t0,0x0
80000134:	ed428293          	addi	t0,t0,-300 # 80000004 <trap_vector>
80000138:	30529073          	csrw	mtvec,t0
8000013c:	00100513          	li	a0,1
80000140:	01f51513          	slli	a0,a0,0x1f
80000144:	00054c63          	bltz	a0,8000015c <reset_vector+0x10c>
80000148:	0ff0000f          	fence
8000014c:	00100193          	li	gp,1
80000150:	05d00893          	li	a7,93
80000154:	00000513          	li	a0,0
80000158:	00000073          	ecall
8000015c:	00000293          	li	t0,0
80000160:	00028a63          	beqz	t0,80000174 <reset_vector+0x124>
80000164:	10529073          	csrw	stvec,t0
80000168:	0000b2b7          	lui	t0,0xb
8000016c:	10928293          	addi	t0,t0,265 # b109 <__stack_size+0xa909>
80000170:	30229073          	csrw	medeleg,t0
80000174:	30005073          	csrwi	mstatus,0
80000178:	00000297          	auipc	t0,0x0
8000017c:	01428293          	addi	t0,t0,20 # 8000018c <test_2>
80000180:	34129073          	csrw	mepc,t0
80000184:	f1402573          	csrr	a0,mhartid
80000188:	30200073          	mret
8000018c:	00200193          	li	gp,2
80000190:	00000693          	li	a3,0
80000194:	00068713          	mv	a4,a3
80000198:	00000393          	li	t2,0
8000019c:	26771c63          	bne	a4,t2,80000414 <fail>
800001a0:	00300193          	li	gp,3
800001a4:	00100693          	li	a3,1
800001a8:	00168713          	addi	a4,a3,1
800001ac:	00200393          	li	t2,2
800001b0:	26771263          	bne	a4,t2,80000414 <fail>
800001b4:	00400193          	li	gp,4
800001b8:	00300693          	li	a3,3
800001bc:	00768713          	addi	a4,a3,7
800001c0:	00a00393          	li	t2,10
800001c4:	24771863          	bne	a4,t2,80000414 <fail>
800001c8:	00500193          	li	gp,5
800001cc:	00000693          	li	a3,0
800001d0:	80068713          	addi	a4,a3,-2048
800001d4:	80000393          	li	t2,-2048
800001d8:	22771e63          	bne	a4,t2,80000414 <fail>
800001dc:	00600193          	li	gp,6
800001e0:	800006b7          	lui	a3,0x80000
800001e4:	00068713          	mv	a4,a3
800001e8:	800003b7          	lui	t2,0x80000
800001ec:	22771463          	bne	a4,t2,80000414 <fail>
800001f0:	00700193          	li	gp,7
800001f4:	800006b7          	lui	a3,0x80000
800001f8:	80068713          	addi	a4,a3,-2048 # 7ffff800 <__stack_size+0x7ffff000>
800001fc:	800003b7          	lui	t2,0x80000
80000200:	80038393          	addi	t2,t2,-2048 # 7ffff800 <__stack_size+0x7ffff000>
80000204:	20771863          	bne	a4,t2,80000414 <fail>
80000208:	00800193          	li	gp,8
8000020c:	00000693          	li	a3,0
80000210:	7ff68713          	addi	a4,a3,2047
80000214:	7ff00393          	li	t2,2047
80000218:	1e771e63          	bne	a4,t2,80000414 <fail>
8000021c:	00900193          	li	gp,9
80000220:	800006b7          	lui	a3,0x80000
80000224:	fff68693          	addi	a3,a3,-1 # 7fffffff <__stack_size+0x7ffff7ff>
80000228:	00068713          	mv	a4,a3
8000022c:	800003b7          	lui	t2,0x80000
80000230:	fff38393          	addi	t2,t2,-1 # 7fffffff <__stack_size+0x7ffff7ff>
80000234:	1e771063          	bne	a4,t2,80000414 <fail>
80000238:	00a00193          	li	gp,10
8000023c:	800006b7          	lui	a3,0x80000
80000240:	fff68693          	addi	a3,a3,-1 # 7fffffff <__stack_size+0x7ffff7ff>
80000244:	7ff68713          	addi	a4,a3,2047
80000248:	800003b7          	lui	t2,0x80000
8000024c:	7fe38393          	addi	t2,t2,2046 # 800007fe <pass+0x3ce>
80000250:	1c771263          	bne	a4,t2,80000414 <fail>
80000254:	00b00193          	li	gp,11
80000258:	800006b7          	lui	a3,0x80000
8000025c:	7ff68713          	addi	a4,a3,2047 # 800007ff <pass+0x3cf>
80000260:	800003b7          	lui	t2,0x80000
80000264:	7ff38393          	addi	t2,t2,2047 # 800007ff <pass+0x3cf>
80000268:	1a771663          	bne	a4,t2,80000414 <fail>
8000026c:	00c00193          	li	gp,12
80000270:	800006b7          	lui	a3,0x80000
80000274:	fff68693          	addi	a3,a3,-1 # 7fffffff <__stack_size+0x7ffff7ff>
80000278:	80068713          	addi	a4,a3,-2048
8000027c:	7ffff3b7          	lui	t2,0x7ffff
80000280:	7ff38393          	addi	t2,t2,2047 # 7ffff7ff <__stack_size+0x7fffefff>
80000284:	18771863          	bne	a4,t2,80000414 <fail>
80000288:	00d00193          	li	gp,13
8000028c:	00000693          	li	a3,0
80000290:	fff68713          	addi	a4,a3,-1
80000294:	fff00393          	li	t2,-1
80000298:	16771e63          	bne	a4,t2,80000414 <fail>
8000029c:	00e00193          	li	gp,14
800002a0:	fff00693          	li	a3,-1
800002a4:	00168713          	addi	a4,a3,1
800002a8:	00000393          	li	t2,0
800002ac:	16771463          	bne	a4,t2,80000414 <fail>
800002b0:	00f00193          	li	gp,15
800002b4:	fff00693          	li	a3,-1
800002b8:	fff68713          	addi	a4,a3,-1
800002bc:	ffe00393          	li	t2,-2
800002c0:	14771a63          	bne	a4,t2,80000414 <fail>
800002c4:	01000193          	li	gp,16
800002c8:	800006b7          	lui	a3,0x80000
800002cc:	fff68693          	addi	a3,a3,-1 # 7fffffff <__stack_size+0x7ffff7ff>
800002d0:	00168713          	addi	a4,a3,1
800002d4:	800003b7          	lui	t2,0x80000
800002d8:	12771e63          	bne	a4,t2,80000414 <fail>
800002dc:	01100193          	li	gp,17
800002e0:	00d00593          	li	a1,13
800002e4:	00b58593          	addi	a1,a1,11
800002e8:	01800393          	li	t2,24
800002ec:	12759463          	bne	a1,t2,80000414 <fail>
800002f0:	01200193          	li	gp,18
800002f4:	00000213          	li	tp,0
800002f8:	00d00093          	li	ra,13
800002fc:	00b08713          	addi	a4,ra,11
80000300:	00070313          	mv	t1,a4
80000304:	00120213          	addi	tp,tp,1 # 1 <__heap_size-0x1ff>
80000308:	00200293          	li	t0,2
8000030c:	fe5216e3          	bne	tp,t0,800002f8 <test_18+0x8>
80000310:	01800393          	li	t2,24
80000314:	10731063          	bne	t1,t2,80000414 <fail>
80000318:	01300193          	li	gp,19
8000031c:	00000213          	li	tp,0
80000320:	00d00093          	li	ra,13
80000324:	00a08713          	addi	a4,ra,10
80000328:	00000013          	nop
8000032c:	00070313          	mv	t1,a4
80000330:	00120213          	addi	tp,tp,1 # 1 <__heap_size-0x1ff>
80000334:	00200293          	li	t0,2
80000338:	fe5214e3          	bne	tp,t0,80000320 <test_19+0x8>
8000033c:	01700393          	li	t2,23
80000340:	0c731a63          	bne	t1,t2,80000414 <fail>
80000344:	01400193          	li	gp,20
80000348:	00000213          	li	tp,0
8000034c:	00d00093          	li	ra,13
80000350:	00908713          	addi	a4,ra,9
80000354:	00000013          	nop
80000358:	00000013          	nop
8000035c:	00070313          	mv	t1,a4
80000360:	00120213          	addi	tp,tp,1 # 1 <__heap_size-0x1ff>
80000364:	00200293          	li	t0,2
80000368:	fe5212e3          	bne	tp,t0,8000034c <test_20+0x8>
8000036c:	01600393          	li	t2,22
80000370:	0a731263          	bne	t1,t2,80000414 <fail>
80000374:	01500193          	li	gp,21
80000378:	00000213          	li	tp,0
8000037c:	00d00093          	li	ra,13
80000380:	00b08713          	addi	a4,ra,11
80000384:	00120213          	addi	tp,tp,1 # 1 <__heap_size-0x1ff>
80000388:	00200293          	li	t0,2
8000038c:	fe5218e3          	bne	tp,t0,8000037c <test_21+0x8>
80000390:	01800393          	li	t2,24
80000394:	08771063          	bne	a4,t2,80000414 <fail>
80000398:	01600193          	li	gp,22
8000039c:	00000213          	li	tp,0
800003a0:	00d00093          	li	ra,13
800003a4:	00000013          	nop
800003a8:	00a08713          	addi	a4,ra,10
800003ac:	00120213          	addi	tp,tp,1 # 1 <__heap_size-0x1ff>
800003b0:	00200293          	li	t0,2
800003b4:	fe5216e3          	bne	tp,t0,800003a0 <test_22+0x8>
800003b8:	01700393          	li	t2,23
800003bc:	04771c63          	bne	a4,t2,80000414 <fail>
800003c0:	01700193          	li	gp,23
800003c4:	00000213          	li	tp,0
800003c8:	00d00093          	li	ra,13
800003cc:	00000013          	nop
800003d0:	00000013          	nop
800003d4:	00908713          	addi	a4,ra,9
800003d8:	00120213          	addi	tp,tp,1 # 1 <__heap_size-0x1ff>
800003dc:	00200293          	li	t0,2
800003e0:	fe5214e3          	bne	tp,t0,800003c8 <test_23+0x8>
800003e4:	01600393          	li	t2,22
800003e8:	02771663          	bne	a4,t2,80000414 <fail>
800003ec:	01800193          	li	gp,24
800003f0:	02000093          	li	ra,32
800003f4:	02000393          	li	t2,32
800003f8:	00709e63          	bne	ra,t2,80000414 <fail>
800003fc:	01900193          	li	gp,25
80000400:	02100093          	li	ra,33
80000404:	03208013          	addi	zero,ra,50
80000408:	00000393          	li	t2,0
8000040c:	00701463          	bne	zero,t2,80000414 <fail>
80000410:	02301063          	bne	zero,gp,80000430 <pass>
80000414:	0ff0000f          	fence
80000418:	00018063          	beqz	gp,80000418 <fail+0x4>
8000041c:	00119193          	slli	gp,gp,0x1
80000420:	0011e193          	ori	gp,gp,1
80000424:	05d00893          	li	a7,93
80000428:	00018513          	mv	a0,gp
8000042c:	00000073          	ecall
80000430:	0ff0000f          	fence
80000434:	00100193          	li	gp,1
80000438:	05d00893          	li	a7,93
8000043c:	00000513          	li	a0,0
80000440:	00000073          	ecall
80000444:	c0001073          	unimp
80000448:	0000                	.insn	2, 0x
8000044a:	0000                	.insn	2, 0x
8000044c:	0000                	.insn	2, 0x
8000044e:	0000                	.insn	2, 0x
80000450:	0000                	.insn	2, 0x
80000452:	0000                	.insn	2, 0x
80000454:	0000                	.insn	2, 0x
80000456:	0000                	.insn	2, 0x
80000458:	0000                	.insn	2, 0x
8000045a:	0000                	.insn	2, 0x
8000045c:	0000                	.insn	2, 0x
8000045e:	0000                	.insn	2, 0x
80000460:	0000                	.insn	2, 0x
80000462:	0000                	.insn	2, 0x
80000464:	0000                	.insn	2, 0x
80000466:	0000                	.insn	2, 0x
80000468:	0000                	.insn	2, 0x
8000046a:	0000                	.insn	2, 0x
8000046c:	0000                	.insn	2, 0x
8000046e:	0000                	.insn	2, 0x
80000470:	0000                	.insn	2, 0x
80000472:	0000                	.insn	2, 0x
80000474:	0000                	.insn	2, 0x
80000476:	0000                	.insn	2, 0x
80000478:	0000                	.insn	2, 0x
8000047a:	0000                	.insn	2, 0x
80000000:	0500006f          	j	80000050 <reset_vector>
80000004:	34202f73          	csrr	t5,mcause
80000008:	00800f93          	li	t6,8
8000000c:	03ff0863          	beq	t5,t6,8000003c <write_tohost>
80000010:	00900f93          	li	t6,9
80000014:	03ff0463          	beq	t5,t6,8000003c <write_tohost>
80000018:	00b00f93          	li	t6,11
8000001c:	03ff0063          	beq	t5,t6,8000003c <write_tohost>
80000020:	00000f13          	li	t5,0
80000024:	000f0463          	beqz	t5,8000002c <trap_vector+0x28>
80000028:	000f0067          	jr	t5
8000002c:	34202f73          	csrr	t5,mcause
80000030:	000f5463          	bgez	t5,80000038 <handle_exception>
80000034:	0040006f          	j	80000038 <handle_exception>
80000038:	5391e193          	ori	gp,gp,1337
8000003c:	20000f17          	auipc	t5,0x20000
80000040:	fc3f2223          	sw	gp,-60(t5) # a0000000 <tohost>
80000044:	20000f17          	auipc	t5,0x20000
80000048:	fc0f2023          	sw	zero,-64(t5) # a0000004 <tohost+0x4>
8000004c:	ff1ff06f          	j	8000003c <write_tohost>
80000050:	00000093          	li	ra,0
80000054:	00000113          	li	sp,0
80000058:	00000193          	li	gp,0
8000005c:	00000213          	li	tp,0
80000060:	00000293          	li	t0,0
80000064:	00000313          	li	t1,0
80000068:	00000393          	li	t2,0
8000006c:	00000413          	li	s0,0
80000070:	00000493          	li	s1,0
80000074:	00000513          	li	a0,0
80000078:	00000593          	li	a1,0
8000007c:	00000613          	li	a2,0
80000080:	00000693          	li	a3,0
80000084:	00000713          	li	a4,0
80000088:	00000793          	li	a5,0
8000008c:	00000813          	li	a6,0
80000090:	00000893          	li	a7,0
80000094:	00000913          	li	s2,0
80000098:	00000993          	li	s3,0
8000009c:	00000a13          	li	s4,0
800000a0:	00000a93          	li	s5,0
800000a4:	00000b13          	li	s6,0
800000a8:	00000b93          	li	s7,0
800000ac:	00000c13          	li	s8,0
800000b0:	00000c93          	li	s9,0
800000b4:	00000d13          	li	s10,0
800000b8:	00000d93          	li	s11,0
800000bc:	00000e13          	li	t3,0
800000c0:	00000e93          	li	t4,0
800000c4:	00000f13          	li	t5,0
800000c8:	00000f93          	li	t6,0
800000cc:	f1402573          	csrr	a0,mhartid
800000d0:	00051063          	bnez	a0,800000d0 <reset_vector+0x80>
800000d4:	00000297          	auipc	t0,0x0
800000d8:	01028293          	addi	t0,t0,16 # 800000e4 <reset_vector+0x94>
800000dc:	30529073          	csrw	mtvec,t0
800000e0:	74445073          	csrwi	0x744,8
800000e4:	00000297          	auipc	t0,0x0
800000e8:	01028293          	addi	t0,t0,16 # 800000f4 <reset_vector+0xa4>
800000ec:	30529073          	csrw	mtvec,t0
800000f0:	18005073          	csrwi	satp,0
800000f4:	00000297          	auipc	t0,0x0
800000f8:	02028293          	addi	t0,t0,32 # 80000114 <reset_vector+0xc4>
800000fc:	30529073          	csrw	mtvec,t0
80000100:	800002b7          	lui	t0,0x80000
80000104:	fff28293          	addi	t0,t0,-1 # 7fffffff <__stack_size+0x7ffff7ff>
80000108:	3b029073          	csrw	pmpaddr0,t0
8000010c:	01f00293          	li	t0,31
80000110:	3a029073          	csrw	pmpcfg0,t0
80000114:	30405073          	csrwi	mie,0
80000118:	00000297          	auipc	t0,0x0
8000011c:	01428293          	addi	t0,t0,20 # 8000012c <reset_vector+0xdc>
80000120:	30529073          	csrw	mtvec,t0
80000124:	30205073          	csrwi	medeleg,0
80000128:	30305073          	csrwi	mideleg,0
8000012c:	00000193          	li	gp,0
80000130:	00000297          	auipc	t0,0x0
80000134:	ed428293          	addi	t0,t0,-300 # 80000004 <trap_vector>
80000138:	30529073          	csrw	mtvec,t0
8000013c:	00100513          	li	a0,1
80000140:	01f51513          	slli	a0,a0,0x1f
80000144:	00054c63          	bltz	a0,8000015c <reset_vector+0x10c>
80000148:	0ff0000f          	fence
8000014c:	00100193          	li	gp,1
80000150:	05d00893          	li	a7,93
80000154:	00000513          	li	a0,0
80000158:	00000073          	ecall
8000015c:	00000293          	li	t0,0
80000160:	00028a63          	beqz	t0,80000174 <reset_vector+0x124>
80000164:	10529073          	csrw	stvec,t0
80000168:	0000b2b7          	lui	t0,0xb
8000016c:	10928293          	addi	t0,t0,265 # b109 <__stack_size+0xa909>
80000170:	30229073          	csrw	medeleg,t0
80000174:	30005073          	csrwi	mstatus,0
80000178:	00000297          	auipc	t0,0x0
8000017c:	01428293          	addi	t0,t0,20 # 8000018c <test_2>
80000180:	34129073          	csrw	mepc,t0
80000184:	f1402573          	csrr	a0,mhartid
80000188:	30200073          	mret
8000018c:	00200193          	li	gp,2
80000190:	00000593          	li	a1,0
80000194:	00000613          	li	a2,0
80000198:	00c5a733          	slt	a4,a1,a2
8000019c:	00000393          	li	t2,0
800001a0:	4a771a63          	bne	a4,t2,80000654 <fail>
800001a4:	00300193          	li	gp,3
800001a8:	00100593          	li	a1,1
800001ac:	00100613          	li	a2,1
800001b0:	00c5a733          	slt	a4,a1,a2
800001b4:	00000393          	li	t2,0
800001b8:	48771e63          	bne	a4,t2,80000654 <fail>
800001bc:	00400193          	li	gp,4
800001c0:	00300593          	li	a1,3
800001c4:	00700613          	li	a2,7
800001c8:	00c5a733          	slt	a4,a1,a2
800001cc:	00100393          	li	t2,1
800001d0:	48771263          	bne	a4,t2,80000654 <fail>
800001d4:	00500193          	li	gp,5
800001d8:	00700593          	li	a1,7
800001dc:	00300613          	li	a2,3
800001e0:	00c5a733          	slt	a4,a1,a2
800001e4:	00000393          	li	t2,0
800001e8:	46771663          	bne	a4,t2,80000654 <fail>
800001ec:	00600193          	li	gp,6
800001f0:	00000593          	li	a1,0
800001f4:	ffff8637          	lui	a2,0xffff8
800001f8:	00c5a733          	slt	a4,a1,a2
800001fc:	00000393          	li	t2,0
80000200:	44771a63          	bne	a4,t2,80000654 <fail>
80000204:	00700193          	li	gp,7
80000208:	800005b7          	lui	a1,0x80000
8000020c:	00000613          	li	a2,0
80000210:	00c5a733          	slt	a4,a1,a2
80000214:	00100393          	li	t2,1
80000218:	42771e63          	bne	a4,t2,80000654 <fail>
8000021c:	00800193          	li	gp,8
80000220:	800005b7          	lui	a1,0x80000
80000224:	ffff8637          	lui	a2,0xffff8
80000228:	00c5a733          	slt	a4,a1,a2
8000022c:	00100393          	li	t2,1
80000230:	42771263          	bne	a4,t2,80000654 <fail>
80000234:	00900193          	li	gp,9
80000238:	00000593          	li	a1,0
8000023c:	00008637          	lui	a2,0x8
80000240:	fff60613          	addi	a2,a2,-1 # 7fff <__stack_size+0x77ff>
80000244:	00c5a733          	slt	a4,a1,a2
80000248:	00100393          	li	t2,1
8000024c:	40771463          	bne	a4,t2,80000654 <fail>
80000250:	00a00193          	li	gp,10
80000254:	800005b7          	lui	a1,0x80000
80000258:	fff58593          	addi	a1,a1,-1 # 7fffffff <__stack_size+0x7ffff7ff>
8000025c:	00000613          	li	a2,0
80000260:	00c5a733          	slt	a4,a1,a2
80000264:	00000393          	li	t2,0
80000268:	3e771663          	bne	a4,t2,80000654 <fail>
8000026c:	00b00193          	li	gp,11
80000270:	800005b7          	lui	a1,0x80000
80000274:	fff58593          	addi	a1,a1,-1 # 7fffffff <__stack_size+0x7ffff7ff>
80000278:	00008637          	lui	a2,0x8
8000027c:	fff60613          	addi	a2,a2,-1 # 7fff <__stack_size+0x77ff>
80000280:	00c5a733          	slt	a4,a1,a2
80000284:	00000393          	li	t2,0
80000288:	3c771663          	bne	a4,t2,80000654 <fail>
8000028c:	00c00193          	li	gp,12
80000290:	800005b7          	lui	a1,0x80000
80000294:	00008637          	lui	a2,0x8
80000298:	fff60613          	addi	a2,a2,-1 # 7fff <__stack_size+0x77ff>
8000029c:	00c5a733          	slt	a4,a1,a2
800002a0:	00100393          	li	t2,1
800002a4:	3a771863          	bne	a4,t2,80000654 <fail>
800002a8:	00d00193          	li	gp,13
800002ac:	800005b7          	lui	a1,0x80000
800002b0:	fff58593          	addi	a1,a1,-1 # 7fffffff <__stack_size+0x7ffff7ff>
800002b4:	ffff8637          	lui	a2,0xffff8
800002b8:	00c5a733          	slt	a4,a1,a2
800002bc:	00000393          	li	t2,0
800002c0:	38771a63          	bne	a4,t2,80000654 <fail>
800002c4:	00e00193          	li	gp,14
800002c8:	00000593          	li	a1,0
800002cc:	fff00613          	li	a2,-1
800002d0:	00c5a733          	slt	a4,a1,a2
800002d4:	00000393          	li	t2,0
800002d8:	36771e63          	bne	a4,t2,80000654 <fail>
800002dc:	00f00193          	li	gp,15
800002e0:	fff00593          	li	a1,-1
800002e4:	00100613          	li	a2,1
800002e8:	00c5a733          	slt	a4,a1,a2
800002ec:	00100393          	li	t2,1
800002f0:	36771263          	bne	a4,t2,80000654 <fail>
800002f4:	01000193          	li	gp,16
800002f8:	fff00593          	li	a1,-1
800002fc:	fff00613          	li	a2,-1
80000300:	00c5a733          	slt	a4,a1,a2
80000304:	00000393          	li	t2,0
80000308:	34771663          	bne	a4,t2,80000654 <fail>
8000030c:	01100193          	li	gp,17
80000310:	00e00593          	li	a1,14
80000314:	00d00613          	li	a2,13
80000318:	00c5a5b3          	slt	a1,a1,a2
8000031c:	00000393          	li	t2,0
80000320:	32759a63          	bne	a1,t2,80000654 <fail>
80000324:	01200193          	li	gp,18
80000328:	00b00593          	li	a1,11
8000032c:	00d00613          	li	a2,13
80000330:	00c5a633          	slt	a2,a1,a2
80000334:	00100393          	li	t2,1
80000338:	30761e63          	bne	a2,t2,80000654 <fail>
8000033c:	01300193          	li	gp,19
80000340:	00d00593          	li	a1,13
80000344:	00b5a5b3          	slt	a1,a1,a1
80000348:	00000393          	li	t2,0
8000034c:	30759463          	bne	a1,t2,80000654 <fail>
80000350:	01400193          	li	gp,20
80000354:	00000213          	li	tp,0
80000358:	00b00093          	li	ra,11
8000035c:	00d00113          	li	sp,13
80000360:	0020a733          	slt	a4,ra,sp
80000364:	00070313          	mv	t1,a4
80000368:	00120213          	addi	tp,tp,1 # 1 <__heap_size-0x1ff>
8000036c:	00200293          	li	t0,2
80000370:	fe5214e3          	bne	tp,t0,80000358 <test_20+0x8>
80000374:	00100393          	li	t2,1
80000378:	2c731e63          	bne	t1,t2,80000654 <fail>
8000037c:	01500193          	li	gp,21
80000380:	00000213          	li	tp,0
80000384:	00e00093          	li	ra,14
80000388:	00d00113          	li	sp,13
8000038c:	0020a733          	slt	a4,ra,sp
80000390:	00000013          	nop
80000394:	00070313          	mv	t1,a4
80000398:	00120213          	addi	tp,tp,1 # 1 <__heap_size-0x1ff>
8000039c:	00200293          	li	t0,2
800003a0:	fe5212e3          	bne	tp,t0,80000384 <test_21+0x8>
800003a4:	00000393          	li	t2,0
800003a8:	2a731663          	bne	t1,t2,80000654 <fail>
800003ac:	01600193          	li	gp,22
800003b0:	00000213          	li	tp,0
800003b4:	00c00093          	li	ra,12
800003b8:	00d00113          	li	sp,13
800003bc:	0020a733          	slt	a4,ra,sp
800003c0:	00000013          	nop
800003c4:	00000013          	nop
800003c8:	00070313          	mv	t1,a4
800003cc:	00120213          	addi	tp,tp,1 # 1 <__heap_size-0x1ff>
800003d0:	00200293          	li	t0,2
800003d4:	fe5210e3          	bne	tp,t0,800003b4 <test_22+0x8>
800003d8:	00100393          	li	t2,1
800003dc:	26731c63          	bne	t1,t2,80000654 <fail>
800003e0:	01700193          	li	gp,23
800003e4:	00000213          	li	tp,0
800003e8:	00e00093          	li	ra,14
800003ec:	00d00113          	li	sp,13
800003f0:	0020a733          	slt	a4,ra,sp
800003f4:	00120213          	addi	tp,tp,1 # 1 <__heap_size-0x1ff>
800003f8:	00200293          	li	t0,2
800003fc:	fe5216e3          	bne	tp,t0,800003e8 <test_23+0x8>
80000400:	00000393          	li	t2,0
80000404:	24771863          	bne	a4,t2,80000654 <fail>
80000408:	01800193          	li	gp,24
8000040c:	00000213          	li	tp,0
80000410:	00b00093          	li	ra,11
80000414:	00d00113          	li	sp,13
80000418:	00000013          	nop
8000041c:	0020a733          	slt	a4,ra,sp
80000420:	00120213          	addi	tp,tp,1 # 1 <__heap_size-0x1ff>
80000424:	00200293          	li	t0,2
80000428:	fe5214e3          	bne	tp,t0,80000410 <test_24+0x8>
8000042c:	00100393          	li	t2,1
80000430:	22771263          	bne	a4,t2,80000654 <fail>
80000434:	01900193          	li	gp,25
80000438:	00000213          	li	tp,0
8000043c:	00f00093          	li	ra,15
80000440:	00d00113          	li	sp,13
80000444:	00000013          	nop
80000448:	00000013          	nop
8000044c:	0020a733          	slt	a4,ra,sp
80000450:	00120213          	addi	tp,tp,1 # 1 <__heap_size-0x1ff>
80000454:	00200293          	li	t0,2
80000458:	fe5212e3          	bne	tp,t0,8000043c <test_25+0x8>
8000045c:	00000393          	li	t2,0
80000460:	1e771a63          	bne	a4,t2,80000654 <fail>
80000464:	01a00193          	li	gp,26
80000468:	00000213          	li	tp,0
8000046c:	00a00093          	li	ra,10
80000470:	00000013          	nop
80000474:	00d00113          	li	sp,13
80000478:	0020a733          	slt	a4,ra,sp
8000047c:	00120213          	addi	tp,tp,1 # 1 <__heap_size-0x1ff>
80000480:	00200293          	li	t0,2
80000484:	fe5214e3          	bne	tp,t0,8000046c <test_26+0x8>
80000488:	00100393          	li	t2,1
8000048c:	1c771463          	bne	a4,t2,80000654 <fail>
80000490:	01b00193          	li	gp,27
80000494:	00000213          	li	tp,0
80000498:	01000093          	li	ra,16
8000049c:	00000013          	nop
800004a0:	00d00113          	li	sp,13
800004a4:	00000013          	nop
800004a8:	0020a733          	slt	a4,ra,sp
800004ac:	00120213          	addi	tp,tp,1 # 1 <__heap_size-0x1ff>
800004b0:	00200293          	li	t0,2
800004b4:	fe5212e3          	bne	tp,t0,80000498 <test_27+0x8>
800004b8:	00000393          	li	t2,0
800004bc:	18771c63          	bne	a4,t2,80000654 <fail>
800004c0:	01c00193          	li	gp,28
800004c4:	00000213          	li	tp,0
800004c8:	00900093          	li	ra,9
800004cc:	00000013          	nop
800004d0:	00000013          	nop
800004d4:	00d00113          	li	sp,13
800004d8:	0020a733          	slt	a4,ra,sp
800004dc:	00120213          	addi	tp,tp,1 # 1 <__heap_size-0x1ff>
800004e0:	00200293          	li	t0,2
800004e4:	fe5212e3          	bne	tp,t0,800004c8 <test_28+0x8>
800004e8:	00100393          	li	t2,1
800004ec:	16771463          	bne	a4,t2,80000654 <fail>
800004f0:	01d00193          	li	gp,29
800004f4:	00000213          	li	tp,0
800004f8:	00d00113          	li	sp,13
800004fc:	01100093          	li	ra,17
80000500:	0020a733          	slt	a4,ra,sp
80000504:	00120213          	addi	tp,tp,1 # 1 <__heap_size-0x1ff>
80000508:	00200293          	li	t0,2
8000050c:	fe5216e3          	bne	tp,t0,800004f8 <test_29+0x8>
80000510:	00000393          	li	t2,0
80000514:	14771063          	bne	a4,t2,80000654 <fail>
80000518:	01e00193          	li	gp,30
8000051c:	00000213          	li	tp,0
80000520:	00d00113          	li	sp,13
80000524:	00800093          	li	ra,8
80000528:	00000013          	nop
8000052c:	0020a733          	slt	a4,ra,sp
80000530:	00120213          	addi	tp,tp,1 # 1 <__heap_size-0x1ff>
80000534:	00200293          	li	t0,2
80000538:	fe5214e3          	bne	tp,t0,80000520 <test_30+0x8>
8000053c:	00100393          	li	t2,1
80000540:	10771a63          	bne	a4,t2,80000654 <fail>
80000544:	01f00193          	li	gp,31
80000548:	00000213          	li	tp,0
8000054c:	00d00113          	li	sp,13
80000550:	01200093          	li	ra,18
80000554:	00000013          	nop
80000558:	00000013          	nop
8000055c:	0020a733          	slt	a4,ra,sp
80000560:	00120213          	addi	tp,tp,1 # 1 <__heap_size-0x1ff>
80000564:	00200293          	li	t0,2
80000568:	fe5212e3          	bne	tp,t0,8000054c <test_31+0x8>
8000056c:	00000393          	li	t2,0
80000570:	0e771263          	bne	a4,t2,80000654 <fail>
80000574:	02000193          	li	gp,32
80000578:	00000213          	li	tp,0
8000057c:	00d00113          	li	sp,13
80000580:	00000013          	nop
80000584:	00700093          	li	ra,7
80000588:	0020a733          	slt	a4,ra,sp
8000058c:	00120213          	addi	tp,tp,1 # 1 <__heap_size-0x1ff>
80000590:	00200293          	li	t0,2
80000594:	fe5214e3          	bne	tp,t0,8000057c <test_32+0x8>
80000598:	00100393          	li	t2,1
8000059c:	0a771c63          	bne	a4,t2,80000654 <fail>
800005a0:	02100193          	li	gp,33
800005a4:	00000213          	li	tp,0
800005a8:	00d00113          	li	sp,13
800005ac:	00000013          	nop
800005b0:	01300093          	li	ra,19
800005b4:	00000013          	nop
800005b8:	0020a733          	slt	a4,ra,sp
800005bc:	00120213          	addi	tp,tp,1 # 1 <__heap_size-0x1ff>
800005c0:	00200293          	li	t0,2
800005c4:	fe5212e3          	bne	tp,t0,800005a8 <test_33+0x8>
800005c8:	00000393          	li	t2,0
800005cc:	08771463          	bne	a4,t2,80000654 <fail>
800005d0:	02200193          	li	gp,34
800005d4:	00000213          	li	tp,0
800005d8:	00d00113          	li	sp,13
800005dc:	00000013          	nop
800005e0:	00000013          	nop
800005e4:	00600093          	li	ra,6
800005e8:	0020a733          	slt	a4,ra,sp
800005ec:	00120213          	addi	tp,tp,1 # 1 <__heap_size-0x1ff>
800005f0:	00200293          	li	t0,2
800005f4:	fe5212e3          	bne	tp,t0,800005d8 <test_34+0x8>
800005f8:	00100393          	li	t2,1
800005fc:	04771c63          	bne	a4,t2,80000654 <fail>
80000600:	02300193          	li	gp,35
80000604:	fff00093          	li	ra,-1
80000608:	00102133          	sgtz	sp,ra
8000060c:	00000393          	li	t2,0
80000610:	04711263          	bne	sp,t2,80000654 <fail>
80000614:	02400193          	li	gp,36
80000618:	fff00093          	li	ra,-1
8000061c:	0000a133          	sltz	sp,ra
80000620:	00100393          	li	t2,1
80000624:	02711863          	bne	sp,t2,80000654 <fail>
80000628:	02500193          	li	gp,37
8000062c:	000020b3          	sltz	ra,zero
80000630:	00000393          	li	t2,0
80000634:	02709063          	bne	ra,t2,80000654 <fail>
80000638:	02600193          	li	gp,38
8000063c:	01000093          	li	ra,16
80000640:	01e00113          	li	sp,30
80000644:	0020a033          	slt	zero,ra,sp
80000648:	00000393          	li	t2,0
8000064c:	00701463          	bne	zero,t2,80000654 <fail>
80000650:	02301063          	bne	zero,gp,80000670 <pass>
80000654:	0ff0000f          	fence
80000658:	00018063          	beqz	gp,80000658 <fail+0x4>
8000065c:	00119193          	slli	gp,gp,0x1
80000660:	0011e193          	ori	gp,gp,1
80000664:	05d00893          	li	a7,93
80000668:	00018513          	mv	a0,gp
8000066c:	00000073          	ecall
80000670:	0ff0000f          	fence
80000674:	00100193          	li	gp,1
80000678:	05d00893          	li	a7,93
8000067c:	00000513          	li	a0,0
80000680:	00000073          	ecall
80000684:	c0001073          	unimp
80000688:	0000                	.insn	2, 0x
8000068a:	0000                	.insn	2, 0x
8000068c:	0000                	.insn	2, 0x
8000068e:	0000                	.insn	2, 0x
80000690:	0000                	.insn	2, 0x
80000692:	0000                	.insn	2, 0x
80000694:	0000                	.insn	2, 0x
80000696:	0000                	.insn	2, 0x
80000698:	0000                	.insn	2, 0x
8000069a:	0000                	.insn	2, 0x
8000069c:	0000                	.insn	2, 0x
8000069e:	0000                	.insn	2, 0x
800006a0:	0000                	.insn	2, 0x
800006a2:	0000                	.insn	2, 0x
800006a4:	0000                	.insn	2, 0x
800006a6:	0000                	.insn	2, 0x
800006a8:	0000                	.insn	2, 0x
800006aa:	0000                	.insn	2, 0x
800006ac:	0000                	.insn	2, 0x
800006ae:	0000                	.insn	2, 0x
800006b0:	0000                	.insn	2, 0x
800006b2:	0000                	.insn	2, 0x
800006b4:	0000                	.insn	2, 0x
800006b6:	0000                	.insn	2, 0x
800006b8:	0000                	.insn	2, 0x
800006ba:	0000                	.insn	2, 0x
80000000:	0500006f          	j	80000050 <reset_vector>
80000004:	34202f73          	csrr	t5,mcause
80000008:	00800f93          	li	t6,8
8000000c:	03ff0863          	beq	t5,t6,8000003c <write_tohost>
80000010:	00900f93          	li	t6,9
80000014:	03ff0463          	beq	t5,t6,8000003c <write_tohost>
80000018:	00b00f93          	li	t6,11
8000001c:	03ff0063          	beq	t5,t6,8000003c <write_tohost>
80000020:	00000f13          	li	t5,0
80000024:	000f0463          	beqz	t5,8000002c <trap_vector+0x28>
80000028:	000f0067          	jr	t5
8000002c:	34202f73          	csrr	t5,mcause
80000030:	000f5463          	bgez	t5,80000038 <handle_exception>
80000034:	0040006f          	j	80000038 <handle_exception>
80000038:	5391e193          	ori	gp,gp,1337
8000003c:	20000f17          	auipc	t5,0x20000
80000040:	fc3f2223          	sw	gp,-60(t5) # a0000000 <tohost>
80000044:	20000f17          	auipc	t5,0x20000
80000048:	fc0f2023          	sw	zero,-64(t5) # a0000004 <tohost+0x4>
8000004c:	ff1ff06f          	j	8000003c <write_tohost>
80000050:	00000093          	li	ra,0
80000054:	00000113          	li	sp,0
80000058:	00000193          	li	gp,0
8000005c:	00000213          	li	tp,0
80000060:	00000293          	li	t0,0
80000064:	00000313          	li	t1,0
80000068:	00000393          	li	t2,0
8000006c:	00000413          	li	s0,0
80000070:	00000493          	li	s1,0
80000074:	00000513          	li	a0,0
80000078:	00000593          	li	a1,0
8000007c:	00000613          	li	a2,0
80000080:	00000693          	li	a3,0
80000084:	00000713          	li	a4,0
80000088:	00000793          	li	a5,0
8000008c:	00000813          	li	a6,0
80000090:	00000893          	li	a7,0
80000094:	00000913          	li	s2,0
80000098:	00000993          	li	s3,0
8000009c:	00000a13          	li	s4,0
800000a0:	00000a93          	li	s5,0
800000a4:	00000b13          	li	s6,0
800000a8:	00000b93          	li	s7,0
800000ac:	00000c13          	li	s8,0
800000b0:	00000c93          	li	s9,0
800000b4:	00000d13          	li	s10,0
800000b8:	00000d93          	li	s11,0
800000bc:	00000e13          	li	t3,0
800000c0:	00000e93          	li	t4,0
800000c4:	00000f13          	li	t5,0
800000c8:	00000f93          	li	t6,0
800000cc:	f1402573          	csrr	a0,mhartid
800000d0:	00051063          	bnez	a0,800000d0 <reset_vector+0x80>
800000d4:	00000297          	auipc	t0,0x0
800000d8:	01028293          	addi	t0,t0,16 # 800000e4 <reset_vector+0x94>
800000dc:	30529073          	csrw	mtvec,t0
800000e0:	74445073          	csrwi	0x744,8
800000e4:	00000297          	auipc	t0,0x0
800000e8:	01028293          	addi	t0,t0,16 # 800000f4 <reset_vector+0xa4>
800000ec:	30529073          	csrw	mtvec,t0
800000f0:	18005073          	csrwi	satp,0
800000f4:	00000297          	auipc	t0,0x0
800000f8:	02028293          	addi	t0,t0,32 # 80000114 <reset_vector+0xc4>
800000fc:	30529073          	csrw	mtvec,t0
80000100:	800002b7          	lui	t0,0x80000
80000104:	fff28293          	addi	t0,t0,-1 # 7fffffff <__stack_size+0x7ffff7ff>
80000108:	3b029073          	csrw	pmpaddr0,t0
8000010c:	01f00293          	li	t0,31
80000110:	3a029073          	csrw	pmpcfg0,t0
80000114:	30405073          	csrwi	mie,0
80000118:	00000297          	auipc	t0,0x0
8000011c:	01428293          	addi	t0,t0,20 # 8000012c <reset_vector+0xdc>
80000120:	30529073          	csrw	mtvec,t0
80000124:	30205073          	csrwi	medeleg,0
80000128:	30305073          	csrwi	mideleg,0
8000012c:	00000193          	li	gp,0
80000130:	00000297          	auipc	t0,0x0
80000134:	ed428293          	addi	t0,t0,-300 # 80000004 <trap_vector>
80000138:	30529073          	csrw	mtvec,t0
8000013c:	00100513          	li	a0,1
80000140:	01f51513          	slli	a0,a0,0x1f
80000144:	00054c63          	bltz	a0,8000015c <reset_vector+0x10c>
80000148:	0ff0000f          	fence
8000014c:	00100193          	li	gp,1
80000150:	05d00893          	li	a7,93
80000154:	00000513          	li	a0,0
80000158:	00000073          	ecall
8000015c:	00000293          	li	t0,0
80000160:	00028a63          	beqz	t0,80000174 <reset_vector+0x124>
80000164:	10529073          	csrw	stvec,t0
80000168:	0000b2b7          	lui	t0,0xb
8000016c:	10928293          	addi	t0,t0,265 # b109 <__stack_size+0xa909>
80000170:	30229073          	csrw	medeleg,t0
80000174:	30005073          	csrwi	mstatus,0
80000178:	00000297          	auipc	t0,0x0
8000017c:	01428293          	addi	t0,t0,20 # 8000018c <test_2>
80000180:	34129073          	csrw	mepc,t0
80000184:	f1402573          	csrr	a0,mhartid
80000188:	30200073          	mret
8000018c:	00200193          	li	gp,2
80000190:	00000093          	li	ra,0
80000194:	00100113          	li	sp,1
80000198:	0020c663          	blt	ra,sp,800001a4 <test_2+0x18>
8000019c:	2a301863          	bne	zero,gp,8000044c <fail>
800001a0:	00301663          	bne	zero,gp,800001ac <test_3>
800001a4:	fe20cee3          	blt	ra,sp,800001a0 <test_2+0x14>
800001a8:	2a301263          	bne	zero,gp,8000044c <fail>
800001ac:	00300193          	li	gp,3
800001b0:	fff00093          	li	ra,-1
800001b4:	00100113          	li	sp,1
800001b8:	0020c663          	blt	ra,sp,800001c4 <test_3+0x18>
800001bc:	28301863          	bne	zero,gp,8000044c <fail>
800001c0:	00301663          	bne	zero,gp,800001cc <test_4>
800001c4:	fe20cee3          	blt	ra,sp,800001c0 <test_3+0x14>
800001c8:	28301263          	bne	zero,gp,8000044c <fail>
800001cc:	00400193          	li	gp,4
800001d0:	ffe00093          	li	ra,-2
800001d4:	fff00113          	li	sp,-1
800001d8:	0020c663          	blt	ra,sp,800001e4 <test_4+0x18>
800001dc:	26301863          	bne	zero,gp,8000044c <fail>
800001e0:	00301663          	bne	zero,gp,800001ec <test_5>
800001e4:	fe20cee3          	blt	ra,sp,800001e0 <test_4+0x14>
800001e8:	26301263          	bne	zero,gp,8000044c <fail>
800001ec:	00500193          	li	gp,5
800001f0:	00100093          	li	ra,1
800001f4:	00000113          	li	sp,0
800001f8:	0020c463          	blt	ra,sp,80000200 <test_5+0x14>
800001fc:	00301463          	bne	zero,gp,80000204 <test_5+0x18>
80000200:	24301663          	bne	zero,gp,8000044c <fail>
80000204:	fe20cee3          	blt	ra,sp,80000200 <test_5+0x14>
80000208:	00600193          	li	gp,6
8000020c:	00100093          	li	ra,1
80000210:	fff00113          	li	sp,-1
80000214:	0020c463          	blt	ra,sp,8000021c <test_6+0x14>
80000218:	00301463          	bne	zero,gp,80000220 <test_6+0x18>
8000021c:	22301863          	bne	zero,gp,8000044c <fail>
80000220:	fe20cee3          	blt	ra,sp,8000021c <test_6+0x14>
80000224:	00700193          	li	gp,7
80000228:	fff00093          	li	ra,-1
8000022c:	ffe00113          	li	sp,-2
80000230:	0020c463          	blt	ra,sp,80000238 <test_7+0x14>
80000234:	00301463          	bne	zero,gp,8000023c <test_7+0x18>
80000238:	20301a63          	bne	zero,gp,8000044c <fail>
8000023c:	fe20cee3          	blt	ra,sp,80000238 <test_7+0x14>
80000240:	00800193          	li	gp,8
80000244:	00100093          	li	ra,1
80000248:	ffe00113          	li	sp,-2
8000024c:	0020c463          	blt	ra,sp,80000254 <test_8+0x14>
80000250:	00301463          	bne	zero,gp,80000258 <test_8+0x18>
80000254:	1e301c63          	bne	zero,gp,8000044c <fail>
80000258:	fe20cee3          	blt	ra,sp,80000254 <test_8+0x14>
8000025c:	00900193          	li	gp,9
80000260:	00000213          	li	tp,0
80000264:	00000093          	li	ra,0
80000268:	fff00113          	li	sp,-1
8000026c:	1e20c063          	blt	ra,sp,8000044c <fail>
80000270:	00120213          	addi	tp,tp,1 # 1 <__heap_size-0x1ff>
80000274:	00200293          	li	t0,2
80000278:	fe5216e3          	bne	tp,t0,80000264 <test_9+0x8>
8000027c:	00a00193          	li	gp,10
80000280:	00000213          	li	tp,0
80000284:	00000093          	li	ra,0
80000288:	fff00113          	li	sp,-1
8000028c:	00000013          	nop
80000290:	1a20ce63          	blt	ra,sp,8000044c <fail>
80000294:	00120213          	addi	tp,tp,1 # 1 <__heap_size-0x1ff>
80000298:	00200293          	li	t0,2
8000029c:	fe5214e3          	bne	tp,t0,80000284 <test_10+0x8>
800002a0:	00b00193          	li	gp,11
800002a4:	00000213          	li	tp,0
800002a8:	00000093          	li	ra,0
800002ac:	fff00113          	li	sp,-1
800002b0:	00000013          	nop
800002b4:	00000013          	nop
800002b8:	1820ca63          	blt	ra,sp,8000044c <fail>
800002bc:	00120213          	addi	tp,tp,1 # 1 <__heap_size-0x1ff>
800002c0:	00200293          	li	t0,2
800002c4:	fe5212e3          	bne	tp,t0,800002a8 <test_11+0x8>
800002c8:	00c00193          	li	gp,12
800002cc:	00000213          	li	tp,0
800002d0:	00000093          	li	ra,0
800002d4:	00000013          	nop
800002d8:	fff00113          	li	sp,-1
800002dc:	1620c863          	blt	ra,sp,8000044c <fail>
800002e0:	00120213          	addi	tp,tp,1 # 1 <__heap_size-0x1ff>
800002e4:	00200293          	li	t0,2
800002e8:	fe5214e3          	bne	tp,t0,800002d0 <test_12+0x8>
800002ec:	00d00193          	li	gp,13
800002f0:	00000213          	li	tp,0
800002f4:	00000093          	li	ra,0
800002f8:	00000013          	nop
800002fc:	fff00113          	li	sp,-1
80000300:	00000013          	nop
80000304:	1420c463          	blt	ra,sp,8000044c <fail>
80000308:	00120213          	addi	tp,tp,1 # 1 <__heap_size-0x1ff>
8000030c:	00200293          	li	t0,2
80000310:	fe5212e3          	bne	tp,t0,800002f4 <test_13+0x8>
80000314:	00e00193          	li	gp,14
80000318:	00000213          	li	tp,0
8000031c:	00000093          	li	ra,0
80000320:	00000013          	nop
80000324:	00000013          	nop
80000328:	fff00113          	li	sp,-1
8000032c:	1220c063          	blt	ra,sp,8000044c <fail>
80000330:	00120213          	addi	tp,tp,1 # 1 <__heap_size-0x1ff>
80000334:	00200293          	li	t0,2
80000338:	fe5212e3          	bne	tp,t0,8000031c <test_14+0x8>
8000033c:	00f00193          	li	gp,15
80000340:	00000213          	li	tp,0
80000344:	00000093          	li	ra,0
80000348:	fff00113          	li	sp,-1
8000034c:	1020c063          	blt	ra,sp,8000044c <fail>
80000350:	00120213          	addi	tp,tp,1 # 1 <__heap_size-0x1ff>
80000354:	00200293          	li	t0,2
80000358:	fe5216e3          	bne	tp,t0,80000344 <test_15+0x8>
8000035c:	01000193          	li	gp,16
80000360:	00000213          	li	tp,0
80000364:	00000093          	li	ra,0
80000368:	fff00113          	li	sp,-1
8000036c:	00000013          	nop
80000370:	0c20ce63          	blt	ra,sp,8000044c <fail>
80000374:	00120213          	addi	tp,tp,1 # 1 <__heap_size-0x1ff>
80000378:	00200293          	li	t0,2
8000037c:	fe5214e3          	bne	tp,t0,80000364 <test_16+0x8>
80000380:	01100193          	li	gp,17
80000384:	00000213          	li	tp,0
80000388:	00000093          	li	ra,0
8000038c:	fff00113          	li	sp,-1
80000390:	00000013          	nop
80000394:	00000013          	nop
80000398:	0a20ca63          	blt	ra,sp,8000044c <fail>
8000039c:	00120213          	addi	tp,tp,1 # 1 <__heap_size-0x1ff>
800003a0:	00200293          	li	t0,2
800003a4:	fe5212e3          	bne	tp,t0,80000388 <test_17+0x8>
800003a8:	01200193          	li	gp,18
800003ac:	00000213          	li	tp,0
800003b0:	00000093          	li	ra,0
800003b4:	00000013          	nop
800003b8:	fff00113          	li	sp,-1
800003bc:	0820c863          	blt	ra,sp,8000044c <fail>
800003c0:	00120213          	addi	tp,tp,1 # 1 <__heap_size-0x1ff>
800003c4:	00200293          	li	t0,2
800003c8:	fe5214e3          	bne	tp,t0,800003b0 <test_18+0x8>
800003cc:	01300193          	li	gp,19
800003d0:	00000213          	li	tp,0
800003d4:	00000093          	li	ra,0
800003d8:	00000013          	nop
800003dc:	fff00113          	li	sp,-1
800003e0:	00000013          	nop
800003e4:	0620c463          	blt	ra,sp,8000044c <fail>
800003e8:	00120213          	addi	tp,tp,1 # 1 <__heap_size-0x1ff>
800003ec:	00200293          	li	t0,2
800003f0:	fe5212e3          	bne	tp,t0,800003d4 <test_19+0x8>
800003f4:	01400193          	li	gp,20
800003f8:	00000213          	li	tp,0
800003fc:	00000093          	li	ra,0
80000400:	00000013          	nop
80000404:	00000013          	nop
80000408:	fff00113          	li	sp,-1
8000040c:	0420c063          	blt	ra,sp,8000044c <fail>
80000410:	00120213          	addi	tp,tp,1 # 1 <__heap_size-0x1ff>
80000414:	00200293          	li	t0,2
80000418:	fe5212e3          	bne	tp,t0,800003fc <test_20+0x8>
8000041c:	01500193          	li	gp,21
80000420:	00100093          	li	ra,1
80000424:	00104a63          	bgtz	ra,80000438 <test_21+0x1c>
80000428:	00108093          	addi	ra,ra,1
8000042c:	00108093          	addi	ra,ra,1
80000430:	00108093          	addi	ra,ra,1
80000434:	00108093          	addi	ra,ra,1
80000438:	00108093          	addi	ra,ra,1
8000043c:	00108093          	addi	ra,ra,1
80000440:	00300393          	li	t2,3
80000444:	00709463          	bne	ra,t2,8000044c <fail>
80000448:	02301063          	bne	zero,gp,80000468 <pass>
8000044c:	0ff0000f          	fence
80000450:	00018063          	beqz	gp,80000450 <fail+0x4>
80000454:	00119193          	slli	gp,gp,0x1
80000458:	0011e193          	ori	gp,gp,1
8000045c:	05d00893          	li	a7,93
80000460:	00018513          	mv	a0,gp
80000464:	00000073          	ecall
80000468:	0ff0000f          	fence
8000046c:	00100193          	li	gp,1
80000470:	05d00893          	li	a7,93
80000474:	00000513          	li	a0,0
80000478:	00000073          	ecall
8000047c:	c0001073          	unimp
80000480:	0000                	.insn	2, 0x
80000482:	0000                	.insn	2, 0x
80000484:	0000                	.insn	2, 0x
80000486:	0000                	.insn	2, 0x
80000488:	0000                	.insn	2, 0x
8000048a:	0000                	.insn	2, 0x
8000048c:	0000                	.insn	2, 0x
8000048e:	0000                	.insn	2, 0x
80000490:	0000                	.insn	2, 0x
80000492:	0000                	.insn	2, 0x
80000494:	0000                	.insn	2, 0x
80000496:	0000                	.insn	2, 0x
80000498:	0000                	.insn	2, 0x
8000049a:	0000                	.insn	2, 0x
8000049c:	0000                	.insn	2, 0x
8000049e:	0000                	.insn	2, 0x
800004a0:	0000                	.insn	2, 0x
800004a2:	0000                	.insn	2, 0x
800004a4:	0000                	.insn	2, 0x
800004a6:	0000                	.insn	2, 0x
800004a8:	0000                	.insn	2, 0x
800004aa:	0000                	.insn	2, 0x
800004ac:	0000                	.insn	2, 0x
800004ae:	0000                	.insn	2, 0x
800004b0:	0000                	.insn	2, 0x
800004b2:	0000                	.insn	2, 0x
800004b4:	0000                	.insn	2, 0x
800004b6:	0000                	.insn	2, 0x
800004b8:	0000                	.insn	2, 0x
800004ba:	0000                	.insn	2, 0x
80000000:	0500006f          	j	80000050 <reset_vector>
80000004:	34202f73          	csrr	t5,mcause
80000008:	00800f93          	li	t6,8
8000000c:	03ff0863          	beq	t5,t6,8000003c <write_tohost>
80000010:	00900f93          	li	t6,9
80000014:	03ff0463          	beq	t5,t6,8000003c <write_tohost>
80000018:	00b00f93          	li	t6,11
8000001c:	03ff0063          	beq	t5,t6,8000003c <write_tohost>
80000020:	00000f13          	li	t5,0
80000024:	000f0463          	beqz	t5,8000002c <trap_vector+0x28>
80000028:	000f0067          	jr	t5
8000002c:	34202f73          	csrr	t5,mcause
80000030:	000f5463          	bgez	t5,80000038 <handle_exception>
80000034:	0040006f          	j	80000038 <handle_exception>
80000038:	5391e193          	ori	gp,gp,1337
8000003c:	20000f17          	auipc	t5,0x20000
80000040:	fc3f2223          	sw	gp,-60(t5) # a0000000 <tohost>
80000044:	20000f17          	auipc	t5,0x20000
80000048:	fc0f2023          	sw	zero,-64(t5) # a0000004 <tohost+0x4>
8000004c:	ff1ff06f          	j	8000003c <write_tohost>
80000050:	00000093          	li	ra,0
80000054:	00000113          	li	sp,0
80000058:	00000193          	li	gp,0
8000005c:	00000213          	li	tp,0
80000060:	00000293          	li	t0,0
80000064:	00000313          	li	t1,0
80000068:	00000393          	li	t2,0
8000006c:	00000413          	li	s0,0
80000070:	00000493          	li	s1,0
80000074:	00000513          	li	a0,0
80000078:	00000593          	li	a1,0
8000007c:	00000613          	li	a2,0
80000080:	00000693          	li	a3,0
80000084:	00000713          	li	a4,0
80000088:	00000793          	li	a5,0
8000008c:	00000813          	li	a6,0
80000090:	00000893          	li	a7,0
80000094:	00000913          	li	s2,0
80000098:	00000993          	li	s3,0
8000009c:	00000a13          	li	s4,0
800000a0:	00000a93          	li	s5,0
800000a4:	00000b13          	li	s6,0
800000a8:	00000b93          	li	s7,0
800000ac:	00000c13          	li	s8,0
800000b0:	00000c93          	li	s9,0
800000b4:	00000d13          	li	s10,0
800000b8:	00000d93          	li	s11,0
800000bc:	00000e13          	li	t3,0
800000c0:	00000e93          	li	t4,0
800000c4:	00000f13          	li	t5,0
800000c8:	00000f93          	li	t6,0
800000cc:	f1402573          	csrr	a0,mhartid
800000d0:	00051063          	bnez	a0,800000d0 <reset_vector+0x80>
800000d4:	00000297          	auipc	t0,0x0
800000d8:	01028293          	addi	t0,t0,16 # 800000e4 <reset_vector+0x94>
800000dc:	30529073          	csrw	mtvec,t0
800000e0:	74445073          	csrwi	0x744,8
800000e4:	00000297          	auipc	t0,0x0
800000e8:	01028293          	addi	t0,t0,16 # 800000f4 <reset_vector+0xa4>
800000ec:	30529073          	csrw	mtvec,t0
800000f0:	18005073          	csrwi	satp,0
800000f4:	00000297          	auipc	t0,0x0
800000f8:	02028293          	addi	t0,t0,32 # 80000114 <reset_vector+0xc4>
800000fc:	30529073          	csrw	mtvec,t0
80000100:	800002b7          	lui	t0,0x80000
80000104:	fff28293          	addi	t0,t0,-1 # 7fffffff <__stack_size+0x7ffff7ff>
80000108:	3b029073          	csrw	pmpaddr0,t0
8000010c:	01f00293          	li	t0,31
80000110:	3a029073          	csrw	pmpcfg0,t0
80000114:	30405073          	csrwi	mie,0
80000118:	00000297          	auipc	t0,0x0
8000011c:	01428293          	addi	t0,t0,20 # 8000012c <reset_vector+0xdc>
80000120:	30529073          	csrw	mtvec,t0
80000124:	30205073          	csrwi	medeleg,0
80000128:	30305073          	csrwi	mideleg,0
8000012c:	00000193          	li	gp,0
80000130:	00000297          	auipc	t0,0x0
80000134:	ed428293          	addi	t0,t0,-300 # 80000004 <trap_vector>
80000138:	30529073          	csrw	mtvec,t0
8000013c:	00100513          	li	a0,1
80000140:	01f51513          	slli	a0,a0,0x1f
80000144:	00054c63          	bltz	a0,8000015c <reset_vector+0x10c>
80000148:	0ff0000f          	fence
8000014c:	00100193          	li	gp,1
80000150:	05d00893          	li	a7,93
80000154:	00000513          	li	a0,0
80000158:	00000073          	ecall
8000015c:	00000293          	li	t0,0
80000160:	00028a63          	beqz	t0,80000174 <reset_vector+0x124>
80000164:	10529073          	csrw	stvec,t0
80000168:	0000b2b7          	lui	t0,0xb
8000016c:	10928293          	addi	t0,t0,265 # b109 <__stack_size+0xa909>
80000170:	30229073          	csrw	medeleg,t0
80000174:	30005073          	csrwi	mstatus,0
80000178:	00000297          	auipc	t0,0x0
8000017c:	01428293          	addi	t0,t0,20 # 8000018c <test_2>
80000180:	34129073          	csrw	mepc,t0
80000184:	f1402573          	csrr	a0,mhartid
80000188:	30200073          	mret
8000018c:	00200193          	li	gp,2
80000190:	00000693          	li	a3,0
80000194:	0006b713          	sltiu	a4,a3,0
80000198:	00000393          	li	t2,0
8000019c:	26771263          	bne	a4,t2,80000400 <fail>
800001a0:	00300193          	li	gp,3
800001a4:	00100693          	li	a3,1
800001a8:	0016b713          	seqz	a4,a3
800001ac:	00000393          	li	t2,0
800001b0:	24771863          	bne	a4,t2,80000400 <fail>
800001b4:	00400193          	li	gp,4
800001b8:	00300693          	li	a3,3
800001bc:	0076b713          	sltiu	a4,a3,7
800001c0:	00100393          	li	t2,1
800001c4:	22771e63          	bne	a4,t2,80000400 <fail>
800001c8:	00500193          	li	gp,5
800001cc:	00700693          	li	a3,7
800001d0:	0036b713          	sltiu	a4,a3,3
800001d4:	00000393          	li	t2,0
800001d8:	22771463          	bne	a4,t2,80000400 <fail>
800001dc:	00600193          	li	gp,6
800001e0:	00000693          	li	a3,0
800001e4:	8006b713          	sltiu	a4,a3,-2048
800001e8:	00100393          	li	t2,1
800001ec:	20771a63          	bne	a4,t2,80000400 <fail>
800001f0:	00700193          	li	gp,7
800001f4:	800006b7          	lui	a3,0x80000
800001f8:	0006b713          	sltiu	a4,a3,0
800001fc:	00000393          	li	t2,0
80000200:	20771063          	bne	a4,t2,80000400 <fail>
80000204:	00800193          	li	gp,8
80000208:	800006b7          	lui	a3,0x80000
8000020c:	8006b713          	sltiu	a4,a3,-2048
80000210:	00100393          	li	t2,1
80000214:	1e771663          	bne	a4,t2,80000400 <fail>
80000218:	00900193          	li	gp,9
8000021c:	00000693          	li	a3,0
80000220:	7ff6b713          	sltiu	a4,a3,2047
80000224:	00100393          	li	t2,1
80000228:	1c771c63          	bne	a4,t2,80000400 <fail>
8000022c:	00a00193          	li	gp,10
80000230:	800006b7          	lui	a3,0x80000
80000234:	fff68693          	addi	a3,a3,-1 # 7fffffff <__stack_size+0x7ffff7ff>
80000238:	0006b713          	sltiu	a4,a3,0
8000023c:	00000393          	li	t2,0
80000240:	1c771063          	bne	a4,t2,80000400 <fail>
80000244:	00b00193          	li	gp,11
80000248:	800006b7          	lui	a3,0x80000
8000024c:	fff68693          	addi	a3,a3,-1 # 7fffffff <__stack_size+0x7ffff7ff>
80000250:	7ff6b713          	sltiu	a4,a3,2047
80000254:	00000393          	li	t2,0
80000258:	1a771463          	bne	a4,t2,80000400 <fail>
8000025c:	00c00193          	li	gp,12
80000260:	800006b7          	lui	a3,0x80000
80000264:	7ff6b713          	sltiu	a4,a3,2047
80000268:	00000393          	li	t2,0
8000026c:	18771a63          	bne	a4,t2,80000400 <fail>
80000270:	00d00193          	li	gp,13
80000274:	800006b7          	lui	a3,0x80000
80000278:	fff68693          	addi	a3,a3,-1 # 7fffffff <__stack_size+0x7ffff7ff>
8000027c:	8006b713          	sltiu	a4,a3,-2048
80000280:	00100393          	li	t2,1
80000284:	16771e63          	bne	a4,t2,80000400 <fail>
80000288:	00e00193          	li	gp,14
8000028c:	00000693          	li	a3,0
80000290:	fff6b713          	sltiu	a4,a3,-1
80000294:	00100393          	li	t2,1
80000298:	16771463          	bne	a4,t2,80000400 <fail>
8000029c:	00f00193          	li	gp,15
800002a0:	fff00693          	li	a3,-1
800002a4:	0016b713          	seqz	a4,a3
800002a8:	00000393          	li	t2,0
800002ac:	14771a63          	bne	a4,t2,80000400 <fail>
800002b0:	01000193          	li	gp,16
800002b4:	fff00693          	li	a3,-1
800002b8:	fff6b713          	sltiu	a4,a3,-1
800002bc:	00000393          	li	t2,0
800002c0:	14771063          	bne	a4,t2,80000400 <fail>
800002c4:	01100193          	li	gp,17
800002c8:	00b00593          	li	a1,11
800002cc:	00d5b593          	sltiu	a1,a1,13
800002d0:	00100393          	li	t2,1
800002d4:	12759663          	bne	a1,t2,80000400 <fail>
800002d8:	01200193          	li	gp,18
800002dc:	00000213          	li	tp,0
800002e0:	00f00093          	li	ra,15
800002e4:	00a0b713          	sltiu	a4,ra,10
800002e8:	00070313          	mv	t1,a4
800002ec:	00120213          	addi	tp,tp,1 # 1 <__heap_size-0x1ff>
800002f0:	00200293          	li	t0,2
800002f4:	fe5216e3          	bne	tp,t0,800002e0 <test_18+0x8>
800002f8:	00000393          	li	t2,0
800002fc:	10731263          	bne	t1,t2,80000400 <fail>
80000300:	01300193          	li	gp,19
80000304:	00000213          	li	tp,0
80000308:	00a00093          	li	ra,10
8000030c:	0100b713          	sltiu	a4,ra,16
80000310:	00000013          	nop
80000314:	00070313          	mv	t1,a4
80000318:	00120213          	addi	tp,tp,1 # 1 <__heap_size-0x1ff>
8000031c:	00200293          	li	t0,2
80000320:	fe5214e3          	bne	tp,t0,80000308 <test_19+0x8>
80000324:	00100393          	li	t2,1
80000328:	0c731c63          	bne	t1,t2,80000400 <fail>
8000032c:	01400193          	li	gp,20
80000330:	00000213          	li	tp,0
80000334:	01000093          	li	ra,16
80000338:	0090b713          	sltiu	a4,ra,9
8000033c:	00000013          	nop
80000340:	00000013          	nop
80000344:	00070313          	mv	t1,a4
80000348:	00120213          	addi	tp,tp,1 # 1 <__heap_size-0x1ff>
8000034c:	00200293          	li	t0,2
80000350:	fe5212e3          	bne	tp,t0,80000334 <test_20+0x8>
80000354:	00000393          	li	t2,0
80000358:	0a731463          	bne	t1,t2,80000400 <fail>
8000035c:	01500193          	li	gp,21
80000360:	00000213          	li	tp,0
80000364:	00b00093          	li	ra,11
80000368:	00f0b713          	sltiu	a4,ra,15
8000036c:	00120213          	addi	tp,tp,1 # 1 <__heap_size-0x1ff>
80000370:	00200293          	li	t0,2
80000374:	fe5218e3          	bne	tp,t0,80000364 <test_21+0x8>
80000378:	00100393          	li	t2,1
8000037c:	08771263          	bne	a4,t2,80000400 <fail>
80000380:	01600193          	li	gp,22
80000384:	00000213          	li	tp,0
80000388:	01100093          	li	ra,17
8000038c:	00000013          	nop
80000390:	0080b713          	sltiu	a4,ra,8
80000394:	00120213          	addi	tp,tp,1 # 1 <__heap_size-0x1ff>
80000398:	00200293          	li	t0,2
8000039c:	fe5216e3          	bne	tp,t0,80000388 <test_22+0x8>
800003a0:	00000393          	li	t2,0
800003a4:	04771e63          	bne	a4,t2,80000400 <fail>
800003a8:	01700193          	li	gp,23
800003ac:	00000213          	li	tp,0
800003b0:	00c00093          	li	ra,12
800003b4:	00000013          	nop
800003b8:	00000013          	nop
800003bc:	00e0b713          	sltiu	a4,ra,14
800003c0:	00120213          	addi	tp,tp,1 # 1 <__heap_size-0x1ff>
800003c4:	00200293          	li	t0,2
800003c8:	fe5214e3          	bne	tp,t0,800003b0 <test_23+0x8>
800003cc:	00100393          	li	t2,1
800003d0:	02771863          	bne	a4,t2,80000400 <fail>
800003d4:	01800193          	li	gp,24
800003d8:	fff03093          	sltiu	ra,zero,-1
800003dc:	00100393          	li	t2,1
800003e0:	02709063          	bne	ra,t2,80000400 <fail>
800003e4:	01900193          	li	gp,25
800003e8:	00ff00b7          	lui	ra,0xff0
800003ec:	0ff08093          	addi	ra,ra,255 # ff00ff <__stack_size+0xfef8ff>
800003f0:	fff0b013          	sltiu	zero,ra,-1
800003f4:	00000393          	li	t2,0
800003f8:	00701463          	bne	zero,t2,80000400 <fail>
800003fc:	02301063          	bne	zero,gp,8000041c <pass>
80000400:	0ff0000f          	fence
80000404:	00018063          	beqz	gp,80000404 <fail+0x4>
80000408:	00119193          	slli	gp,gp,0x1
8000040c:	0011e193          	ori	gp,gp,1
80000410:	05d00893          	li	a7,93
80000414:	00018513          	mv	a0,gp
80000418:	00000073          	ecall
8000041c:	0ff0000f          	fence
80000420:	00100193          	li	gp,1
80000424:	05d00893          	li	a7,93
80000428:	00000513          	li	a0,0
8000042c:	00000073          	ecall
80000430:	c0001073          	unimp
80000434:	0000                	.insn	2, 0x
80000436:	0000                	.insn	2, 0x
80000438:	0000                	.insn	2, 0x
8000043a:	0000                	.insn	2, 0x
80000000:	0500006f          	j	80000050 <reset_vector>
80000004:	34202f73          	csrr	t5,mcause
80000008:	00800f93          	li	t6,8
8000000c:	03ff0863          	beq	t5,t6,8000003c <write_tohost>
80000010:	00900f93          	li	t6,9
80000014:	03ff0463          	beq	t5,t6,8000003c <write_tohost>
80000018:	00b00f93          	li	t6,11
8000001c:	03ff0063          	beq	t5,t6,8000003c <write_tohost>
80000020:	00000f13          	li	t5,0
80000024:	000f0463          	beqz	t5,8000002c <trap_vector+0x28>
80000028:	000f0067          	jr	t5
8000002c:	34202f73          	csrr	t5,mcause
80000030:	000f5463          	bgez	t5,80000038 <handle_exception>
80000034:	0040006f          	j	80000038 <handle_exception>
80000038:	5391e193          	ori	gp,gp,1337
8000003c:	20000f17          	auipc	t5,0x20000
80000040:	fc3f2223          	sw	gp,-60(t5) # a0000000 <tohost>
80000044:	20000f17          	auipc	t5,0x20000
80000048:	fc0f2023          	sw	zero,-64(t5) # a0000004 <tohost+0x4>
8000004c:	ff1ff06f          	j	8000003c <write_tohost>
80000050:	00000093          	li	ra,0
80000054:	00000113          	li	sp,0
80000058:	00000193          	li	gp,0
8000005c:	00000213          	li	tp,0
80000060:	00000293          	li	t0,0
80000064:	00000313          	li	t1,0
80000068:	00000393          	li	t2,0
8000006c:	00000413          	li	s0,0
80000070:	00000493          	li	s1,0
80000074:	00000513          	li	a0,0
80000078:	00000593          	li	a1,0
8000007c:	00000613          	li	a2,0
80000080:	00000693          	li	a3,0
80000084:	00000713          	li	a4,0
80000088:	00000793          	li	a5,0
8000008c:	00000813          	li	a6,0
80000090:	00000893          	li	a7,0
80000094:	00000913          	li	s2,0
80000098:	00000993          	li	s3,0
8000009c:	00000a13          	li	s4,0
800000a0:	00000a93          	li	s5,0
800000a4:	00000b13          	li	s6,0
800000a8:	00000b93          	li	s7,0
800000ac:	00000c13          	li	s8,0
800000b0:	00000c93          	li	s9,0
800000b4:	00000d13          	li	s10,0
800000b8:	00000d93          	li	s11,0
800000bc:	00000e13          	li	t3,0
800000c0:	00000e93          	li	t4,0
800000c4:	00000f13          	li	t5,0
800000c8:	00000f93          	li	t6,0
800000cc:	f1402573          	csrr	a0,mhartid
800000d0:	00051063          	bnez	a0,800000d0 <reset_vector+0x80>
800000d4:	00000297          	auipc	t0,0x0
800000d8:	01028293          	addi	t0,t0,16 # 800000e4 <reset_vector+0x94>
800000dc:	30529073          	csrw	mtvec,t0
800000e0:	74445073          	csrwi	0x744,8
800000e4:	00000297          	auipc	t0,0x0
800000e8:	01028293          	addi	t0,t0,16 # 800000f4 <reset_vector+0xa4>
800000ec:	30529073          	csrw	mtvec,t0
800000f0:	18005073          	csrwi	satp,0
800000f4:	00000297          	auipc	t0,0x0
800000f8:	02028293          	addi	t0,t0,32 # 80000114 <reset_vector+0xc4>
800000fc:	30529073          	csrw	mtvec,t0
80000100:	800002b7          	lui	t0,0x80000
80000104:	fff28293          	addi	t0,t0,-1 # 7fffffff <__stack_size+0x7ffff7ff>
80000108:	3b029073          	csrw	pmpaddr0,t0
8000010c:	01f00293          	li	t0,31
80000110:	3a029073          	csrw	pmpcfg0,t0
80000114:	30405073          	csrwi	mie,0
80000118:	00000297          	auipc	t0,0x0
8000011c:	01428293          	addi	t0,t0,20 # 8000012c <reset_vector+0xdc>
80000120:	30529073          	csrw	mtvec,t0
80000124:	30205073          	csrwi	medeleg,0
80000128:	30305073          	csrwi	mideleg,0
8000012c:	00000193          	li	gp,0
80000130:	00000297          	auipc	t0,0x0
80000134:	ed428293          	addi	t0,t0,-300 # 80000004 <trap_vector>
80000138:	30529073          	csrw	mtvec,t0
8000013c:	00100513          	li	a0,1
80000140:	01f51513          	slli	a0,a0,0x1f
80000144:	00054c63          	bltz	a0,8000015c <reset_vector+0x10c>
80000148:	0ff0000f          	fence
8000014c:	00100193          	li	gp,1
80000150:	05d00893          	li	a7,93
80000154:	00000513          	li	a0,0
80000158:	00000073          	ecall
8000015c:	00000293          	li	t0,0
80000160:	00028a63          	beqz	t0,80000174 <reset_vector+0x124>
80000164:	10529073          	csrw	stvec,t0
80000168:	0000b2b7          	lui	t0,0xb
8000016c:	10928293          	addi	t0,t0,265 # b109 <__stack_size+0xa909>
80000170:	30229073          	csrw	medeleg,t0
80000174:	30005073          	csrwi	mstatus,0
80000178:	00000297          	auipc	t0,0x0
8000017c:	01428293          	addi	t0,t0,20 # 8000018c <test_2>
80000180:	34129073          	csrw	mepc,t0
80000184:	f1402573          	csrr	a0,mhartid
80000188:	30200073          	mret
8000018c:	00200193          	li	gp,2
80000190:	00000693          	li	a3,0
80000194:	4006d713          	srai	a4,a3,0x0
80000198:	00000393          	li	t2,0
8000019c:	2a771463          	bne	a4,t2,80000444 <fail>
800001a0:	00300193          	li	gp,3
800001a4:	800006b7          	lui	a3,0x80000
800001a8:	4016d713          	srai	a4,a3,0x1
800001ac:	c00003b7          	lui	t2,0xc0000
800001b0:	28771a63          	bne	a4,t2,80000444 <fail>
800001b4:	00400193          	li	gp,4
800001b8:	800006b7          	lui	a3,0x80000
800001bc:	4076d713          	srai	a4,a3,0x7
800001c0:	ff0003b7          	lui	t2,0xff000
800001c4:	28771063          	bne	a4,t2,80000444 <fail>
800001c8:	00500193          	li	gp,5
800001cc:	800006b7          	lui	a3,0x80000
800001d0:	40e6d713          	srai	a4,a3,0xe
800001d4:	fffe03b7          	lui	t2,0xfffe0
800001d8:	26771663          	bne	a4,t2,80000444 <fail>
800001dc:	00600193          	li	gp,6
800001e0:	800006b7          	lui	a3,0x80000
800001e4:	00168693          	addi	a3,a3,1 # 80000001 <_start+0x1>
800001e8:	41f6d713          	srai	a4,a3,0x1f
800001ec:	fff00393          	li	t2,-1
800001f0:	24771a63          	bne	a4,t2,80000444 <fail>
800001f4:	00700193          	li	gp,7
800001f8:	800006b7          	lui	a3,0x80000
800001fc:	fff68693          	addi	a3,a3,-1 # 7fffffff <__stack_size+0x7ffff7ff>
80000200:	4006d713          	srai	a4,a3,0x0
80000204:	800003b7          	lui	t2,0x80000
80000208:	fff38393          	addi	t2,t2,-1 # 7fffffff <__stack_size+0x7ffff7ff>
8000020c:	22771c63          	bne	a4,t2,80000444 <fail>
80000210:	00800193          	li	gp,8
80000214:	800006b7          	lui	a3,0x80000
80000218:	fff68693          	addi	a3,a3,-1 # 7fffffff <__stack_size+0x7ffff7ff>
8000021c:	4016d713          	srai	a4,a3,0x1
80000220:	400003b7          	lui	t2,0x40000
80000224:	fff38393          	addi	t2,t2,-1 # 3fffffff <__stack_size+0x3ffff7ff>
80000228:	20771e63          	bne	a4,t2,80000444 <fail>
8000022c:	00900193          	li	gp,9
80000230:	800006b7          	lui	a3,0x80000
80000234:	fff68693          	addi	a3,a3,-1 # 7fffffff <__stack_size+0x7ffff7ff>
80000238:	4076d713          	srai	a4,a3,0x7
8000023c:	010003b7          	lui	t2,0x1000
80000240:	fff38393          	addi	t2,t2,-1 # ffffff <__stack_size+0xfff7ff>
80000244:	20771063          	bne	a4,t2,80000444 <fail>
80000248:	00a00193          	li	gp,10
8000024c:	800006b7          	lui	a3,0x80000
80000250:	fff68693          	addi	a3,a3,-1 # 7fffffff <__stack_size+0x7ffff7ff>
80000254:	40e6d713          	srai	a4,a3,0xe
80000258:	000203b7          	lui	t2,0x20
8000025c:	fff38393          	addi	t2,t2,-1 # 1ffff <__stack_size+0x1f7ff>
80000260:	1e771263          	bne	a4,t2,80000444 <fail>
80000264:	00b00193          	li	gp,11
80000268:	800006b7          	lui	a3,0x80000
8000026c:	fff68693          	addi	a3,a3,-1 # 7fffffff <__stack_size+0x7ffff7ff>
80000270:	41f6d713          	srai	a4,a3,0x1f
80000274:	00000393          	li	t2,0
80000278:	1c771663          	bne	a4,t2,80000444 <fail>
8000027c:	00c00193          	li	gp,12
80000280:	818186b7          	lui	a3,0x81818
80000284:	18168693          	addi	a3,a3,385 # 81818181 <pass+0x1817d21>
80000288:	4006d713          	srai	a4,a3,0x0
8000028c:	818183b7          	lui	t2,0x81818
80000290:	18138393          	addi	t2,t2,385 # 81818181 <pass+0x1817d21>
80000294:	1a771863          	bne	a4,t2,80000444 <fail>
80000298:	00d00193          	li	gp,13
8000029c:	818186b7          	lui	a3,0x81818
800002a0:	18168693          	addi	a3,a3,385 # 81818181 <pass+0x1817d21>
800002a4:	4016d713          	srai	a4,a3,0x1
800002a8:	c0c0c3b7          	lui	t2,0xc0c0c
800002ac:	0c038393          	addi	t2,t2,192 # c0c0c0c0 <_end+0x20c0b678>
800002b0:	18771a63          	bne	a4,t2,80000444 <fail>
800002b4:	00e00193          	li	gp,14
800002b8:	818186b7          	lui	a3,0x81818
800002bc:	18168693          	addi	a3,a3,385 # 81818181 <pass+0x1817d21>
800002c0:	4076d713          	srai	a4,a3,0x7
800002c4:	ff0303b7          	lui	t2,0xff030
800002c8:	30338393          	addi	t2,t2,771 # ff030303 <_end+0x5f02f8bb>
800002cc:	16771c63          	bne	a4,t2,80000444 <fail>
800002d0:	00f00193          	li	gp,15
800002d4:	818186b7          	lui	a3,0x81818
800002d8:	18168693          	addi	a3,a3,385 # 81818181 <pass+0x1817d21>
800002dc:	40e6d713          	srai	a4,a3,0xe
800002e0:	fffe03b7          	lui	t2,0xfffe0
800002e4:	60638393          	addi	t2,t2,1542 # fffe0606 <_end+0x5ffdfbbe>
800002e8:	14771e63          	bne	a4,t2,80000444 <fail>
800002ec:	01000193          	li	gp,16
800002f0:	818186b7          	lui	a3,0x81818
800002f4:	18168693          	addi	a3,a3,385 # 81818181 <pass+0x1817d21>
800002f8:	41f6d713          	srai	a4,a3,0x1f
800002fc:	fff00393          	li	t2,-1
80000300:	14771263          	bne	a4,t2,80000444 <fail>
80000304:	01100193          	li	gp,17
80000308:	800005b7          	lui	a1,0x80000
8000030c:	4075d593          	srai	a1,a1,0x7
80000310:	ff0003b7          	lui	t2,0xff000
80000314:	12759863          	bne	a1,t2,80000444 <fail>
80000318:	01200193          	li	gp,18
8000031c:	00000213          	li	tp,0
80000320:	800000b7          	lui	ra,0x80000
80000324:	4070d713          	srai	a4,ra,0x7
80000328:	00070313          	mv	t1,a4
8000032c:	00120213          	addi	tp,tp,1 # 1 <__heap_size-0x1ff>
80000330:	00200293          	li	t0,2
80000334:	fe5216e3          	bne	tp,t0,80000320 <test_18+0x8>
80000338:	ff0003b7          	lui	t2,0xff000
8000033c:	10731463          	bne	t1,t2,80000444 <fail>
80000340:	01300193          	li	gp,19
80000344:	00000213          	li	tp,0
80000348:	800000b7          	lui	ra,0x80000
8000034c:	40e0d713          	srai	a4,ra,0xe
80000350:	00000013          	nop
80000354:	00070313          	mv	t1,a4
80000358:	00120213          	addi	tp,tp,1 # 1 <__heap_size-0x1ff>
8000035c:	00200293          	li	t0,2
80000360:	fe5214e3          	bne	tp,t0,80000348 <test_19+0x8>
80000364:	fffe03b7          	lui	t2,0xfffe0
80000368:	0c731e63          	bne	t1,t2,80000444 <fail>
8000036c:	01400193          	li	gp,20
80000370:	00000213          	li	tp,0
80000374:	800000b7          	lui	ra,0x80000
80000378:	00108093          	addi	ra,ra,1 # 80000001 <_start+0x1>
8000037c:	41f0d713          	srai	a4,ra,0x1f
80000380:	00000013          	nop
80000384:	00000013          	nop
80000388:	00070313          	mv	t1,a4
8000038c:	00120213          	addi	tp,tp,1 # 1 <__heap_size-0x1ff>
80000390:	00200293          	li	t0,2
80000394:	fe5210e3          	bne	tp,t0,80000374 <test_20+0x8>
80000398:	fff00393          	li	t2,-1
8000039c:	0a731463          	bne	t1,t2,80000444 <fail>
800003a0:	01500193          	li	gp,21
800003a4:	00000213          	li	tp,0
800003a8:	800000b7          	lui	ra,0x80000
800003ac:	4070d713          	srai	a4,ra,0x7
800003b0:	00120213          	addi	tp,tp,1 # 1 <__heap_size-0x1ff>
800003b4:	00200293          	li	t0,2
800003b8:	fe5218e3          	bne	tp,t0,800003a8 <test_21+0x8>
800003bc:	ff0003b7          	lui	t2,0xff000
800003c0:	08771263          	bne	a4,t2,80000444 <fail>
800003c4:	01600193          	li	gp,22
800003c8:	00000213          	li	tp,0
800003cc:	800000b7          	lui	ra,0x80000
800003d0:	00000013          	nop
800003d4:	40e0d713          	srai	a4,ra,0xe
800003d8:	00120213          	addi	tp,tp,1 # 1 <__heap_size-0x1ff>
800003dc:	00200293          	li	t0,2
800003e0:	fe5216e3          	bne	tp,t0,800003cc <test_22+0x8>
800003e4:	fffe03b7          	lui	t2,0xfffe0
800003e8:	04771e63          	bne	a4,t2,80000444 <fail>
800003ec:	01700193          	li	gp,23
800003f0:	00000213          	li	tp,0
800003f4:	800000b7          	lui	ra,0x80000
800003f8:	00108093          	addi	ra,ra,1 # 80000001 <_start+0x1>
800003fc:	00000013          	nop
80000400:	00000013          	nop
80000404:	41f0d713          	srai	a4,ra,0x1f
80000408:	00120213          	addi	tp,tp,1 # 1 <__heap_size-0x1ff>
8000040c:	00200293          	li	t0,2
80000410:	fe5212e3          	bne	tp,t0,800003f4 <test_23+0x8>
80000414:	fff00393          	li	t2,-1
80000418:	02771663          	bne	a4,t2,80000444 <fail>
8000041c:	01800193          	li	gp,24
80000420:	40405093          	srai	ra,zero,0x4
80000424:	00000393          	li	t2,0
80000428:	00709e63          	bne	ra,t2,80000444 <fail>
8000042c:	01900193          	li	gp,25
80000430:	02100093          	li	ra,33
80000434:	40a0d013          	srai	zero,ra,0xa
80000438:	00000393          	li	t2,0
8000043c:	00701463          	bne	zero,t2,80000444 <fail>
80000440:	02301063          	bne	zero,gp,80000460 <pass>
80000444:	0ff0000f          	fence
80000448:	00018063          	beqz	gp,80000448 <fail+0x4>
8000044c:	00119193          	slli	gp,gp,0x1
80000450:	0011e193          	ori	gp,gp,1
80000454:	05d00893          	li	a7,93
80000458:	00018513          	mv	a0,gp
8000045c:	00000073          	ecall
80000460:	0ff0000f          	fence
80000464:	00100193          	li	gp,1
80000468:	05d00893          	li	a7,93
8000046c:	00000513          	li	a0,0
80000470:	00000073          	ecall
80000474:	c0001073          	unimp
80000478:	0000                	.insn	2, 0x
8000047a:	0000                	.insn	2, 0x
80000000:	0500006f          	j	80000050 <reset_vector>
80000004:	34202f73          	csrr	t5,mcause
80000008:	00800f93          	li	t6,8
8000000c:	03ff0863          	beq	t5,t6,8000003c <write_tohost>
80000010:	00900f93          	li	t6,9
80000014:	03ff0463          	beq	t5,t6,8000003c <write_tohost>
80000018:	00b00f93          	li	t6,11
8000001c:	03ff0063          	beq	t5,t6,8000003c <write_tohost>
80000020:	00000f13          	li	t5,0
80000024:	000f0463          	beqz	t5,8000002c <trap_vector+0x28>
80000028:	000f0067          	jr	t5
8000002c:	34202f73          	csrr	t5,mcause
80000030:	000f5463          	bgez	t5,80000038 <handle_exception>
80000034:	0040006f          	j	80000038 <handle_exception>
80000038:	5391e193          	ori	gp,gp,1337
8000003c:	20000f17          	auipc	t5,0x20000
80000040:	fc3f2223          	sw	gp,-60(t5) # a0000000 <tohost>
80000044:	20000f17          	auipc	t5,0x20000
80000048:	fc0f2023          	sw	zero,-64(t5) # a0000004 <tohost+0x4>
8000004c:	ff1ff06f          	j	8000003c <write_tohost>
80000050:	00000093          	li	ra,0
80000054:	00000113          	li	sp,0
80000058:	00000193          	li	gp,0
8000005c:	00000213          	li	tp,0
80000060:	00000293          	li	t0,0
80000064:	00000313          	li	t1,0
80000068:	00000393          	li	t2,0
8000006c:	00000413          	li	s0,0
80000070:	00000493          	li	s1,0
80000074:	00000513          	li	a0,0
80000078:	00000593          	li	a1,0
8000007c:	00000613          	li	a2,0
80000080:	00000693          	li	a3,0
80000084:	00000713          	li	a4,0
80000088:	00000793          	li	a5,0
8000008c:	00000813          	li	a6,0
80000090:	00000893          	li	a7,0
80000094:	00000913          	li	s2,0
80000098:	00000993          	li	s3,0
8000009c:	00000a13          	li	s4,0
800000a0:	00000a93          	li	s5,0
800000a4:	00000b13          	li	s6,0
800000a8:	00000b93          	li	s7,0
800000ac:	00000c13          	li	s8,0
800000b0:	00000c93          	li	s9,0
800000b4:	00000d13          	li	s10,0
800000b8:	00000d93          	li	s11,0
800000bc:	00000e13          	li	t3,0
800000c0:	00000e93          	li	t4,0
800000c4:	00000f13          	li	t5,0
800000c8:	00000f93          	li	t6,0
800000cc:	f1402573          	csrr	a0,mhartid
800000d0:	00051063          	bnez	a0,800000d0 <reset_vector+0x80>
800000d4:	00000297          	auipc	t0,0x0
800000d8:	01028293          	addi	t0,t0,16 # 800000e4 <reset_vector+0x94>
800000dc:	30529073          	csrw	mtvec,t0
800000e0:	74445073          	csrwi	0x744,8
800000e4:	00000297          	auipc	t0,0x0
800000e8:	01028293          	addi	t0,t0,16 # 800000f4 <reset_vector+0xa4>
800000ec:	30529073          	csrw	mtvec,t0
800000f0:	18005073          	csrwi	satp,0
800000f4:	00000297          	auipc	t0,0x0
800000f8:	02028293          	addi	t0,t0,32 # 80000114 <reset_vector+0xc4>
800000fc:	30529073          	csrw	mtvec,t0
80000100:	800002b7          	lui	t0,0x80000
80000104:	fff28293          	addi	t0,t0,-1 # 7fffffff <__stack_size+0x7ffff7ff>
80000108:	3b029073          	csrw	pmpaddr0,t0
8000010c:	01f00293          	li	t0,31
80000110:	3a029073          	csrw	pmpcfg0,t0
80000114:	30405073          	csrwi	mie,0
80000118:	00000297          	auipc	t0,0x0
8000011c:	01428293          	addi	t0,t0,20 # 8000012c <reset_vector+0xdc>
80000120:	30529073          	csrw	mtvec,t0
80000124:	30205073          	csrwi	medeleg,0
80000128:	30305073          	csrwi	mideleg,0
8000012c:	00000193          	li	gp,0
80000130:	00000297          	auipc	t0,0x0
80000134:	ed428293          	addi	t0,t0,-300 # 80000004 <trap_vector>
80000138:	30529073          	csrw	mtvec,t0
8000013c:	00100513          	li	a0,1
80000140:	01f51513          	slli	a0,a0,0x1f
80000144:	00054c63          	bltz	a0,8000015c <reset_vector+0x10c>
80000148:	0ff0000f          	fence
8000014c:	00100193          	li	gp,1
80000150:	05d00893          	li	a7,93
80000154:	00000513          	li	a0,0
80000158:	00000073          	ecall
8000015c:	00000293          	li	t0,0
80000160:	00028a63          	beqz	t0,80000174 <reset_vector+0x124>
80000164:	10529073          	csrw	stvec,t0
80000168:	0000b2b7          	lui	t0,0xb
8000016c:	10928293          	addi	t0,t0,265 # b109 <__stack_size+0xa909>
80000170:	30229073          	csrw	medeleg,t0
80000174:	30005073          	csrwi	mstatus,0
80000178:	00000297          	auipc	t0,0x0
8000017c:	01428293          	addi	t0,t0,20 # 8000018c <test_2>
80000180:	34129073          	csrw	mepc,t0
80000184:	f1402573          	csrr	a0,mhartid
80000188:	30200073          	mret
8000018c:	00200193          	li	gp,2
80000190:	00000093          	li	ra,0
80000194:	0100026f          	jal	tp,800001a4 <target_2>
80000198:	00000013          	nop
8000019c:	00000013          	nop
800001a0:	0400006f          	j	800001e0 <fail>
800001a4:	00000117          	auipc	sp,0x0
800001a8:	ff410113          	addi	sp,sp,-12 # 80000198 <linkaddr_2>
800001ac:	02411a63          	bne	sp,tp,800001e0 <fail>
800001b0:	00300193          	li	gp,3
800001b4:	00100093          	li	ra,1
800001b8:	0140006f          	j	800001cc <test_3+0x1c>
800001bc:	00108093          	addi	ra,ra,1
800001c0:	00108093          	addi	ra,ra,1
800001c4:	00108093          	addi	ra,ra,1
800001c8:	00108093          	addi	ra,ra,1
800001cc:	00108093          	addi	ra,ra,1
800001d0:	00108093          	addi	ra,ra,1
800001d4:	00300393          	li	t2,3
800001d8:	00709463          	bne	ra,t2,800001e0 <fail>
800001dc:	02301063          	bne	zero,gp,800001fc <pass>
800001e0:	0ff0000f          	fence
800001e4:	00018063          	beqz	gp,800001e4 <fail+0x4>
800001e8:	00119193          	slli	gp,gp,0x1
800001ec:	0011e193          	ori	gp,gp,1
800001f0:	05d00893          	li	a7,93
800001f4:	00018513          	mv	a0,gp
800001f8:	00000073          	ecall
800001fc:	0ff0000f          	fence
80000200:	00100193          	li	gp,1
80000204:	05d00893          	li	a7,93
80000208:	00000513          	li	a0,0
8000020c:	00000073          	ecall
80000210:	c0001073          	unimp
80000214:	0000                	.insn	2, 0x
80000216:	0000                	.insn	2, 0x
80000218:	0000                	.insn	2, 0x
8000021a:	0000                	.insn	2, 0x
8000021c:	0000                	.insn	2, 0x
8000021e:	0000                	.insn	2, 0x
80000220:	0000                	.insn	2, 0x
80000222:	0000                	.insn	2, 0x
80000224:	0000                	.insn	2, 0x
80000226:	0000                	.insn	2, 0x
80000228:	0000                	.insn	2, 0x
8000022a:	0000                	.insn	2, 0x
8000022c:	0000                	.insn	2, 0x
8000022e:	0000                	.insn	2, 0x
80000230:	0000                	.insn	2, 0x
80000232:	0000                	.insn	2, 0x
80000234:	0000                	.insn	2, 0x
80000236:	0000                	.insn	2, 0x
80000238:	0000                	.insn	2, 0x
8000023a:	0000                	.insn	2, 0x
80000000:	0500006f          	j	80000050 <reset_vector>
80000004:	34202f73          	csrr	t5,mcause
80000008:	00800f93          	li	t6,8
8000000c:	03ff0863          	beq	t5,t6,8000003c <write_tohost>
80000010:	00900f93          	li	t6,9
80000014:	03ff0463          	beq	t5,t6,8000003c <write_tohost>
80000018:	00b00f93          	li	t6,11
8000001c:	03ff0063          	beq	t5,t6,8000003c <write_tohost>
80000020:	00000f13          	li	t5,0
80000024:	000f0463          	beqz	t5,8000002c <trap_vector+0x28>
80000028:	000f0067          	jr	t5
8000002c:	34202f73          	csrr	t5,mcause
80000030:	000f5463          	bgez	t5,80000038 <handle_exception>
80000034:	0040006f          	j	80000038 <handle_exception>
80000038:	5391e193          	ori	gp,gp,1337
8000003c:	20000f17          	auipc	t5,0x20000
80000040:	fc3f2223          	sw	gp,-60(t5) # a0000000 <tohost>
80000044:	20000f17          	auipc	t5,0x20000
80000048:	fc0f2023          	sw	zero,-64(t5) # a0000004 <tohost+0x4>
8000004c:	ff1ff06f          	j	8000003c <write_tohost>
80000050:	00000093          	li	ra,0
80000054:	00000113          	li	sp,0
80000058:	00000193          	li	gp,0
8000005c:	00000213          	li	tp,0
80000060:	00000293          	li	t0,0
80000064:	00000313          	li	t1,0
80000068:	00000393          	li	t2,0
8000006c:	00000413          	li	s0,0
80000070:	00000493          	li	s1,0
80000074:	00000513          	li	a0,0
80000078:	00000593          	li	a1,0
8000007c:	00000613          	li	a2,0
80000080:	00000693          	li	a3,0
80000084:	00000713          	li	a4,0
80000088:	00000793          	li	a5,0
8000008c:	00000813          	li	a6,0
80000090:	00000893          	li	a7,0
80000094:	00000913          	li	s2,0
80000098:	00000993          	li	s3,0
8000009c:	00000a13          	li	s4,0
800000a0:	00000a93          	li	s5,0
800000a4:	00000b13          	li	s6,0
800000a8:	00000b93          	li	s7,0
800000ac:	00000c13          	li	s8,0
800000b0:	00000c93          	li	s9,0
800000b4:	00000d13          	li	s10,0
800000b8:	00000d93          	li	s11,0
800000bc:	00000e13          	li	t3,0
800000c0:	00000e93          	li	t4,0
800000c4:	00000f13          	li	t5,0
800000c8:	00000f93          	li	t6,0
800000cc:	f1402573          	csrr	a0,mhartid
800000d0:	00051063          	bnez	a0,800000d0 <reset_vector+0x80>
800000d4:	00000297          	auipc	t0,0x0
800000d8:	01028293          	addi	t0,t0,16 # 800000e4 <reset_vector+0x94>
800000dc:	30529073          	csrw	mtvec,t0
800000e0:	74445073          	csrwi	0x744,8
800000e4:	00000297          	auipc	t0,0x0
800000e8:	01028293          	addi	t0,t0,16 # 800000f4 <reset_vector+0xa4>
800000ec:	30529073          	csrw	mtvec,t0
800000f0:	18005073          	csrwi	satp,0
800000f4:	00000297          	auipc	t0,0x0
800000f8:	02028293          	addi	t0,t0,32 # 80000114 <reset_vector+0xc4>
800000fc:	30529073          	csrw	mtvec,t0
80000100:	800002b7          	lui	t0,0x80000
80000104:	fff28293          	addi	t0,t0,-1 # 7fffffff <__stack_size+0x7ffff7ff>
80000108:	3b029073          	csrw	pmpaddr0,t0
8000010c:	01f00293          	li	t0,31
80000110:	3a029073          	csrw	pmpcfg0,t0
80000114:	30405073          	csrwi	mie,0
80000118:	00000297          	auipc	t0,0x0
8000011c:	01428293          	addi	t0,t0,20 # 8000012c <reset_vector+0xdc>
80000120:	30529073          	csrw	mtvec,t0
80000124:	30205073          	csrwi	medeleg,0
80000128:	30305073          	csrwi	mideleg,0
8000012c:	00000193          	li	gp,0
80000130:	00000297          	auipc	t0,0x0
80000134:	ed428293          	addi	t0,t0,-300 # 80000004 <trap_vector>
80000138:	30529073          	csrw	mtvec,t0
8000013c:	00100513          	li	a0,1
80000140:	01f51513          	slli	a0,a0,0x1f
80000144:	00054c63          	bltz	a0,8000015c <reset_vector+0x10c>
80000148:	0ff0000f          	fence
8000014c:	00100193          	li	gp,1
80000150:	05d00893          	li	a7,93
80000154:	00000513          	li	a0,0
80000158:	00000073          	ecall
8000015c:	00000293          	li	t0,0
80000160:	00028a63          	beqz	t0,80000174 <reset_vector+0x124>
80000164:	10529073          	csrw	stvec,t0
80000168:	0000b2b7          	lui	t0,0xb
8000016c:	10928293          	addi	t0,t0,265 # b109 <__stack_size+0xa909>
80000170:	30229073          	csrw	medeleg,t0
80000174:	30005073          	csrwi	mstatus,0
80000178:	00000297          	auipc	t0,0x0
8000017c:	01428293          	addi	t0,t0,20 # 8000018c <test_2>
80000180:	34129073          	csrw	mepc,t0
80000184:	f1402573          	csrr	a0,mhartid
80000188:	30200073          	mret
8000018c:	00200193          	li	gp,2
80000190:	000000b7          	lui	ra,0x0
80000194:	00000393          	li	t2,0
80000198:	04709a63          	bne	ra,t2,800001ec <fail>
8000019c:	00300193          	li	gp,3
800001a0:	fffff0b7          	lui	ra,0xfffff
800001a4:	4010d093          	srai	ra,ra,0x1
800001a8:	80000393          	li	t2,-2048
800001ac:	04709063          	bne	ra,t2,800001ec <fail>
800001b0:	00400193          	li	gp,4
800001b4:	7ffff0b7          	lui	ra,0x7ffff
800001b8:	4140d093          	srai	ra,ra,0x14
800001bc:	7ff00393          	li	t2,2047
800001c0:	02709663          	bne	ra,t2,800001ec <fail>
800001c4:	00500193          	li	gp,5
800001c8:	800000b7          	lui	ra,0x80000
800001cc:	4140d093          	srai	ra,ra,0x14
800001d0:	80000393          	li	t2,-2048
800001d4:	00709c63          	bne	ra,t2,800001ec <fail>
800001d8:	00600193          	li	gp,6
800001dc:	80000037          	lui	zero,0x80000
800001e0:	00000393          	li	t2,0
800001e4:	00701463          	bne	zero,t2,800001ec <fail>
800001e8:	02301063          	bne	zero,gp,80000208 <pass>
800001ec:	0ff0000f          	fence
800001f0:	00018063          	beqz	gp,800001f0 <fail+0x4>
800001f4:	00119193          	slli	gp,gp,0x1
800001f8:	0011e193          	ori	gp,gp,1
800001fc:	05d00893          	li	a7,93
80000200:	00018513          	mv	a0,gp
80000204:	00000073          	ecall
80000208:	0ff0000f          	fence
8000020c:	00100193          	li	gp,1
80000210:	05d00893          	li	a7,93
80000214:	00000513          	li	a0,0
80000218:	00000073          	ecall
8000021c:	c0001073          	unimp
80000220:	0000                	.insn	2, 0x
80000222:	0000                	.insn	2, 0x
80000224:	0000                	.insn	2, 0x
80000226:	0000                	.insn	2, 0x
80000228:	0000                	.insn	2, 0x
8000022a:	0000                	.insn	2, 0x
8000022c:	0000                	.insn	2, 0x
8000022e:	0000                	.insn	2, 0x
80000230:	0000                	.insn	2, 0x
80000232:	0000                	.insn	2, 0x
80000234:	0000                	.insn	2, 0x
80000236:	0000                	.insn	2, 0x
80000238:	0000                	.insn	2, 0x
8000023a:	0000                	.insn	2, 0x
80000000:	0500006f          	j	80000050 <reset_vector>
80000004:	34202f73          	csrr	t5,mcause
80000008:	00800f93          	li	t6,8
8000000c:	03ff0863          	beq	t5,t6,8000003c <write_tohost>
80000010:	00900f93          	li	t6,9
80000014:	03ff0463          	beq	t5,t6,8000003c <write_tohost>
80000018:	00b00f93          	li	t6,11
8000001c:	03ff0063          	beq	t5,t6,8000003c <write_tohost>
80000020:	00000f13          	li	t5,0
80000024:	000f0463          	beqz	t5,8000002c <trap_vector+0x28>
80000028:	000f0067          	jr	t5
8000002c:	34202f73          	csrr	t5,mcause
80000030:	000f5463          	bgez	t5,80000038 <handle_exception>
80000034:	0040006f          	j	80000038 <handle_exception>
80000038:	5391e193          	ori	gp,gp,1337
8000003c:	20000f17          	auipc	t5,0x20000
80000040:	003f2223          	sw	gp,4(t5) # a0000040 <tohost>
80000044:	20000f17          	auipc	t5,0x20000
80000048:	000f2023          	sw	zero,0(t5) # a0000044 <tohost+0x4>
8000004c:	ff1ff06f          	j	8000003c <write_tohost>
80000050:	00000093          	li	ra,0
80000054:	00000113          	li	sp,0
80000058:	00000193          	li	gp,0
8000005c:	00000213          	li	tp,0
80000060:	00000293          	li	t0,0
80000064:	00000313          	li	t1,0
80000068:	00000393          	li	t2,0
8000006c:	00000413          	li	s0,0
80000070:	00000493          	li	s1,0
80000074:	00000513          	li	a0,0
80000078:	00000593          	li	a1,0
8000007c:	00000613          	li	a2,0
80000080:	00000693          	li	a3,0
80000084:	00000713          	li	a4,0
80000088:	00000793          	li	a5,0
8000008c:	00000813          	li	a6,0
80000090:	00000893          	li	a7,0
80000094:	00000913          	li	s2,0
80000098:	00000993          	li	s3,0
8000009c:	00000a13          	li	s4,0
800000a0:	00000a93          	li	s5,0
800000a4:	00000b13          	li	s6,0
800000a8:	00000b93          	li	s7,0
800000ac:	00000c13          	li	s8,0
800000b0:	00000c93          	li	s9,0
800000b4:	00000d13          	li	s10,0
800000b8:	00000d93          	li	s11,0
800000bc:	00000e13          	li	t3,0
800000c0:	00000e93          	li	t4,0
800000c4:	00000f13          	li	t5,0
800000c8:	00000f93          	li	t6,0
800000cc:	f1402573          	csrr	a0,mhartid
800000d0:	00051063          	bnez	a0,800000d0 <reset_vector+0x80>
800000d4:	00000297          	auipc	t0,0x0
800000d8:	01028293          	addi	t0,t0,16 # 800000e4 <reset_vector+0x94>
800000dc:	30529073          	csrw	mtvec,t0
800000e0:	74445073          	csrwi	0x744,8
800000e4:	00000297          	auipc	t0,0x0
800000e8:	01028293          	addi	t0,t0,16 # 800000f4 <reset_vector+0xa4>
800000ec:	30529073          	csrw	mtvec,t0
800000f0:	18005073          	csrwi	satp,0
800000f4:	00000297          	auipc	t0,0x0
800000f8:	02028293          	addi	t0,t0,32 # 80000114 <reset_vector+0xc4>
800000fc:	30529073          	csrw	mtvec,t0
80000100:	800002b7          	lui	t0,0x80000
80000104:	fff28293          	addi	t0,t0,-1 # 7fffffff <__stack_size+0x7ffff7ff>
80000108:	3b029073          	csrw	pmpaddr0,t0
8000010c:	01f00293          	li	t0,31
80000110:	3a029073          	csrw	pmpcfg0,t0
80000114:	30405073          	csrwi	mie,0
80000118:	00000297          	auipc	t0,0x0
8000011c:	01428293          	addi	t0,t0,20 # 8000012c <reset_vector+0xdc>
80000120:	30529073          	csrw	mtvec,t0
80000124:	30205073          	csrwi	medeleg,0
80000128:	30305073          	csrwi	mideleg,0
8000012c:	00000193          	li	gp,0
80000130:	00000297          	auipc	t0,0x0
80000134:	ed428293          	addi	t0,t0,-300 # 80000004 <trap_vector>
80000138:	30529073          	csrw	mtvec,t0
8000013c:	00100513          	li	a0,1
80000140:	01f51513          	slli	a0,a0,0x1f
80000144:	00054c63          	bltz	a0,8000015c <reset_vector+0x10c>
80000148:	0ff0000f          	fence
8000014c:	00100193          	li	gp,1
80000150:	05d00893          	li	a7,93
80000154:	00000513          	li	a0,0
80000158:	00000073          	ecall
8000015c:	00000293          	li	t0,0
80000160:	00028a63          	beqz	t0,80000174 <reset_vector+0x124>
80000164:	10529073          	csrw	stvec,t0
80000168:	0000b2b7          	lui	t0,0xb
8000016c:	10928293          	addi	t0,t0,265 # b109 <__stack_size+0xa909>
80000170:	30229073          	csrw	medeleg,t0
80000174:	30005073          	csrwi	mstatus,0
80000178:	00000297          	auipc	t0,0x0
8000017c:	01428293          	addi	t0,t0,20 # 8000018c <test_2>
80000180:	34129073          	csrw	mepc,t0
80000184:	f1402573          	csrr	a0,mhartid
80000188:	30200073          	mret
8000018c:	00200193          	li	gp,2
80000190:	20000117          	auipc	sp,0x20000
80000194:	e7010113          	addi	sp,sp,-400 # a0000000 <begin_signature>
80000198:	00aa00b7          	lui	ra,0xaa0
8000019c:	0aa08093          	addi	ra,ra,170 # aa00aa <__stack_size+0xa9f8aa>
800001a0:	00000797          	auipc	a5,0x0
800001a4:	01478793          	addi	a5,a5,20 # 800001b4 <test_2+0x28>
800001a8:	00112023          	sw	ra,0(sp)
800001ac:	00012703          	lw	a4,0(sp)
800001b0:	0080006f          	j	800001b8 <test_2+0x2c>
800001b4:	00008713          	mv	a4,ra
800001b8:	00aa03b7          	lui	t2,0xaa0
800001bc:	0aa38393          	addi	t2,t2,170 # aa00aa <__stack_size+0xa9f8aa>
800001c0:	4c771863          	bne	a4,t2,80000690 <fail>
800001c4:	00300193          	li	gp,3
800001c8:	20000117          	auipc	sp,0x20000
800001cc:	e3810113          	addi	sp,sp,-456 # a0000000 <begin_signature>
800001d0:	aa00b0b7          	lui	ra,0xaa00b
800001d4:	a0008093          	addi	ra,ra,-1536 # aa00aa00 <_end+0xa009f78>
800001d8:	00000797          	auipc	a5,0x0
800001dc:	01478793          	addi	a5,a5,20 # 800001ec <test_3+0x28>
800001e0:	00112223          	sw	ra,4(sp)
800001e4:	00412703          	lw	a4,4(sp)
800001e8:	0080006f          	j	800001f0 <test_3+0x2c>
800001ec:	00008713          	mv	a4,ra
800001f0:	aa00b3b7          	lui	t2,0xaa00b
800001f4:	a0038393          	addi	t2,t2,-1536 # aa00aa00 <_end+0xa009f78>
800001f8:	48771c63          	bne	a4,t2,80000690 <fail>
800001fc:	00400193          	li	gp,4
80000200:	20000117          	auipc	sp,0x20000
80000204:	e0010113          	addi	sp,sp,-512 # a0000000 <begin_signature>
80000208:	0aa010b7          	lui	ra,0xaa01
8000020c:	aa008093          	addi	ra,ra,-1376 # aa00aa0 <__stack_size+0xaa002a0>
80000210:	00000797          	auipc	a5,0x0
80000214:	01478793          	addi	a5,a5,20 # 80000224 <test_4+0x28>
80000218:	00112423          	sw	ra,8(sp)
8000021c:	00812703          	lw	a4,8(sp)
80000220:	0080006f          	j	80000228 <test_4+0x2c>
80000224:	00008713          	mv	a4,ra
80000228:	0aa013b7          	lui	t2,0xaa01
8000022c:	aa038393          	addi	t2,t2,-1376 # aa00aa0 <__stack_size+0xaa002a0>
80000230:	46771063          	bne	a4,t2,80000690 <fail>
80000234:	00500193          	li	gp,5
80000238:	20000117          	auipc	sp,0x20000
8000023c:	dc810113          	addi	sp,sp,-568 # a0000000 <begin_signature>
80000240:	a00aa0b7          	lui	ra,0xa00aa
80000244:	00a08093          	addi	ra,ra,10 # a00aa00a <_end+0xa9582>
80000248:	00000797          	auipc	a5,0x0
8000024c:	01478793          	addi	a5,a5,20 # 8000025c <test_5+0x28>
80000250:	00112623          	sw	ra,12(sp)
80000254:	00c12703          	lw	a4,12(sp)
80000258:	0080006f          	j	80000260 <test_5+0x2c>
8000025c:	00008713          	mv	a4,ra
80000260:	a00aa3b7          	lui	t2,0xa00aa
80000264:	00a38393          	addi	t2,t2,10 # a00aa00a <_end+0xa9582>
80000268:	42771463          	bne	a4,t2,80000690 <fail>
8000026c:	00600193          	li	gp,6
80000270:	20000117          	auipc	sp,0x20000
80000274:	dac10113          	addi	sp,sp,-596 # a000001c <tdat8>
80000278:	00aa00b7          	lui	ra,0xaa0
8000027c:	0aa08093          	addi	ra,ra,170 # aa00aa <__stack_size+0xa9f8aa>
80000280:	00000797          	auipc	a5,0x0
80000284:	01478793          	addi	a5,a5,20 # 80000294 <test_6+0x28>
80000288:	fe112a23          	sw	ra,-12(sp)
8000028c:	ff412703          	lw	a4,-12(sp)
80000290:	0080006f          	j	80000298 <test_6+0x2c>
80000294:	00008713          	mv	a4,ra
80000298:	00aa03b7          	lui	t2,0xaa0
8000029c:	0aa38393          	addi	t2,t2,170 # aa00aa <__stack_size+0xa9f8aa>
800002a0:	3e771863          	bne	a4,t2,80000690 <fail>
800002a4:	00700193          	li	gp,7
800002a8:	20000117          	auipc	sp,0x20000
800002ac:	d7410113          	addi	sp,sp,-652 # a000001c <tdat8>
800002b0:	aa00b0b7          	lui	ra,0xaa00b
800002b4:	a0008093          	addi	ra,ra,-1536 # aa00aa00 <_end+0xa009f78>
800002b8:	00000797          	auipc	a5,0x0
800002bc:	01478793          	addi	a5,a5,20 # 800002cc <test_7+0x28>
800002c0:	fe112c23          	sw	ra,-8(sp)
800002c4:	ff812703          	lw	a4,-8(sp)
800002c8:	0080006f          	j	800002d0 <test_7+0x2c>
800002cc:	00008713          	mv	a4,ra
800002d0:	aa00b3b7          	lui	t2,0xaa00b
800002d4:	a0038393          	addi	t2,t2,-1536 # aa00aa00 <_end+0xa009f78>
800002d8:	3a771c63          	bne	a4,t2,80000690 <fail>
800002dc:	00800193          	li	gp,8
800002e0:	20000117          	auipc	sp,0x20000
800002e4:	d3c10113          	addi	sp,sp,-708 # a000001c <tdat8>
800002e8:	0aa010b7          	lui	ra,0xaa01
800002ec:	aa008093          	addi	ra,ra,-1376 # aa00aa0 <__stack_size+0xaa002a0>
800002f0:	00000797          	auipc	a5,0x0
800002f4:	01478793          	addi	a5,a5,20 # 80000304 <test_8+0x28>
800002f8:	fe112e23          	sw	ra,-4(sp)
800002fc:	ffc12703          	lw	a4,-4(sp)
80000300:	0080006f          	j	80000308 <test_8+0x2c>
80000304:	00008713          	mv	a4,ra
80000308:	0aa013b7          	lui	t2,0xaa01
8000030c:	aa038393          	addi	t2,t2,-1376 # aa00aa0 <__stack_size+0xaa002a0>
80000310:	38771063          	bne	a4,t2,80000690 <fail>
80000314:	00900193          	li	gp,9
80000318:	20000117          	auipc	sp,0x20000
8000031c:	d0410113          	addi	sp,sp,-764 # a000001c <tdat8>
80000320:	a00aa0b7          	lui	ra,0xa00aa
80000324:	00a08093          	addi	ra,ra,10 # a00aa00a <_end+0xa9582>
80000328:	00000797          	auipc	a5,0x0
8000032c:	01478793          	addi	a5,a5,20 # 8000033c <test_9+0x28>
80000330:	00112023          	sw	ra,0(sp)
80000334:	00012703          	lw	a4,0(sp)
80000338:	0080006f          	j	80000340 <test_9+0x2c>
8000033c:	00008713          	mv	a4,ra
80000340:	a00aa3b7          	lui	t2,0xa00aa
80000344:	00a38393          	addi	t2,t2,10 # a00aa00a <_end+0xa9582>
80000348:	34771463          	bne	a4,t2,80000690 <fail>
8000034c:	00a00193          	li	gp,10
80000350:	20000097          	auipc	ra,0x20000
80000354:	cd008093          	addi	ra,ra,-816 # a0000020 <tdat9>
80000358:	12345137          	lui	sp,0x12345
8000035c:	67810113          	addi	sp,sp,1656 # 12345678 <__stack_size+0x12344e78>
80000360:	fe008213          	addi	tp,ra,-32
80000364:	02222023          	sw	sp,32(tp) # 20 <__heap_size-0x1e0>
80000368:	0000a283          	lw	t0,0(ra)
8000036c:	123453b7          	lui	t2,0x12345
80000370:	67838393          	addi	t2,t2,1656 # 12345678 <__stack_size+0x12344e78>
80000374:	30729e63          	bne	t0,t2,80000690 <fail>
80000378:	00b00193          	li	gp,11
8000037c:	20000097          	auipc	ra,0x20000
80000380:	ca408093          	addi	ra,ra,-860 # a0000020 <tdat9>
80000384:	58213137          	lui	sp,0x58213
80000388:	09810113          	addi	sp,sp,152 # 58213098 <__stack_size+0x58212898>
8000038c:	ffd08093          	addi	ra,ra,-3
80000390:	0020a3a3          	sw	sp,7(ra)
80000394:	20000217          	auipc	tp,0x20000
80000398:	c9020213          	addi	tp,tp,-880 # a0000024 <tdat10>
8000039c:	00022283          	lw	t0,0(tp) # 0 <__heap_size-0x200>
800003a0:	582133b7          	lui	t2,0x58213
800003a4:	09838393          	addi	t2,t2,152 # 58213098 <__stack_size+0x58212898>
800003a8:	2e729463          	bne	t0,t2,80000690 <fail>
800003ac:	00c00193          	li	gp,12
800003b0:	00000213          	li	tp,0
800003b4:	aabbd6b7          	lui	a3,0xaabbd
800003b8:	cdd68693          	addi	a3,a3,-803 # aabbccdd <_end+0xabbc255>
800003bc:	20000617          	auipc	a2,0x20000
800003c0:	c4460613          	addi	a2,a2,-956 # a0000000 <begin_signature>
800003c4:	00d62023          	sw	a3,0(a2)
800003c8:	00062703          	lw	a4,0(a2)
800003cc:	aabbd3b7          	lui	t2,0xaabbd
800003d0:	cdd38393          	addi	t2,t2,-803 # aabbccdd <_end+0xabbc255>
800003d4:	2a771e63          	bne	a4,t2,80000690 <fail>
800003d8:	00120213          	addi	tp,tp,1 # 1 <__heap_size-0x1ff>
800003dc:	00200293          	li	t0,2
800003e0:	fc521ae3          	bne	tp,t0,800003b4 <test_12+0x8>
800003e4:	00d00193          	li	gp,13
800003e8:	00000213          	li	tp,0
800003ec:	daabc6b7          	lui	a3,0xdaabc
800003f0:	ccd68693          	addi	a3,a3,-819 # daabbccd <_end+0x3aabb245>
800003f4:	20000617          	auipc	a2,0x20000
800003f8:	c0c60613          	addi	a2,a2,-1012 # a0000000 <begin_signature>
800003fc:	00000013          	nop
80000400:	00d62223          	sw	a3,4(a2)
80000404:	00462703          	lw	a4,4(a2)
80000408:	daabc3b7          	lui	t2,0xdaabc
8000040c:	ccd38393          	addi	t2,t2,-819 # daabbccd <_end+0x3aabb245>
80000410:	28771063          	bne	a4,t2,80000690 <fail>
80000414:	00120213          	addi	tp,tp,1 # 1 <__heap_size-0x1ff>
80000418:	00200293          	li	t0,2
8000041c:	fc5218e3          	bne	tp,t0,800003ec <test_13+0x8>
80000420:	00e00193          	li	gp,14
80000424:	00000213          	li	tp,0
80000428:	ddaac6b7          	lui	a3,0xddaac
8000042c:	bcc68693          	addi	a3,a3,-1076 # ddaabbcc <_end+0x3daab144>
80000430:	20000617          	auipc	a2,0x20000
80000434:	bd060613          	addi	a2,a2,-1072 # a0000000 <begin_signature>
80000438:	00000013          	nop
8000043c:	00000013          	nop
80000440:	00d62423          	sw	a3,8(a2)
80000444:	00862703          	lw	a4,8(a2)
80000448:	ddaac3b7          	lui	t2,0xddaac
8000044c:	bcc38393          	addi	t2,t2,-1076 # ddaabbcc <_end+0x3daab144>
80000450:	24771063          	bne	a4,t2,80000690 <fail>
80000454:	00120213          	addi	tp,tp,1 # 1 <__heap_size-0x1ff>
80000458:	00200293          	li	t0,2
8000045c:	fc5216e3          	bne	tp,t0,80000428 <test_14+0x8>
80000460:	00f00193          	li	gp,15
80000464:	00000213          	li	tp,0
80000468:	cddab6b7          	lui	a3,0xcddab
8000046c:	bbc68693          	addi	a3,a3,-1092 # cddaabbc <_end+0x2ddaa134>
80000470:	00000013          	nop
80000474:	20000617          	auipc	a2,0x20000
80000478:	b8c60613          	addi	a2,a2,-1140 # a0000000 <begin_signature>
8000047c:	00d62623          	sw	a3,12(a2)
80000480:	00c62703          	lw	a4,12(a2)
80000484:	cddab3b7          	lui	t2,0xcddab
80000488:	bbc38393          	addi	t2,t2,-1092 # cddaabbc <_end+0x2ddaa134>
8000048c:	20771263          	bne	a4,t2,80000690 <fail>
80000490:	00120213          	addi	tp,tp,1 # 1 <__heap_size-0x1ff>
80000494:	00200293          	li	t0,2
80000498:	fc5218e3          	bne	tp,t0,80000468 <test_15+0x8>
8000049c:	01000193          	li	gp,16
800004a0:	00000213          	li	tp,0
800004a4:	ccddb6b7          	lui	a3,0xccddb
800004a8:	abb68693          	addi	a3,a3,-1349 # ccddaabb <_end+0x2cdda033>
800004ac:	00000013          	nop
800004b0:	20000617          	auipc	a2,0x20000
800004b4:	b5060613          	addi	a2,a2,-1200 # a0000000 <begin_signature>
800004b8:	00000013          	nop
800004bc:	00d62823          	sw	a3,16(a2)
800004c0:	01062703          	lw	a4,16(a2)
800004c4:	ccddb3b7          	lui	t2,0xccddb
800004c8:	abb38393          	addi	t2,t2,-1349 # ccddaabb <_end+0x2cdda033>
800004cc:	1c771263          	bne	a4,t2,80000690 <fail>
800004d0:	00120213          	addi	tp,tp,1 # 1 <__heap_size-0x1ff>
800004d4:	00200293          	li	t0,2
800004d8:	fc5216e3          	bne	tp,t0,800004a4 <test_16+0x8>
800004dc:	01100193          	li	gp,17
800004e0:	00000213          	li	tp,0
800004e4:	bccde6b7          	lui	a3,0xbccde
800004e8:	aab68693          	addi	a3,a3,-1365 # bccddaab <_end+0x1ccdd023>
800004ec:	00000013          	nop
800004f0:	00000013          	nop
800004f4:	20000617          	auipc	a2,0x20000
800004f8:	b0c60613          	addi	a2,a2,-1268 # a0000000 <begin_signature>
800004fc:	00d62a23          	sw	a3,20(a2)
80000500:	01462703          	lw	a4,20(a2)
80000504:	bccde3b7          	lui	t2,0xbccde
80000508:	aab38393          	addi	t2,t2,-1365 # bccddaab <_end+0x1ccdd023>
8000050c:	18771263          	bne	a4,t2,80000690 <fail>
80000510:	00120213          	addi	tp,tp,1 # 1 <__heap_size-0x1ff>
80000514:	00200293          	li	t0,2
80000518:	fc5216e3          	bne	tp,t0,800004e4 <test_17+0x8>
8000051c:	01200193          	li	gp,18
80000520:	00000213          	li	tp,0
80000524:	20000117          	auipc	sp,0x20000
80000528:	adc10113          	addi	sp,sp,-1316 # a0000000 <begin_signature>
8000052c:	001120b7          	lui	ra,0x112
80000530:	23308093          	addi	ra,ra,563 # 112233 <__stack_size+0x111a33>
80000534:	00112023          	sw	ra,0(sp)
80000538:	00012703          	lw	a4,0(sp)
8000053c:	001123b7          	lui	t2,0x112
80000540:	23338393          	addi	t2,t2,563 # 112233 <__stack_size+0x111a33>
80000544:	14771663          	bne	a4,t2,80000690 <fail>
80000548:	00120213          	addi	tp,tp,1 # 1 <__heap_size-0x1ff>
8000054c:	00200293          	li	t0,2
80000550:	fc521ae3          	bne	tp,t0,80000524 <test_18+0x8>
80000554:	01300193          	li	gp,19
80000558:	00000213          	li	tp,0
8000055c:	20000117          	auipc	sp,0x20000
80000560:	aa410113          	addi	sp,sp,-1372 # a0000000 <begin_signature>
80000564:	300110b7          	lui	ra,0x30011
80000568:	22308093          	addi	ra,ra,547 # 30011223 <__stack_size+0x30010a23>
8000056c:	00000013          	nop
80000570:	00112223          	sw	ra,4(sp)
80000574:	00412703          	lw	a4,4(sp)
80000578:	300113b7          	lui	t2,0x30011
8000057c:	22338393          	addi	t2,t2,547 # 30011223 <__stack_size+0x30010a23>
80000580:	10771863          	bne	a4,t2,80000690 <fail>
80000584:	00120213          	addi	tp,tp,1 # 1 <__heap_size-0x1ff>
80000588:	00200293          	li	t0,2
8000058c:	fc5218e3          	bne	tp,t0,8000055c <test_19+0x8>
80000590:	01400193          	li	gp,20
80000594:	00000213          	li	tp,0
80000598:	20000117          	auipc	sp,0x20000
8000059c:	a6810113          	addi	sp,sp,-1432 # a0000000 <begin_signature>
800005a0:	330010b7          	lui	ra,0x33001
800005a4:	12208093          	addi	ra,ra,290 # 33001122 <__stack_size+0x33000922>
800005a8:	00000013          	nop
800005ac:	00000013          	nop
800005b0:	00112423          	sw	ra,8(sp)
800005b4:	00812703          	lw	a4,8(sp)
800005b8:	330013b7          	lui	t2,0x33001
800005bc:	12238393          	addi	t2,t2,290 # 33001122 <__stack_size+0x33000922>
800005c0:	0c771863          	bne	a4,t2,80000690 <fail>
800005c4:	00120213          	addi	tp,tp,1 # 1 <__heap_size-0x1ff>
800005c8:	00200293          	li	t0,2
800005cc:	fc5216e3          	bne	tp,t0,80000598 <test_20+0x8>
800005d0:	01500193          	li	gp,21
800005d4:	00000213          	li	tp,0
800005d8:	20000117          	auipc	sp,0x20000
800005dc:	a2810113          	addi	sp,sp,-1496 # a0000000 <begin_signature>
800005e0:	00000013          	nop
800005e4:	233000b7          	lui	ra,0x23300
800005e8:	11208093          	addi	ra,ra,274 # 23300112 <__stack_size+0x232ff912>
800005ec:	00112623          	sw	ra,12(sp)
800005f0:	00c12703          	lw	a4,12(sp)
800005f4:	233003b7          	lui	t2,0x23300
800005f8:	11238393          	addi	t2,t2,274 # 23300112 <__stack_size+0x232ff912>
800005fc:	08771a63          	bne	a4,t2,80000690 <fail>
80000600:	00120213          	addi	tp,tp,1 # 1 <__heap_size-0x1ff>
80000604:	00200293          	li	t0,2
80000608:	fc5218e3          	bne	tp,t0,800005d8 <test_21+0x8>
8000060c:	01600193          	li	gp,22
80000610:	00000213          	li	tp,0
80000614:	20000117          	auipc	sp,0x20000
80000618:	9ec10113          	addi	sp,sp,-1556 # a0000000 <begin_signature>
8000061c:	00000013          	nop
80000620:	223300b7          	lui	ra,0x22330
80000624:	01108093          	addi	ra,ra,17 # 22330011 <__stack_size+0x2232f811>
80000628:	00000013          	nop
8000062c:	00112823          	sw	ra,16(sp)
80000630:	01012703          	lw	a4,16(sp)
80000634:	223303b7          	lui	t2,0x22330
80000638:	01138393          	addi	t2,t2,17 # 22330011 <__stack_size+0x2232f811>
8000063c:	04771a63          	bne	a4,t2,80000690 <fail>
80000640:	00120213          	addi	tp,tp,1 # 1 <__heap_size-0x1ff>
80000644:	00200293          	li	t0,2
80000648:	fc5216e3          	bne	tp,t0,80000614 <test_22+0x8>
8000064c:	01700193          	li	gp,23
80000650:	00000213          	li	tp,0
80000654:	20000117          	auipc	sp,0x20000
80000658:	9ac10113          	addi	sp,sp,-1620 # a0000000 <begin_signature>
8000065c:	00000013          	nop
80000660:	00000013          	nop
80000664:	122330b7          	lui	ra,0x12233
80000668:	00108093          	addi	ra,ra,1 # 12233001 <__stack_size+0x12232801>
8000066c:	00112a23          	sw	ra,20(sp)
80000670:	01412703          	lw	a4,20(sp)
80000674:	122333b7          	lui	t2,0x12233
80000678:	00138393          	addi	t2,t2,1 # 12233001 <__stack_size+0x12232801>
8000067c:	00771a63          	bne	a4,t2,80000690 <fail>
80000680:	00120213          	addi	tp,tp,1 # 1 <__heap_size-0x1ff>
80000684:	00200293          	li	t0,2
80000688:	fc5216e3          	bne	tp,t0,80000654 <test_23+0x8>
8000068c:	02301063          	bne	zero,gp,800006ac <pass>
80000690:	0ff0000f          	fence
80000694:	00018063          	beqz	gp,80000694 <fail+0x4>
80000698:	00119193          	slli	gp,gp,0x1
8000069c:	0011e193          	ori	gp,gp,1
800006a0:	05d00893          	li	a7,93
800006a4:	00018513          	mv	a0,gp
800006a8:	00000073          	ecall
800006ac:	0ff0000f          	fence
800006b0:	00100193          	li	gp,1
800006b4:	05d00893          	li	a7,93
800006b8:	00000513          	li	a0,0
800006bc:	00000073          	ecall
800006c0:	c0001073          	unimp
800006c4:	0000                	.insn	2, 0x
800006c6:	0000                	.insn	2, 0x
800006c8:	0000                	.insn	2, 0x
800006ca:	0000                	.insn	2, 0x
800006cc:	0000                	.insn	2, 0x
800006ce:	0000                	.insn	2, 0x
800006d0:	0000                	.insn	2, 0x
800006d2:	0000                	.insn	2, 0x
800006d4:	0000                	.insn	2, 0x
800006d6:	0000                	.insn	2, 0x
800006d8:	0000                	.insn	2, 0x
800006da:	0000                	.insn	2, 0x
800006dc:	0000                	.insn	2, 0x
800006de:	0000                	.insn	2, 0x
800006e0:	0000                	.insn	2, 0x
800006e2:	0000                	.insn	2, 0x
800006e4:	0000                	.insn	2, 0x
800006e6:	0000                	.insn	2, 0x
800006e8:	0000                	.insn	2, 0x
800006ea:	0000                	.insn	2, 0x
800006ec:	0000                	.insn	2, 0x
800006ee:	0000                	.insn	2, 0x
800006f0:	0000                	.insn	2, 0x
800006f2:	0000                	.insn	2, 0x
800006f4:	0000                	.insn	2, 0x
800006f6:	0000                	.insn	2, 0x
800006f8:	0000                	.insn	2, 0x
800006fa:	0000                	.insn	2, 0x
a0000000:	deadbeef          	jal	t4,9ffdb5ea <pass+0x1ffdaf3e>
a0000004:	deadbeef          	jal	t4,9ffdb5ee <pass+0x1ffdaf42>
a0000008:	deadbeef          	jal	t4,9ffdb5f2 <pass+0x1ffdaf46>
a000000c:	deadbeef          	jal	t4,9ffdb5f6 <pass+0x1ffdaf4a>
a0000010:	deadbeef          	jal	t4,9ffdb5fa <pass+0x1ffdaf4e>
a0000014:	deadbeef          	jal	t4,9ffdb5fe <pass+0x1ffdaf52>
a0000018:	deadbeef          	jal	t4,9ffdb602 <pass+0x1ffdaf56>
a000001c:	deadbeef          	jal	t4,9ffdb606 <pass+0x1ffdaf5a>
a0000020:	deadbeef          	jal	t4,9ffdb60a <pass+0x1ffdaf5e>
a0000024:	deadbeef          	jal	t4,9ffdb60e <pass+0x1ffdaf62>
a0000028:	0000                	.insn	2, 0x
a000002a:	0000                	.insn	2, 0x
a000002c:	0000                	.insn	2, 0x
a000002e:	0000                	.insn	2, 0x
80000000:	0500006f          	j	80000050 <reset_vector>
80000004:	34202f73          	csrr	t5,mcause
80000008:	00800f93          	li	t6,8
8000000c:	03ff0863          	beq	t5,t6,8000003c <write_tohost>
80000010:	00900f93          	li	t6,9
80000014:	03ff0463          	beq	t5,t6,8000003c <write_tohost>
80000018:	00b00f93          	li	t6,11
8000001c:	03ff0063          	beq	t5,t6,8000003c <write_tohost>
80000020:	00000f13          	li	t5,0
80000024:	000f0463          	beqz	t5,8000002c <trap_vector+0x28>
80000028:	000f0067          	jr	t5
8000002c:	34202f73          	csrr	t5,mcause
80000030:	000f5463          	bgez	t5,80000038 <handle_exception>
80000034:	0040006f          	j	80000038 <handle_exception>
80000038:	5391e193          	ori	gp,gp,1337
8000003c:	20000f17          	auipc	t5,0x20000
80000040:	fc3f2223          	sw	gp,-60(t5) # a0000000 <tohost>
80000044:	20000f17          	auipc	t5,0x20000
80000048:	fc0f2023          	sw	zero,-64(t5) # a0000004 <tohost+0x4>
8000004c:	ff1ff06f          	j	8000003c <write_tohost>
80000050:	00000093          	li	ra,0
80000054:	00000113          	li	sp,0
80000058:	00000193          	li	gp,0
8000005c:	00000213          	li	tp,0
80000060:	00000293          	li	t0,0
80000064:	00000313          	li	t1,0
80000068:	00000393          	li	t2,0
8000006c:	00000413          	li	s0,0
80000070:	00000493          	li	s1,0
80000074:	00000513          	li	a0,0
80000078:	00000593          	li	a1,0
8000007c:	00000613          	li	a2,0
80000080:	00000693          	li	a3,0
80000084:	00000713          	li	a4,0
80000088:	00000793          	li	a5,0
8000008c:	00000813          	li	a6,0
80000090:	00000893          	li	a7,0
80000094:	00000913          	li	s2,0
80000098:	00000993          	li	s3,0
8000009c:	00000a13          	li	s4,0
800000a0:	00000a93          	li	s5,0
800000a4:	00000b13          	li	s6,0
800000a8:	00000b93          	li	s7,0
800000ac:	00000c13          	li	s8,0
800000b0:	00000c93          	li	s9,0
800000b4:	00000d13          	li	s10,0
800000b8:	00000d93          	li	s11,0
800000bc:	00000e13          	li	t3,0
800000c0:	00000e93          	li	t4,0
800000c4:	00000f13          	li	t5,0
800000c8:	00000f93          	li	t6,0
800000cc:	f1402573          	csrr	a0,mhartid
800000d0:	00051063          	bnez	a0,800000d0 <reset_vector+0x80>
800000d4:	00000297          	auipc	t0,0x0
800000d8:	01028293          	addi	t0,t0,16 # 800000e4 <reset_vector+0x94>
800000dc:	30529073          	csrw	mtvec,t0
800000e0:	74445073          	csrwi	0x744,8
800000e4:	00000297          	auipc	t0,0x0
800000e8:	01028293          	addi	t0,t0,16 # 800000f4 <reset_vector+0xa4>
800000ec:	30529073          	csrw	mtvec,t0
800000f0:	18005073          	csrwi	satp,0
800000f4:	00000297          	auipc	t0,0x0
800000f8:	02028293          	addi	t0,t0,32 # 80000114 <reset_vector+0xc4>
800000fc:	30529073          	csrw	mtvec,t0
80000100:	800002b7          	lui	t0,0x80000
80000104:	fff28293          	addi	t0,t0,-1 # 7fffffff <__stack_size+0x7ffff7ff>
80000108:	3b029073          	csrw	pmpaddr0,t0
8000010c:	01f00293          	li	t0,31
80000110:	3a029073          	csrw	pmpcfg0,t0
80000114:	30405073          	csrwi	mie,0
80000118:	00000297          	auipc	t0,0x0
8000011c:	01428293          	addi	t0,t0,20 # 8000012c <reset_vector+0xdc>
80000120:	30529073          	csrw	mtvec,t0
80000124:	30205073          	csrwi	medeleg,0
80000128:	30305073          	csrwi	mideleg,0
8000012c:	00000193          	li	gp,0
80000130:	00000297          	auipc	t0,0x0
80000134:	ed428293          	addi	t0,t0,-300 # 80000004 <trap_vector>
80000138:	30529073          	csrw	mtvec,t0
8000013c:	00100513          	li	a0,1
80000140:	01f51513          	slli	a0,a0,0x1f
80000144:	00054c63          	bltz	a0,8000015c <reset_vector+0x10c>
80000148:	0ff0000f          	fence
8000014c:	00100193          	li	gp,1
80000150:	05d00893          	li	a7,93
80000154:	00000513          	li	a0,0
80000158:	00000073          	ecall
8000015c:	00000293          	li	t0,0
80000160:	00028a63          	beqz	t0,80000174 <reset_vector+0x124>
80000164:	10529073          	csrw	stvec,t0
80000168:	0000b2b7          	lui	t0,0xb
8000016c:	10928293          	addi	t0,t0,265 # b109 <__stack_size+0xa909>
80000170:	30229073          	csrw	medeleg,t0
80000174:	30005073          	csrwi	mstatus,0
80000178:	00000297          	auipc	t0,0x0
8000017c:	01428293          	addi	t0,t0,20 # 8000018c <test_2>
80000180:	34129073          	csrw	mepc,t0
80000184:	f1402573          	csrr	a0,mhartid
80000188:	30200073          	mret
8000018c:	00200193          	li	gp,2
80000190:	00100593          	li	a1,1
80000194:	00000613          	li	a2,0
80000198:	00c59733          	sll	a4,a1,a2
8000019c:	00100393          	li	t2,1
800001a0:	52771e63          	bne	a4,t2,800006dc <fail>
800001a4:	00300193          	li	gp,3
800001a8:	00100593          	li	a1,1
800001ac:	00100613          	li	a2,1
800001b0:	00c59733          	sll	a4,a1,a2
800001b4:	00200393          	li	t2,2
800001b8:	52771263          	bne	a4,t2,800006dc <fail>
800001bc:	00400193          	li	gp,4
800001c0:	00100593          	li	a1,1
800001c4:	00700613          	li	a2,7
800001c8:	00c59733          	sll	a4,a1,a2
800001cc:	08000393          	li	t2,128
800001d0:	50771663          	bne	a4,t2,800006dc <fail>
800001d4:	00500193          	li	gp,5
800001d8:	00100593          	li	a1,1
800001dc:	00e00613          	li	a2,14
800001e0:	00c59733          	sll	a4,a1,a2
800001e4:	000043b7          	lui	t2,0x4
800001e8:	4e771a63          	bne	a4,t2,800006dc <fail>
800001ec:	00600193          	li	gp,6
800001f0:	00100593          	li	a1,1
800001f4:	01f00613          	li	a2,31
800001f8:	00c59733          	sll	a4,a1,a2
800001fc:	800003b7          	lui	t2,0x80000
80000200:	4c771e63          	bne	a4,t2,800006dc <fail>
80000204:	00700193          	li	gp,7
80000208:	fff00593          	li	a1,-1
8000020c:	00000613          	li	a2,0
80000210:	00c59733          	sll	a4,a1,a2
80000214:	fff00393          	li	t2,-1
80000218:	4c771263          	bne	a4,t2,800006dc <fail>
8000021c:	00800193          	li	gp,8
80000220:	fff00593          	li	a1,-1
80000224:	00100613          	li	a2,1
80000228:	00c59733          	sll	a4,a1,a2
8000022c:	ffe00393          	li	t2,-2
80000230:	4a771663          	bne	a4,t2,800006dc <fail>
80000234:	00900193          	li	gp,9
80000238:	fff00593          	li	a1,-1
8000023c:	00700613          	li	a2,7
80000240:	00c59733          	sll	a4,a1,a2
80000244:	f8000393          	li	t2,-128
80000248:	48771a63          	bne	a4,t2,800006dc <fail>
8000024c:	00a00193          	li	gp,10
80000250:	fff00593          	li	a1,-1
80000254:	00e00613          	li	a2,14
80000258:	00c59733          	sll	a4,a1,a2
8000025c:	ffffc3b7          	lui	t2,0xffffc
80000260:	46771e63          	bne	a4,t2,800006dc <fail>
80000264:	00b00193          	li	gp,11
80000268:	fff00593          	li	a1,-1
8000026c:	01f00613          	li	a2,31
80000270:	00c59733          	sll	a4,a1,a2
80000274:	800003b7          	lui	t2,0x80000
80000278:	46771263          	bne	a4,t2,800006dc <fail>
8000027c:	00c00193          	li	gp,12
80000280:	212125b7          	lui	a1,0x21212
80000284:	12158593          	addi	a1,a1,289 # 21212121 <__stack_size+0x21211921>
80000288:	00000613          	li	a2,0
8000028c:	00c59733          	sll	a4,a1,a2
80000290:	212123b7          	lui	t2,0x21212
80000294:	12138393          	addi	t2,t2,289 # 21212121 <__stack_size+0x21211921>
80000298:	44771263          	bne	a4,t2,800006dc <fail>
8000029c:	00d00193          	li	gp,13
800002a0:	212125b7          	lui	a1,0x21212
800002a4:	12158593          	addi	a1,a1,289 # 21212121 <__stack_size+0x21211921>
800002a8:	00100613          	li	a2,1
800002ac:	00c59733          	sll	a4,a1,a2
800002b0:	424243b7          	lui	t2,0x42424
800002b4:	24238393          	addi	t2,t2,578 # 42424242 <__stack_size+0x42423a42>
800002b8:	42771263          	bne	a4,t2,800006dc <fail>
800002bc:	00e00193          	li	gp,14
800002c0:	212125b7          	lui	a1,0x21212
800002c4:	12158593          	addi	a1,a1,289 # 21212121 <__stack_size+0x21211921>
800002c8:	00700613          	li	a2,7
800002cc:	00c59733          	sll	a4,a1,a2
800002d0:	909093b7          	lui	t2,0x90909
800002d4:	08038393          	addi	t2,t2,128 # 90909080 <pass+0x10908988>
800002d8:	40771263          	bne	a4,t2,800006dc <fail>
800002dc:	00f00193          	li	gp,15
800002e0:	212125b7          	lui	a1,0x21212
800002e4:	12158593          	addi	a1,a1,289 # 21212121 <__stack_size+0x21211921>
800002e8:	00e00613          	li	a2,14
800002ec:	00c59733          	sll	a4,a1,a2
800002f0:	484843b7          	lui	t2,0x48484
800002f4:	3e771463          	bne	a4,t2,800006dc <fail>
800002f8:	01000193          	li	gp,16
800002fc:	212125b7          	lui	a1,0x21212
80000300:	12158593          	addi	a1,a1,289 # 21212121 <__stack_size+0x21211921>
80000304:	01f00613          	li	a2,31
80000308:	00c59733          	sll	a4,a1,a2
8000030c:	800003b7          	lui	t2,0x80000
80000310:	3c771663          	bne	a4,t2,800006dc <fail>
80000314:	01100193          	li	gp,17
80000318:	212125b7          	lui	a1,0x21212
8000031c:	12158593          	addi	a1,a1,289 # 21212121 <__stack_size+0x21211921>
80000320:	fc000613          	li	a2,-64
80000324:	00c59733          	sll	a4,a1,a2
80000328:	212123b7          	lui	t2,0x21212
8000032c:	12138393          	addi	t2,t2,289 # 21212121 <__stack_size+0x21211921>
80000330:	3a771663          	bne	a4,t2,800006dc <fail>
80000334:	01200193          	li	gp,18
80000338:	212125b7          	lui	a1,0x21212
8000033c:	12158593          	addi	a1,a1,289 # 21212121 <__stack_size+0x21211921>
80000340:	fc100613          	li	a2,-63
80000344:	00c59733          	sll	a4,a1,a2
80000348:	424243b7          	lui	t2,0x42424
8000034c:	24238393          	addi	t2,t2,578 # 42424242 <__stack_size+0x42423a42>
80000350:	38771663          	bne	a4,t2,800006dc <fail>
80000354:	01300193          	li	gp,19
80000358:	212125b7          	lui	a1,0x21212
8000035c:	12158593          	addi	a1,a1,289 # 21212121 <__stack_size+0x21211921>
80000360:	fc700613          	li	a2,-57
80000364:	00c59733          	sll	a4,a1,a2
80000368:	909093b7          	lui	t2,0x90909
8000036c:	08038393          	addi	t2,t2,128 # 90909080 <pass+0x10908988>
80000370:	36771663          	bne	a4,t2,800006dc <fail>
80000374:	01400193          	li	gp,20
80000378:	212125b7          	lui	a1,0x21212
8000037c:	12158593          	addi	a1,a1,289 # 21212121 <__stack_size+0x21211921>
80000380:	fce00613          	li	a2,-50
80000384:	00c59733          	sll	a4,a1,a2
80000388:	484843b7          	lui	t2,0x48484
8000038c:	34771863          	bne	a4,t2,800006dc <fail>
80000390:	01600193          	li	gp,22
80000394:	00100593          	li	a1,1
80000398:	00700613          	li	a2,7
8000039c:	00c595b3          	sll	a1,a1,a2
800003a0:	08000393          	li	t2,128
800003a4:	32759c63          	bne	a1,t2,800006dc <fail>
800003a8:	01700193          	li	gp,23
800003ac:	00100593          	li	a1,1
800003b0:	00e00613          	li	a2,14
800003b4:	00c59633          	sll	a2,a1,a2
800003b8:	000043b7          	lui	t2,0x4
800003bc:	32761063          	bne	a2,t2,800006dc <fail>
800003c0:	01800193          	li	gp,24
800003c4:	00300593          	li	a1,3
800003c8:	00b595b3          	sll	a1,a1,a1
800003cc:	01800393          	li	t2,24
800003d0:	30759663          	bne	a1,t2,800006dc <fail>
800003d4:	01900193          	li	gp,25
800003d8:	00000213          	li	tp,0
800003dc:	00100093          	li	ra,1
800003e0:	00700113          	li	sp,7
800003e4:	00209733          	sll	a4,ra,sp
800003e8:	00070313          	mv	t1,a4
800003ec:	00120213          	addi	tp,tp,1 # 1 <__heap_size-0x1ff>
800003f0:	00200293          	li	t0,2
800003f4:	fe5214e3          	bne	tp,t0,800003dc <test_25+0x8>
800003f8:	08000393          	li	t2,128
800003fc:	2e731063          	bne	t1,t2,800006dc <fail>
80000400:	01a00193          	li	gp,26
80000404:	00000213          	li	tp,0
80000408:	00100093          	li	ra,1
8000040c:	00e00113          	li	sp,14
80000410:	00209733          	sll	a4,ra,sp
80000414:	00000013          	nop
80000418:	00070313          	mv	t1,a4
8000041c:	00120213          	addi	tp,tp,1 # 1 <__heap_size-0x1ff>
80000420:	00200293          	li	t0,2
80000424:	fe5212e3          	bne	tp,t0,80000408 <test_26+0x8>
80000428:	000043b7          	lui	t2,0x4
8000042c:	2a731863          	bne	t1,t2,800006dc <fail>
80000430:	01b00193          	li	gp,27
80000434:	00000213          	li	tp,0
80000438:	00100093          	li	ra,1
8000043c:	01f00113          	li	sp,31
80000440:	00209733          	sll	a4,ra,sp
80000444:	00000013          	nop
80000448:	00000013          	nop
8000044c:	00070313          	mv	t1,a4
80000450:	00120213          	addi	tp,tp,1 # 1 <__heap_size-0x1ff>
80000454:	00200293          	li	t0,2
80000458:	fe5210e3          	bne	tp,t0,80000438 <test_27+0x8>
8000045c:	800003b7          	lui	t2,0x80000
80000460:	26731e63          	bne	t1,t2,800006dc <fail>
80000464:	01c00193          	li	gp,28
80000468:	00000213          	li	tp,0
8000046c:	00100093          	li	ra,1
80000470:	00700113          	li	sp,7
80000474:	00209733          	sll	a4,ra,sp
80000478:	00120213          	addi	tp,tp,1 # 1 <__heap_size-0x1ff>
8000047c:	00200293          	li	t0,2
80000480:	fe5216e3          	bne	tp,t0,8000046c <test_28+0x8>
80000484:	08000393          	li	t2,128
80000488:	24771a63          	bne	a4,t2,800006dc <fail>
8000048c:	01d00193          	li	gp,29
80000490:	00000213          	li	tp,0
80000494:	00100093          	li	ra,1
80000498:	00e00113          	li	sp,14
8000049c:	00000013          	nop
800004a0:	00209733          	sll	a4,ra,sp
800004a4:	00120213          	addi	tp,tp,1 # 1 <__heap_size-0x1ff>
800004a8:	00200293          	li	t0,2
800004ac:	fe5214e3          	bne	tp,t0,80000494 <test_29+0x8>
800004b0:	000043b7          	lui	t2,0x4
800004b4:	22771463          	bne	a4,t2,800006dc <fail>
800004b8:	01e00193          	li	gp,30
800004bc:	00000213          	li	tp,0
800004c0:	00100093          	li	ra,1
800004c4:	01f00113          	li	sp,31
800004c8:	00000013          	nop
800004cc:	00000013          	nop
800004d0:	00209733          	sll	a4,ra,sp
800004d4:	00120213          	addi	tp,tp,1 # 1 <__heap_size-0x1ff>
800004d8:	00200293          	li	t0,2
800004dc:	fe5212e3          	bne	tp,t0,800004c0 <test_30+0x8>
800004e0:	800003b7          	lui	t2,0x80000
800004e4:	1e771c63          	bne	a4,t2,800006dc <fail>
800004e8:	01f00193          	li	gp,31
800004ec:	00000213          	li	tp,0
800004f0:	00100093          	li	ra,1
800004f4:	00000013          	nop
800004f8:	00700113          	li	sp,7
800004fc:	00209733          	sll	a4,ra,sp
80000500:	00120213          	addi	tp,tp,1 # 1 <__heap_size-0x1ff>
80000504:	00200293          	li	t0,2
80000508:	fe5214e3          	bne	tp,t0,800004f0 <test_31+0x8>
8000050c:	08000393          	li	t2,128
80000510:	1c771663          	bne	a4,t2,800006dc <fail>
80000514:	02000193          	li	gp,32
80000518:	00000213          	li	tp,0
8000051c:	00100093          	li	ra,1
80000520:	00000013          	nop
80000524:	00e00113          	li	sp,14
80000528:	00000013          	nop
8000052c:	00209733          	sll	a4,ra,sp
80000530:	00120213          	addi	tp,tp,1 # 1 <__heap_size-0x1ff>
80000534:	00200293          	li	t0,2
80000538:	fe5212e3          	bne	tp,t0,8000051c <test_32+0x8>
8000053c:	000043b7          	lui	t2,0x4
80000540:	18771e63          	bne	a4,t2,800006dc <fail>
80000544:	02100193          	li	gp,33
80000548:	00000213          	li	tp,0
8000054c:	00100093          	li	ra,1
80000550:	00000013          	nop
80000554:	00000013          	nop
80000558:	01f00113          	li	sp,31
8000055c:	00209733          	sll	a4,ra,sp
80000560:	00120213          	addi	tp,tp,1 # 1 <__heap_size-0x1ff>
80000564:	00200293          	li	t0,2
80000568:	fe5212e3          	bne	tp,t0,8000054c <test_33+0x8>
8000056c:	800003b7          	lui	t2,0x80000
80000570:	16771663          	bne	a4,t2,800006dc <fail>
80000574:	02200193          	li	gp,34
80000578:	00000213          	li	tp,0
8000057c:	00700113          	li	sp,7
80000580:	00100093          	li	ra,1
80000584:	00209733          	sll	a4,ra,sp
80000588:	00120213          	addi	tp,tp,1 # 1 <__heap_size-0x1ff>
8000058c:	00200293          	li	t0,2
80000590:	fe5216e3          	bne	tp,t0,8000057c <test_34+0x8>
80000594:	08000393          	li	t2,128
80000598:	14771263          	bne	a4,t2,800006dc <fail>
8000059c:	02300193          	li	gp,35
800005a0:	00000213          	li	tp,0
800005a4:	00e00113          	li	sp,14
800005a8:	00100093          	li	ra,1
800005ac:	00000013          	nop
800005b0:	00209733          	sll	a4,ra,sp
800005b4:	00120213          	addi	tp,tp,1 # 1 <__heap_size-0x1ff>
800005b8:	00200293          	li	t0,2
800005bc:	fe5214e3          	bne	tp,t0,800005a4 <test_35+0x8>
800005c0:	000043b7          	lui	t2,0x4
800005c4:	10771c63          	bne	a4,t2,800006dc <fail>
800005c8:	02400193          	li	gp,36
800005cc:	00000213          	li	tp,0
800005d0:	01f00113          	li	sp,31
800005d4:	00100093          	li	ra,1
800005d8:	00000013          	nop
800005dc:	00000013          	nop
800005e0:	00209733          	sll	a4,ra,sp
800005e4:	00120213          	addi	tp,tp,1 # 1 <__heap_size-0x1ff>
800005e8:	00200293          	li	t0,2
800005ec:	fe5212e3          	bne	tp,t0,800005d0 <test_36+0x8>
800005f0:	800003b7          	lui	t2,0x80000
800005f4:	0e771463          	bne	a4,t2,800006dc <fail>
800005f8:	02500193          	li	gp,37
800005fc:	00000213          	li	tp,0
80000600:	00700113          	li	sp,7
80000604:	00000013          	nop
80000608:	00100093          	li	ra,1
8000060c:	00209733          	sll	a4,ra,sp
80000610:	00120213          	addi	tp,tp,1 # 1 <__heap_size-0x1ff>
80000614:	00200293          	li	t0,2
80000618:	fe5214e3          	bne	tp,t0,80000600 <test_37+0x8>
8000061c:	08000393          	li	t2,128
80000620:	0a771e63          	bne	a4,t2,800006dc <fail>
80000624:	02600193          	li	gp,38
80000628:	00000213          	li	tp,0
8000062c:	00e00113          	li	sp,14
80000630:	00000013          	nop
80000634:	00100093          	li	ra,1
80000638:	00000013          	nop
8000063c:	00209733          	sll	a4,ra,sp
80000640:	00120213          	addi	tp,tp,1 # 1 <__heap_size-0x1ff>
80000644:	00200293          	li	t0,2
80000648:	fe5212e3          	bne	tp,t0,8000062c <test_38+0x8>
8000064c:	000043b7          	lui	t2,0x4
80000650:	08771663          	bne	a4,t2,800006dc <fail>
80000654:	02700193          	li	gp,39
80000658:	00000213          	li	tp,0
8000065c:	01f00113          	li	sp,31
80000660:	00000013          	nop
80000664:	00000013          	nop
80000668:	00100093          	li	ra,1
8000066c:	00209733          	sll	a4,ra,sp
80000670:	00120213          	addi	tp,tp,1 # 1 <__heap_size-0x1ff>
80000674:	00200293          	li	t0,2
80000678:	fe5212e3          	bne	tp,t0,8000065c <test_39+0x8>
8000067c:	800003b7          	lui	t2,0x80000
80000680:	04771e63          	bne	a4,t2,800006dc <fail>
80000684:	02800193          	li	gp,40
80000688:	00f00093          	li	ra,15
8000068c:	00101133          	sll	sp,zero,ra
80000690:	00000393          	li	t2,0
80000694:	04711463          	bne	sp,t2,800006dc <fail>
80000698:	02900193          	li	gp,41
8000069c:	02000093          	li	ra,32
800006a0:	00009133          	sll	sp,ra,zero
800006a4:	02000393          	li	t2,32
800006a8:	02711a63          	bne	sp,t2,800006dc <fail>
800006ac:	02a00193          	li	gp,42
800006b0:	000010b3          	sll	ra,zero,zero
800006b4:	00000393          	li	t2,0
800006b8:	02709263          	bne	ra,t2,800006dc <fail>
800006bc:	02b00193          	li	gp,43
800006c0:	40000093          	li	ra,1024
800006c4:	00001137          	lui	sp,0x1
800006c8:	80010113          	addi	sp,sp,-2048 # 800 <__stack_size>
800006cc:	00209033          	sll	zero,ra,sp
800006d0:	00000393          	li	t2,0
800006d4:	00701463          	bne	zero,t2,800006dc <fail>
800006d8:	02301063          	bne	zero,gp,800006f8 <pass>
800006dc:	0ff0000f          	fence
800006e0:	00018063          	beqz	gp,800006e0 <fail+0x4>
800006e4:	00119193          	slli	gp,gp,0x1
800006e8:	0011e193          	ori	gp,gp,1
800006ec:	05d00893          	li	a7,93
800006f0:	00018513          	mv	a0,gp
800006f4:	00000073          	ecall
800006f8:	0ff0000f          	fence
800006fc:	00100193          	li	gp,1
80000700:	05d00893          	li	a7,93
80000704:	00000513          	li	a0,0
80000708:	00000073          	ecall
8000070c:	c0001073          	unimp
80000710:	0000                	.insn	2, 0x
80000712:	0000                	.insn	2, 0x
80000714:	0000                	.insn	2, 0x
80000716:	0000                	.insn	2, 0x
80000718:	0000                	.insn	2, 0x
8000071a:	0000                	.insn	2, 0x
8000071c:	0000                	.insn	2, 0x
8000071e:	0000                	.insn	2, 0x
80000720:	0000                	.insn	2, 0x
80000722:	0000                	.insn	2, 0x
80000724:	0000                	.insn	2, 0x
80000726:	0000                	.insn	2, 0x
80000728:	0000                	.insn	2, 0x
8000072a:	0000                	.insn	2, 0x
8000072c:	0000                	.insn	2, 0x
8000072e:	0000                	.insn	2, 0x
80000730:	0000                	.insn	2, 0x
80000732:	0000                	.insn	2, 0x
80000734:	0000                	.insn	2, 0x
80000736:	0000                	.insn	2, 0x
80000738:	0000                	.insn	2, 0x
8000073a:	0000                	.insn	2, 0x
80000000:	0500006f          	j	80000050 <reset_vector>
80000004:	34202f73          	csrr	t5,mcause
80000008:	00800f93          	li	t6,8
8000000c:	03ff0863          	beq	t5,t6,8000003c <write_tohost>
80000010:	00900f93          	li	t6,9
80000014:	03ff0463          	beq	t5,t6,8000003c <write_tohost>
80000018:	00b00f93          	li	t6,11
8000001c:	03ff0063          	beq	t5,t6,8000003c <write_tohost>
80000020:	00000f13          	li	t5,0
80000024:	000f0463          	beqz	t5,8000002c <trap_vector+0x28>
80000028:	000f0067          	jr	t5
8000002c:	34202f73          	csrr	t5,mcause
80000030:	000f5463          	bgez	t5,80000038 <handle_exception>
80000034:	0040006f          	j	80000038 <handle_exception>
80000038:	5391e193          	ori	gp,gp,1337
8000003c:	20000f17          	auipc	t5,0x20000
80000040:	003f2223          	sw	gp,4(t5) # a0000040 <tohost>
80000044:	20000f17          	auipc	t5,0x20000
80000048:	000f2023          	sw	zero,0(t5) # a0000044 <tohost+0x4>
8000004c:	ff1ff06f          	j	8000003c <write_tohost>
80000050:	00000093          	li	ra,0
80000054:	00000113          	li	sp,0
80000058:	00000193          	li	gp,0
8000005c:	00000213          	li	tp,0
80000060:	00000293          	li	t0,0
80000064:	00000313          	li	t1,0
80000068:	00000393          	li	t2,0
8000006c:	00000413          	li	s0,0
80000070:	00000493          	li	s1,0
80000074:	00000513          	li	a0,0
80000078:	00000593          	li	a1,0
8000007c:	00000613          	li	a2,0
80000080:	00000693          	li	a3,0
80000084:	00000713          	li	a4,0
80000088:	00000793          	li	a5,0
8000008c:	00000813          	li	a6,0
80000090:	00000893          	li	a7,0
80000094:	00000913          	li	s2,0
80000098:	00000993          	li	s3,0
8000009c:	00000a13          	li	s4,0
800000a0:	00000a93          	li	s5,0
800000a4:	00000b13          	li	s6,0
800000a8:	00000b93          	li	s7,0
800000ac:	00000c13          	li	s8,0
800000b0:	00000c93          	li	s9,0
800000b4:	00000d13          	li	s10,0
800000b8:	00000d93          	li	s11,0
800000bc:	00000e13          	li	t3,0
800000c0:	00000e93          	li	t4,0
800000c4:	00000f13          	li	t5,0
800000c8:	00000f93          	li	t6,0
800000cc:	f1402573          	csrr	a0,mhartid
800000d0:	00051063          	bnez	a0,800000d0 <reset_vector+0x80>
800000d4:	00000297          	auipc	t0,0x0
800000d8:	01028293          	addi	t0,t0,16 # 800000e4 <reset_vector+0x94>
800000dc:	30529073          	csrw	mtvec,t0
800000e0:	74445073          	csrwi	0x744,8
800000e4:	00000297          	auipc	t0,0x0
800000e8:	01028293          	addi	t0,t0,16 # 800000f4 <reset_vector+0xa4>
800000ec:	30529073          	csrw	mtvec,t0
800000f0:	18005073          	csrwi	satp,0
800000f4:	00000297          	auipc	t0,0x0
800000f8:	02028293          	addi	t0,t0,32 # 80000114 <reset_vector+0xc4>
800000fc:	30529073          	csrw	mtvec,t0
80000100:	800002b7          	lui	t0,0x80000
80000104:	fff28293          	addi	t0,t0,-1 # 7fffffff <__stack_size+0x7ffff7ff>
80000108:	3b029073          	csrw	pmpaddr0,t0
8000010c:	01f00293          	li	t0,31
80000110:	3a029073          	csrw	pmpcfg0,t0
80000114:	30405073          	csrwi	mie,0
80000118:	00000297          	auipc	t0,0x0
8000011c:	01428293          	addi	t0,t0,20 # 8000012c <reset_vector+0xdc>
80000120:	30529073          	csrw	mtvec,t0
80000124:	30205073          	csrwi	medeleg,0
80000128:	30305073          	csrwi	mideleg,0
8000012c:	00000193          	li	gp,0
80000130:	00000297          	auipc	t0,0x0
80000134:	ed428293          	addi	t0,t0,-300 # 80000004 <trap_vector>
80000138:	30529073          	csrw	mtvec,t0
8000013c:	00100513          	li	a0,1
80000140:	01f51513          	slli	a0,a0,0x1f
80000144:	00054c63          	bltz	a0,8000015c <reset_vector+0x10c>
80000148:	0ff0000f          	fence
8000014c:	00100193          	li	gp,1
80000150:	05d00893          	li	a7,93
80000154:	00000513          	li	a0,0
80000158:	00000073          	ecall
8000015c:	00000293          	li	t0,0
80000160:	00028a63          	beqz	t0,80000174 <reset_vector+0x124>
80000164:	10529073          	csrw	stvec,t0
80000168:	0000b2b7          	lui	t0,0xb
8000016c:	10928293          	addi	t0,t0,265 # b109 <__stack_size+0xa909>
80000170:	30229073          	csrw	medeleg,t0
80000174:	30005073          	csrwi	mstatus,0
80000178:	00000297          	auipc	t0,0x0
8000017c:	01428293          	addi	t0,t0,20 # 8000018c <test_2>
80000180:	34129073          	csrw	mepc,t0
80000184:	f1402573          	csrr	a0,mhartid
80000188:	30200073          	mret
8000018c:	00200193          	li	gp,2
80000190:	fff00793          	li	a5,-1
80000194:	20000117          	auipc	sp,0x20000
80000198:	e6c10113          	addi	sp,sp,-404 # a0000000 <begin_signature>
8000019c:	00010703          	lb	a4,0(sp)
800001a0:	fff00393          	li	t2,-1
800001a4:	24771a63          	bne	a4,t2,800003f8 <fail>
800001a8:	00300193          	li	gp,3
800001ac:	00000793          	li	a5,0
800001b0:	20000117          	auipc	sp,0x20000
800001b4:	e5010113          	addi	sp,sp,-432 # a0000000 <begin_signature>
800001b8:	00110703          	lb	a4,1(sp)
800001bc:	00000393          	li	t2,0
800001c0:	22771c63          	bne	a4,t2,800003f8 <fail>
800001c4:	00400193          	li	gp,4
800001c8:	ff000793          	li	a5,-16
800001cc:	20000117          	auipc	sp,0x20000
800001d0:	e3410113          	addi	sp,sp,-460 # a0000000 <begin_signature>
800001d4:	00210703          	lb	a4,2(sp)
800001d8:	ff000393          	li	t2,-16
800001dc:	20771e63          	bne	a4,t2,800003f8 <fail>
800001e0:	00500193          	li	gp,5
800001e4:	00f00793          	li	a5,15
800001e8:	20000117          	auipc	sp,0x20000
800001ec:	e1810113          	addi	sp,sp,-488 # a0000000 <begin_signature>
800001f0:	00310703          	lb	a4,3(sp)
800001f4:	00f00393          	li	t2,15
800001f8:	20771063          	bne	a4,t2,800003f8 <fail>
800001fc:	00600193          	li	gp,6
80000200:	fff00793          	li	a5,-1
80000204:	20000117          	auipc	sp,0x20000
80000208:	dff10113          	addi	sp,sp,-513 # a0000003 <tdat4>
8000020c:	ffd10703          	lb	a4,-3(sp)
80000210:	fff00393          	li	t2,-1
80000214:	1e771263          	bne	a4,t2,800003f8 <fail>
80000218:	00700193          	li	gp,7
8000021c:	00000793          	li	a5,0
80000220:	20000117          	auipc	sp,0x20000
80000224:	de310113          	addi	sp,sp,-541 # a0000003 <tdat4>
80000228:	ffe10703          	lb	a4,-2(sp)
8000022c:	00000393          	li	t2,0
80000230:	1c771463          	bne	a4,t2,800003f8 <fail>
80000234:	00800193          	li	gp,8
80000238:	ff000793          	li	a5,-16
8000023c:	20000117          	auipc	sp,0x20000
80000240:	dc710113          	addi	sp,sp,-569 # a0000003 <tdat4>
80000244:	fff10703          	lb	a4,-1(sp)
80000248:	ff000393          	li	t2,-16
8000024c:	1a771663          	bne	a4,t2,800003f8 <fail>
80000250:	00900193          	li	gp,9
80000254:	00f00793          	li	a5,15
80000258:	20000117          	auipc	sp,0x20000
8000025c:	dab10113          	addi	sp,sp,-597 # a0000003 <tdat4>
80000260:	00010703          	lb	a4,0(sp)
80000264:	00f00393          	li	t2,15
80000268:	18771863          	bne	a4,t2,800003f8 <fail>
8000026c:	00a00193          	li	gp,10
80000270:	20000097          	auipc	ra,0x20000
80000274:	d9008093          	addi	ra,ra,-624 # a0000000 <begin_signature>
80000278:	fe008093          	addi	ra,ra,-32
8000027c:	02008283          	lb	t0,32(ra)
80000280:	fff00393          	li	t2,-1
80000284:	16729a63          	bne	t0,t2,800003f8 <fail>
80000288:	00b00193          	li	gp,11
8000028c:	20000097          	auipc	ra,0x20000
80000290:	d7408093          	addi	ra,ra,-652 # a0000000 <begin_signature>
80000294:	ffa08093          	addi	ra,ra,-6
80000298:	00708283          	lb	t0,7(ra)
8000029c:	00000393          	li	t2,0
800002a0:	14729c63          	bne	t0,t2,800003f8 <fail>
800002a4:	00c00193          	li	gp,12
800002a8:	00000213          	li	tp,0
800002ac:	20000697          	auipc	a3,0x20000
800002b0:	d5568693          	addi	a3,a3,-683 # a0000001 <tdat2>
800002b4:	00168703          	lb	a4,1(a3)
800002b8:	00070313          	mv	t1,a4
800002bc:	ff000393          	li	t2,-16
800002c0:	12731c63          	bne	t1,t2,800003f8 <fail>
800002c4:	00120213          	addi	tp,tp,1 # 1 <__heap_size-0x1ff>
800002c8:	00200293          	li	t0,2
800002cc:	fe5210e3          	bne	tp,t0,800002ac <test_12+0x8>
800002d0:	00d00193          	li	gp,13
800002d4:	00000213          	li	tp,0
800002d8:	20000697          	auipc	a3,0x20000
800002dc:	d2a68693          	addi	a3,a3,-726 # a0000002 <tdat3>
800002e0:	00168703          	lb	a4,1(a3)
800002e4:	00000013          	nop
800002e8:	00070313          	mv	t1,a4
800002ec:	00f00393          	li	t2,15
800002f0:	10731463          	bne	t1,t2,800003f8 <fail>
800002f4:	00120213          	addi	tp,tp,1 # 1 <__heap_size-0x1ff>
800002f8:	00200293          	li	t0,2
800002fc:	fc521ee3          	bne	tp,t0,800002d8 <test_13+0x8>
80000300:	00e00193          	li	gp,14
80000304:	00000213          	li	tp,0
80000308:	20000697          	auipc	a3,0x20000
8000030c:	cf868693          	addi	a3,a3,-776 # a0000000 <begin_signature>
80000310:	00168703          	lb	a4,1(a3)
80000314:	00000013          	nop
80000318:	00000013          	nop
8000031c:	00070313          	mv	t1,a4
80000320:	00000393          	li	t2,0
80000324:	0c731a63          	bne	t1,t2,800003f8 <fail>
80000328:	00120213          	addi	tp,tp,1 # 1 <__heap_size-0x1ff>
8000032c:	00200293          	li	t0,2
80000330:	fc521ce3          	bne	tp,t0,80000308 <test_14+0x8>
80000334:	00f00193          	li	gp,15
80000338:	00000213          	li	tp,0
8000033c:	20000697          	auipc	a3,0x20000
80000340:	cc568693          	addi	a3,a3,-827 # a0000001 <tdat2>
80000344:	00168703          	lb	a4,1(a3)
80000348:	ff000393          	li	t2,-16
8000034c:	0a771663          	bne	a4,t2,800003f8 <fail>
80000350:	00120213          	addi	tp,tp,1 # 1 <__heap_size-0x1ff>
80000354:	00200293          	li	t0,2
80000358:	fe5212e3          	bne	tp,t0,8000033c <test_15+0x8>
8000035c:	01000193          	li	gp,16
80000360:	00000213          	li	tp,0
80000364:	20000697          	auipc	a3,0x20000
80000368:	c9e68693          	addi	a3,a3,-866 # a0000002 <tdat3>
8000036c:	00000013          	nop
80000370:	00168703          	lb	a4,1(a3)
80000374:	00f00393          	li	t2,15
80000378:	08771063          	bne	a4,t2,800003f8 <fail>
8000037c:	00120213          	addi	tp,tp,1 # 1 <__heap_size-0x1ff>
80000380:	00200293          	li	t0,2
80000384:	fe5210e3          	bne	tp,t0,80000364 <test_16+0x8>
80000388:	01100193          	li	gp,17
8000038c:	00000213          	li	tp,0
80000390:	20000697          	auipc	a3,0x20000
80000394:	c7068693          	addi	a3,a3,-912 # a0000000 <begin_signature>
80000398:	00000013          	nop
8000039c:	00000013          	nop
800003a0:	00168703          	lb	a4,1(a3)
800003a4:	00000393          	li	t2,0
800003a8:	04771863          	bne	a4,t2,800003f8 <fail>
800003ac:	00120213          	addi	tp,tp,1 # 1 <__heap_size-0x1ff>
800003b0:	00200293          	li	t0,2
800003b4:	fc521ee3          	bne	tp,t0,80000390 <test_17+0x8>
800003b8:	01200193          	li	gp,18
800003bc:	20000297          	auipc	t0,0x20000
800003c0:	c4428293          	addi	t0,t0,-956 # a0000000 <begin_signature>
800003c4:	00028103          	lb	sp,0(t0)
800003c8:	00200113          	li	sp,2
800003cc:	00200393          	li	t2,2
800003d0:	02711463          	bne	sp,t2,800003f8 <fail>
800003d4:	01300193          	li	gp,19
800003d8:	20000297          	auipc	t0,0x20000
800003dc:	c2828293          	addi	t0,t0,-984 # a0000000 <begin_signature>
800003e0:	00028103          	lb	sp,0(t0)
800003e4:	00000013          	nop
800003e8:	00200113          	li	sp,2
800003ec:	00200393          	li	t2,2
800003f0:	00711463          	bne	sp,t2,800003f8 <fail>
800003f4:	02301063          	bne	zero,gp,80000414 <pass>
800003f8:	0ff0000f          	fence
800003fc:	00018063          	beqz	gp,800003fc <fail+0x4>
80000400:	00119193          	slli	gp,gp,0x1
80000404:	0011e193          	ori	gp,gp,1
80000408:	05d00893          	li	a7,93
8000040c:	00018513          	mv	a0,gp
80000410:	00000073          	ecall
80000414:	0ff0000f          	fence
80000418:	00100193          	li	gp,1
8000041c:	05d00893          	li	a7,93
80000420:	00000513          	li	a0,0
80000424:	00000073          	ecall
80000428:	c0001073          	unimp
8000042c:	0000                	.insn	2, 0x
8000042e:	0000                	.insn	2, 0x
80000430:	0000                	.insn	2, 0x
80000432:	0000                	.insn	2, 0x
80000434:	0000                	.insn	2, 0x
80000436:	0000                	.insn	2, 0x
80000438:	0000                	.insn	2, 0x
8000043a:	0000                	.insn	2, 0x
a0000003:	0000000f          	fence	unknown,unknown
a0000007:	0000                	.insn	2, 0x
a0000009:	0000                	.insn	2, 0x
a000000b:	0000                	.insn	2, 0x
a000000d:	0000                	.insn	2, 0x
80000000:	0500006f          	j	80000050 <reset_vector>
80000004:	34202f73          	csrr	t5,mcause
80000008:	00800f93          	li	t6,8
8000000c:	03ff0863          	beq	t5,t6,8000003c <write_tohost>
80000010:	00900f93          	li	t6,9
80000014:	03ff0463          	beq	t5,t6,8000003c <write_tohost>
80000018:	00b00f93          	li	t6,11
8000001c:	03ff0063          	beq	t5,t6,8000003c <write_tohost>
80000020:	00000f13          	li	t5,0
80000024:	000f0463          	beqz	t5,8000002c <trap_vector+0x28>
80000028:	000f0067          	jr	t5
8000002c:	34202f73          	csrr	t5,mcause
80000030:	000f5463          	bgez	t5,80000038 <handle_exception>
80000034:	0040006f          	j	80000038 <handle_exception>
80000038:	5391e193          	ori	gp,gp,1337
8000003c:	20000f17          	auipc	t5,0x20000
80000040:	003f2223          	sw	gp,4(t5) # a0000040 <tohost>
80000044:	20000f17          	auipc	t5,0x20000
80000048:	000f2023          	sw	zero,0(t5) # a0000044 <tohost+0x4>
8000004c:	ff1ff06f          	j	8000003c <write_tohost>
80000050:	00000093          	li	ra,0
80000054:	00000113          	li	sp,0
80000058:	00000193          	li	gp,0
8000005c:	00000213          	li	tp,0
80000060:	00000293          	li	t0,0
80000064:	00000313          	li	t1,0
80000068:	00000393          	li	t2,0
8000006c:	00000413          	li	s0,0
80000070:	00000493          	li	s1,0
80000074:	00000513          	li	a0,0
80000078:	00000593          	li	a1,0
8000007c:	00000613          	li	a2,0
80000080:	00000693          	li	a3,0
80000084:	00000713          	li	a4,0
80000088:	00000793          	li	a5,0
8000008c:	00000813          	li	a6,0
80000090:	00000893          	li	a7,0
80000094:	00000913          	li	s2,0
80000098:	00000993          	li	s3,0
8000009c:	00000a13          	li	s4,0
800000a0:	00000a93          	li	s5,0
800000a4:	00000b13          	li	s6,0
800000a8:	00000b93          	li	s7,0
800000ac:	00000c13          	li	s8,0
800000b0:	00000c93          	li	s9,0
800000b4:	00000d13          	li	s10,0
800000b8:	00000d93          	li	s11,0
800000bc:	00000e13          	li	t3,0
800000c0:	00000e93          	li	t4,0
800000c4:	00000f13          	li	t5,0
800000c8:	00000f93          	li	t6,0
800000cc:	f1402573          	csrr	a0,mhartid
800000d0:	00051063          	bnez	a0,800000d0 <reset_vector+0x80>
800000d4:	00000297          	auipc	t0,0x0
800000d8:	01028293          	addi	t0,t0,16 # 800000e4 <reset_vector+0x94>
800000dc:	30529073          	csrw	mtvec,t0
800000e0:	74445073          	csrwi	0x744,8
800000e4:	00000297          	auipc	t0,0x0
800000e8:	01028293          	addi	t0,t0,16 # 800000f4 <reset_vector+0xa4>
800000ec:	30529073          	csrw	mtvec,t0
800000f0:	18005073          	csrwi	satp,0
800000f4:	00000297          	auipc	t0,0x0
800000f8:	02028293          	addi	t0,t0,32 # 80000114 <reset_vector+0xc4>
800000fc:	30529073          	csrw	mtvec,t0
80000100:	800002b7          	lui	t0,0x80000
80000104:	fff28293          	addi	t0,t0,-1 # 7fffffff <__stack_size+0x7ffff7ff>
80000108:	3b029073          	csrw	pmpaddr0,t0
8000010c:	01f00293          	li	t0,31
80000110:	3a029073          	csrw	pmpcfg0,t0
80000114:	30405073          	csrwi	mie,0
80000118:	00000297          	auipc	t0,0x0
8000011c:	01428293          	addi	t0,t0,20 # 8000012c <reset_vector+0xdc>
80000120:	30529073          	csrw	mtvec,t0
80000124:	30205073          	csrwi	medeleg,0
80000128:	30305073          	csrwi	mideleg,0
8000012c:	00000193          	li	gp,0
80000130:	00000297          	auipc	t0,0x0
80000134:	ed428293          	addi	t0,t0,-300 # 80000004 <trap_vector>
80000138:	30529073          	csrw	mtvec,t0
8000013c:	00100513          	li	a0,1
80000140:	01f51513          	slli	a0,a0,0x1f
80000144:	00054c63          	bltz	a0,8000015c <reset_vector+0x10c>
80000148:	0ff0000f          	fence
8000014c:	00100193          	li	gp,1
80000150:	05d00893          	li	a7,93
80000154:	00000513          	li	a0,0
80000158:	00000073          	ecall
8000015c:	00000293          	li	t0,0
80000160:	00028a63          	beqz	t0,80000174 <reset_vector+0x124>
80000164:	10529073          	csrw	stvec,t0
80000168:	0000b2b7          	lui	t0,0xb
8000016c:	10928293          	addi	t0,t0,265 # b109 <__stack_size+0xa909>
80000170:	30229073          	csrw	medeleg,t0
80000174:	30005073          	csrwi	mstatus,0
80000178:	00000297          	auipc	t0,0x0
8000017c:	01428293          	addi	t0,t0,20 # 8000018c <test_2>
80000180:	34129073          	csrw	mepc,t0
80000184:	f1402573          	csrr	a0,mhartid
80000188:	30200073          	mret
8000018c:	00200193          	li	gp,2
80000190:	0ff00793          	li	a5,255
80000194:	20000117          	auipc	sp,0x20000
80000198:	e6c10113          	addi	sp,sp,-404 # a0000000 <begin_signature>
8000019c:	00011703          	lh	a4,0(sp)
800001a0:	0ff00393          	li	t2,255
800001a4:	28771263          	bne	a4,t2,80000428 <fail>
800001a8:	00300193          	li	gp,3
800001ac:	f0000793          	li	a5,-256
800001b0:	20000117          	auipc	sp,0x20000
800001b4:	e5010113          	addi	sp,sp,-432 # a0000000 <begin_signature>
800001b8:	00211703          	lh	a4,2(sp)
800001bc:	f0000393          	li	t2,-256
800001c0:	26771463          	bne	a4,t2,80000428 <fail>
800001c4:	00400193          	li	gp,4
800001c8:	000017b7          	lui	a5,0x1
800001cc:	ff078793          	addi	a5,a5,-16 # ff0 <__stack_size+0x7f0>
800001d0:	20000117          	auipc	sp,0x20000
800001d4:	e3010113          	addi	sp,sp,-464 # a0000000 <begin_signature>
800001d8:	00411703          	lh	a4,4(sp)
800001dc:	000013b7          	lui	t2,0x1
800001e0:	ff038393          	addi	t2,t2,-16 # ff0 <__stack_size+0x7f0>
800001e4:	24771263          	bne	a4,t2,80000428 <fail>
800001e8:	00500193          	li	gp,5
800001ec:	fffff7b7          	lui	a5,0xfffff
800001f0:	00f78793          	addi	a5,a5,15 # fffff00f <_end+0x5fffe587>
800001f4:	20000117          	auipc	sp,0x20000
800001f8:	e0c10113          	addi	sp,sp,-500 # a0000000 <begin_signature>
800001fc:	00611703          	lh	a4,6(sp)
80000200:	fffff3b7          	lui	t2,0xfffff
80000204:	00f38393          	addi	t2,t2,15 # fffff00f <_end+0x5fffe587>
80000208:	22771063          	bne	a4,t2,80000428 <fail>
8000020c:	00600193          	li	gp,6
80000210:	0ff00793          	li	a5,255
80000214:	20000117          	auipc	sp,0x20000
80000218:	df210113          	addi	sp,sp,-526 # a0000006 <tdat4>
8000021c:	ffa11703          	lh	a4,-6(sp)
80000220:	0ff00393          	li	t2,255
80000224:	20771263          	bne	a4,t2,80000428 <fail>
80000228:	00700193          	li	gp,7
8000022c:	f0000793          	li	a5,-256
80000230:	20000117          	auipc	sp,0x20000
80000234:	dd610113          	addi	sp,sp,-554 # a0000006 <tdat4>
80000238:	ffc11703          	lh	a4,-4(sp)
8000023c:	f0000393          	li	t2,-256
80000240:	1e771463          	bne	a4,t2,80000428 <fail>
80000244:	00800193          	li	gp,8
80000248:	000017b7          	lui	a5,0x1
8000024c:	ff078793          	addi	a5,a5,-16 # ff0 <__stack_size+0x7f0>
80000250:	20000117          	auipc	sp,0x20000
80000254:	db610113          	addi	sp,sp,-586 # a0000006 <tdat4>
80000258:	ffe11703          	lh	a4,-2(sp)
8000025c:	000013b7          	lui	t2,0x1
80000260:	ff038393          	addi	t2,t2,-16 # ff0 <__stack_size+0x7f0>
80000264:	1c771263          	bne	a4,t2,80000428 <fail>
80000268:	00900193          	li	gp,9
8000026c:	fffff7b7          	lui	a5,0xfffff
80000270:	00f78793          	addi	a5,a5,15 # fffff00f <_end+0x5fffe587>
80000274:	20000117          	auipc	sp,0x20000
80000278:	d9210113          	addi	sp,sp,-622 # a0000006 <tdat4>
8000027c:	00011703          	lh	a4,0(sp)
80000280:	fffff3b7          	lui	t2,0xfffff
80000284:	00f38393          	addi	t2,t2,15 # fffff00f <_end+0x5fffe587>
80000288:	1a771063          	bne	a4,t2,80000428 <fail>
8000028c:	00a00193          	li	gp,10
80000290:	20000097          	auipc	ra,0x20000
80000294:	d7008093          	addi	ra,ra,-656 # a0000000 <begin_signature>
80000298:	fe008093          	addi	ra,ra,-32
8000029c:	02009283          	lh	t0,32(ra)
800002a0:	0ff00393          	li	t2,255
800002a4:	18729263          	bne	t0,t2,80000428 <fail>
800002a8:	00b00193          	li	gp,11
800002ac:	20000097          	auipc	ra,0x20000
800002b0:	d5408093          	addi	ra,ra,-684 # a0000000 <begin_signature>
800002b4:	ffb08093          	addi	ra,ra,-5
800002b8:	00709283          	lh	t0,7(ra)
800002bc:	f0000393          	li	t2,-256
800002c0:	16729463          	bne	t0,t2,80000428 <fail>
800002c4:	00c00193          	li	gp,12
800002c8:	00000213          	li	tp,0
800002cc:	20000697          	auipc	a3,0x20000
800002d0:	d3668693          	addi	a3,a3,-714 # a0000002 <tdat2>
800002d4:	00269703          	lh	a4,2(a3)
800002d8:	00070313          	mv	t1,a4
800002dc:	000013b7          	lui	t2,0x1
800002e0:	ff038393          	addi	t2,t2,-16 # ff0 <__stack_size+0x7f0>
800002e4:	14731263          	bne	t1,t2,80000428 <fail>
800002e8:	00120213          	addi	tp,tp,1 # 1 <__heap_size-0x1ff>
800002ec:	00200293          	li	t0,2
800002f0:	fc521ee3          	bne	tp,t0,800002cc <test_12+0x8>
800002f4:	00d00193          	li	gp,13
800002f8:	00000213          	li	tp,0
800002fc:	20000697          	auipc	a3,0x20000
80000300:	d0868693          	addi	a3,a3,-760 # a0000004 <tdat3>
80000304:	00269703          	lh	a4,2(a3)
80000308:	00000013          	nop
8000030c:	00070313          	mv	t1,a4
80000310:	fffff3b7          	lui	t2,0xfffff
80000314:	00f38393          	addi	t2,t2,15 # fffff00f <_end+0x5fffe587>
80000318:	10731863          	bne	t1,t2,80000428 <fail>
8000031c:	00120213          	addi	tp,tp,1 # 1 <__heap_size-0x1ff>
80000320:	00200293          	li	t0,2
80000324:	fc521ce3          	bne	tp,t0,800002fc <test_13+0x8>
80000328:	00e00193          	li	gp,14
8000032c:	00000213          	li	tp,0
80000330:	20000697          	auipc	a3,0x20000
80000334:	cd068693          	addi	a3,a3,-816 # a0000000 <begin_signature>
80000338:	00269703          	lh	a4,2(a3)
8000033c:	00000013          	nop
80000340:	00000013          	nop
80000344:	00070313          	mv	t1,a4
80000348:	f0000393          	li	t2,-256
8000034c:	0c731e63          	bne	t1,t2,80000428 <fail>
80000350:	00120213          	addi	tp,tp,1 # 1 <__heap_size-0x1ff>
80000354:	00200293          	li	t0,2
80000358:	fc521ce3          	bne	tp,t0,80000330 <test_14+0x8>
8000035c:	00f00193          	li	gp,15
80000360:	00000213          	li	tp,0
80000364:	20000697          	auipc	a3,0x20000
80000368:	c9e68693          	addi	a3,a3,-866 # a0000002 <tdat2>
8000036c:	00269703          	lh	a4,2(a3)
80000370:	000013b7          	lui	t2,0x1
80000374:	ff038393          	addi	t2,t2,-16 # ff0 <__stack_size+0x7f0>
80000378:	0a771863          	bne	a4,t2,80000428 <fail>
8000037c:	00120213          	addi	tp,tp,1 # 1 <__heap_size-0x1ff>
80000380:	00200293          	li	t0,2
80000384:	fe5210e3          	bne	tp,t0,80000364 <test_15+0x8>
80000388:	01000193          	li	gp,16
8000038c:	00000213          	li	tp,0
80000390:	20000697          	auipc	a3,0x20000
80000394:	c7468693          	addi	a3,a3,-908 # a0000004 <tdat3>
80000398:	00000013          	nop
8000039c:	00269703          	lh	a4,2(a3)
800003a0:	fffff3b7          	lui	t2,0xfffff
800003a4:	00f38393          	addi	t2,t2,15 # fffff00f <_end+0x5fffe587>
800003a8:	08771063          	bne	a4,t2,80000428 <fail>
800003ac:	00120213          	addi	tp,tp,1 # 1 <__heap_size-0x1ff>
800003b0:	00200293          	li	t0,2
800003b4:	fc521ee3          	bne	tp,t0,80000390 <test_16+0x8>
800003b8:	01100193          	li	gp,17
800003bc:	00000213          	li	tp,0
800003c0:	20000697          	auipc	a3,0x20000
800003c4:	c4068693          	addi	a3,a3,-960 # a0000000 <begin_signature>
800003c8:	00000013          	nop
800003cc:	00000013          	nop
800003d0:	00269703          	lh	a4,2(a3)
800003d4:	f0000393          	li	t2,-256
800003d8:	04771863          	bne	a4,t2,80000428 <fail>
800003dc:	00120213          	addi	tp,tp,1 # 1 <__heap_size-0x1ff>
800003e0:	00200293          	li	t0,2
800003e4:	fc521ee3          	bne	tp,t0,800003c0 <test_17+0x8>
800003e8:	01200193          	li	gp,18
800003ec:	20000297          	auipc	t0,0x20000
800003f0:	c1428293          	addi	t0,t0,-1004 # a0000000 <begin_signature>
800003f4:	00029103          	lh	sp,0(t0)
800003f8:	00200113          	li	sp,2
800003fc:	00200393          	li	t2,2
80000400:	02711463          	bne	sp,t2,80000428 <fail>
80000404:	01300193          	li	gp,19
80000408:	20000297          	auipc	t0,0x20000
8000040c:	bf828293          	addi	t0,t0,-1032 # a0000000 <begin_signature>
80000410:	00029103          	lh	sp,0(t0)
80000414:	00000013          	nop
80000418:	00200113          	li	sp,2
8000041c:	00200393          	li	t2,2
80000420:	00711463          	bne	sp,t2,80000428 <fail>
80000424:	02301063          	bne	zero,gp,80000444 <pass>
80000428:	0ff0000f          	fence
8000042c:	00018063          	beqz	gp,8000042c <fail+0x4>
80000430:	00119193          	slli	gp,gp,0x1
80000434:	0011e193          	ori	gp,gp,1
80000438:	05d00893          	li	a7,93
8000043c:	00018513          	mv	a0,gp
80000440:	00000073          	ecall
80000444:	0ff0000f          	fence
80000448:	00100193          	li	gp,1
8000044c:	05d00893          	li	a7,93
80000450:	00000513          	li	a0,0
80000454:	00000073          	ecall
80000458:	c0001073          	unimp
8000045c:	0000                	.insn	2, 0x
8000045e:	0000                	.insn	2, 0x
80000460:	0000                	.insn	2, 0x
80000462:	0000                	.insn	2, 0x
80000464:	0000                	.insn	2, 0x
80000466:	0000                	.insn	2, 0x
80000468:	0000                	.insn	2, 0x
8000046a:	0000                	.insn	2, 0x
8000046c:	0000                	.insn	2, 0x
8000046e:	0000                	.insn	2, 0x
80000470:	0000                	.insn	2, 0x
80000472:	0000                	.insn	2, 0x
80000474:	0000                	.insn	2, 0x
80000476:	0000                	.insn	2, 0x
80000478:	0000                	.insn	2, 0x
8000047a:	0000                	.insn	2, 0x
a0000000:	00ff    	.insn	10, 0xf00f0ff0ff0000ff
a0000002:	ff00                	.insn	2, 0xff00
a0000004:	0ff0                	.insn	2, 0x0ff0
a0000006:	0000f00f          	.insn	4, 0xf00f
a000000a:	0000                	.insn	2, 0x
a000000c:	0000                	.insn	2, 0x
a000000e:	0000                	.insn	2, 0x
80000000:	0500006f          	j	80000050 <reset_vector>
80000004:	34202f73          	csrr	t5,mcause
80000008:	00800f93          	li	t6,8
8000000c:	03ff0863          	beq	t5,t6,8000003c <write_tohost>
80000010:	00900f93          	li	t6,9
80000014:	03ff0463          	beq	t5,t6,8000003c <write_tohost>
80000018:	00b00f93          	li	t6,11
8000001c:	03ff0063          	beq	t5,t6,8000003c <write_tohost>
80000020:	00000f13          	li	t5,0
80000024:	000f0463          	beqz	t5,8000002c <trap_vector+0x28>
80000028:	000f0067          	jr	t5
8000002c:	34202f73          	csrr	t5,mcause
80000030:	000f5463          	bgez	t5,80000038 <handle_exception>
80000034:	0040006f          	j	80000038 <handle_exception>
80000038:	5391e193          	ori	gp,gp,1337
8000003c:	20000f17          	auipc	t5,0x20000
80000040:	fc3f2223          	sw	gp,-60(t5) # a0000000 <tohost>
80000044:	20000f17          	auipc	t5,0x20000
80000048:	fc0f2023          	sw	zero,-64(t5) # a0000004 <tohost+0x4>
8000004c:	ff1ff06f          	j	8000003c <write_tohost>
80000050:	00000093          	li	ra,0
80000054:	00000113          	li	sp,0
80000058:	00000193          	li	gp,0
8000005c:	00000213          	li	tp,0
80000060:	00000293          	li	t0,0
80000064:	00000313          	li	t1,0
80000068:	00000393          	li	t2,0
8000006c:	00000413          	li	s0,0
80000070:	00000493          	li	s1,0
80000074:	00000513          	li	a0,0
80000078:	00000593          	li	a1,0
8000007c:	00000613          	li	a2,0
80000080:	00000693          	li	a3,0
80000084:	00000713          	li	a4,0
80000088:	00000793          	li	a5,0
8000008c:	00000813          	li	a6,0
80000090:	00000893          	li	a7,0
80000094:	00000913          	li	s2,0
80000098:	00000993          	li	s3,0
8000009c:	00000a13          	li	s4,0
800000a0:	00000a93          	li	s5,0
800000a4:	00000b13          	li	s6,0
800000a8:	00000b93          	li	s7,0
800000ac:	00000c13          	li	s8,0
800000b0:	00000c93          	li	s9,0
800000b4:	00000d13          	li	s10,0
800000b8:	00000d93          	li	s11,0
800000bc:	00000e13          	li	t3,0
800000c0:	00000e93          	li	t4,0
800000c4:	00000f13          	li	t5,0
800000c8:	00000f93          	li	t6,0
800000cc:	f1402573          	csrr	a0,mhartid
800000d0:	00051063          	bnez	a0,800000d0 <reset_vector+0x80>
800000d4:	00000297          	auipc	t0,0x0
800000d8:	01028293          	addi	t0,t0,16 # 800000e4 <reset_vector+0x94>
800000dc:	30529073          	csrw	mtvec,t0
800000e0:	74445073          	csrwi	0x744,8
800000e4:	00000297          	auipc	t0,0x0
800000e8:	01028293          	addi	t0,t0,16 # 800000f4 <reset_vector+0xa4>
800000ec:	30529073          	csrw	mtvec,t0
800000f0:	18005073          	csrwi	satp,0
800000f4:	00000297          	auipc	t0,0x0
800000f8:	02028293          	addi	t0,t0,32 # 80000114 <reset_vector+0xc4>
800000fc:	30529073          	csrw	mtvec,t0
80000100:	800002b7          	lui	t0,0x80000
80000104:	fff28293          	addi	t0,t0,-1 # 7fffffff <__stack_size+0x7ffff7ff>
80000108:	3b029073          	csrw	pmpaddr0,t0
8000010c:	01f00293          	li	t0,31
80000110:	3a029073          	csrw	pmpcfg0,t0
80000114:	30405073          	csrwi	mie,0
80000118:	00000297          	auipc	t0,0x0
8000011c:	01428293          	addi	t0,t0,20 # 8000012c <reset_vector+0xdc>
80000120:	30529073          	csrw	mtvec,t0
80000124:	30205073          	csrwi	medeleg,0
80000128:	30305073          	csrwi	mideleg,0
8000012c:	00000193          	li	gp,0
80000130:	00000297          	auipc	t0,0x0
80000134:	ed428293          	addi	t0,t0,-300 # 80000004 <trap_vector>
80000138:	30529073          	csrw	mtvec,t0
8000013c:	00100513          	li	a0,1
80000140:	01f51513          	slli	a0,a0,0x1f
80000144:	00054c63          	bltz	a0,8000015c <reset_vector+0x10c>
80000148:	0ff0000f          	fence
8000014c:	00100193          	li	gp,1
80000150:	05d00893          	li	a7,93
80000154:	00000513          	li	a0,0
80000158:	00000073          	ecall
8000015c:	00000293          	li	t0,0
80000160:	00028a63          	beqz	t0,80000174 <reset_vector+0x124>
80000164:	10529073          	csrw	stvec,t0
80000168:	0000b2b7          	lui	t0,0xb
8000016c:	10928293          	addi	t0,t0,265 # b109 <__stack_size+0xa909>
80000170:	30229073          	csrw	medeleg,t0
80000174:	30005073          	csrwi	mstatus,0
80000178:	00000297          	auipc	t0,0x0
8000017c:	01428293          	addi	t0,t0,20 # 8000018c <test_2>
80000180:	34129073          	csrw	mepc,t0
80000184:	f1402573          	csrr	a0,mhartid
80000188:	30200073          	mret
8000018c:	00200193          	li	gp,2
80000190:	00000093          	li	ra,0
80000194:	00000113          	li	sp,0
80000198:	00208663          	beq	ra,sp,800001a4 <test_2+0x18>
8000019c:	2a301863          	bne	zero,gp,8000044c <fail>
800001a0:	00301663          	bne	zero,gp,800001ac <test_3>
800001a4:	fe208ee3          	beq	ra,sp,800001a0 <test_2+0x14>
800001a8:	2a301263          	bne	zero,gp,8000044c <fail>
800001ac:	00300193          	li	gp,3
800001b0:	00100093          	li	ra,1
800001b4:	00100113          	li	sp,1
800001b8:	00208663          	beq	ra,sp,800001c4 <test_3+0x18>
800001bc:	28301863          	bne	zero,gp,8000044c <fail>
800001c0:	00301663          	bne	zero,gp,800001cc <test_4>
800001c4:	fe208ee3          	beq	ra,sp,800001c0 <test_3+0x14>
800001c8:	28301263          	bne	zero,gp,8000044c <fail>
800001cc:	00400193          	li	gp,4
800001d0:	fff00093          	li	ra,-1
800001d4:	fff00113          	li	sp,-1
800001d8:	00208663          	beq	ra,sp,800001e4 <test_4+0x18>
800001dc:	26301863          	bne	zero,gp,8000044c <fail>
800001e0:	00301663          	bne	zero,gp,800001ec <test_5>
800001e4:	fe208ee3          	beq	ra,sp,800001e0 <test_4+0x14>
800001e8:	26301263          	bne	zero,gp,8000044c <fail>
800001ec:	00500193          	li	gp,5
800001f0:	00000093          	li	ra,0
800001f4:	00100113          	li	sp,1
800001f8:	00208463          	beq	ra,sp,80000200 <test_5+0x14>
800001fc:	00301463          	bne	zero,gp,80000204 <test_5+0x18>
80000200:	24301663          	bne	zero,gp,8000044c <fail>
80000204:	fe208ee3          	beq	ra,sp,80000200 <test_5+0x14>
80000208:	00600193          	li	gp,6
8000020c:	00100093          	li	ra,1
80000210:	00000113          	li	sp,0
80000214:	00208463          	beq	ra,sp,8000021c <test_6+0x14>
80000218:	00301463          	bne	zero,gp,80000220 <test_6+0x18>
8000021c:	22301863          	bne	zero,gp,8000044c <fail>
80000220:	fe208ee3          	beq	ra,sp,8000021c <test_6+0x14>
80000224:	00700193          	li	gp,7
80000228:	fff00093          	li	ra,-1
8000022c:	00100113          	li	sp,1
80000230:	00208463          	beq	ra,sp,80000238 <test_7+0x14>
80000234:	00301463          	bne	zero,gp,8000023c <test_7+0x18>
80000238:	20301a63          	bne	zero,gp,8000044c <fail>
8000023c:	fe208ee3          	beq	ra,sp,80000238 <test_7+0x14>
80000240:	00800193          	li	gp,8
80000244:	00100093          	li	ra,1
80000248:	fff00113          	li	sp,-1
8000024c:	00208463          	beq	ra,sp,80000254 <test_8+0x14>
80000250:	00301463          	bne	zero,gp,80000258 <test_8+0x18>
80000254:	1e301c63          	bne	zero,gp,8000044c <fail>
80000258:	fe208ee3          	beq	ra,sp,80000254 <test_8+0x14>
8000025c:	00900193          	li	gp,9
80000260:	00000213          	li	tp,0
80000264:	00000093          	li	ra,0
80000268:	fff00113          	li	sp,-1
8000026c:	1e208063          	beq	ra,sp,8000044c <fail>
80000270:	00120213          	addi	tp,tp,1 # 1 <__heap_size-0x1ff>
80000274:	00200293          	li	t0,2
80000278:	fe5216e3          	bne	tp,t0,80000264 <test_9+0x8>
8000027c:	00a00193          	li	gp,10
80000280:	00000213          	li	tp,0
80000284:	00000093          	li	ra,0
80000288:	fff00113          	li	sp,-1
8000028c:	00000013          	nop
80000290:	1a208e63          	beq	ra,sp,8000044c <fail>
80000294:	00120213          	addi	tp,tp,1 # 1 <__heap_size-0x1ff>
80000298:	00200293          	li	t0,2
8000029c:	fe5214e3          	bne	tp,t0,80000284 <test_10+0x8>
800002a0:	00b00193          	li	gp,11
800002a4:	00000213          	li	tp,0
800002a8:	00000093          	li	ra,0
800002ac:	fff00113          	li	sp,-1
800002b0:	00000013          	nop
800002b4:	00000013          	nop
800002b8:	18208a63          	beq	ra,sp,8000044c <fail>
800002bc:	00120213          	addi	tp,tp,1 # 1 <__heap_size-0x1ff>
800002c0:	00200293          	li	t0,2
800002c4:	fe5212e3          	bne	tp,t0,800002a8 <test_11+0x8>
800002c8:	00c00193          	li	gp,12
800002cc:	00000213          	li	tp,0
800002d0:	00000093          	li	ra,0
800002d4:	00000013          	nop
800002d8:	fff00113          	li	sp,-1
800002dc:	16208863          	beq	ra,sp,8000044c <fail>
800002e0:	00120213          	addi	tp,tp,1 # 1 <__heap_size-0x1ff>
800002e4:	00200293          	li	t0,2
800002e8:	fe5214e3          	bne	tp,t0,800002d0 <test_12+0x8>
800002ec:	00d00193          	li	gp,13
800002f0:	00000213          	li	tp,0
800002f4:	00000093          	li	ra,0
800002f8:	00000013          	nop
800002fc:	fff00113          	li	sp,-1
80000300:	00000013          	nop
80000304:	14208463          	beq	ra,sp,8000044c <fail>
80000308:	00120213          	addi	tp,tp,1 # 1 <__heap_size-0x1ff>
8000030c:	00200293          	li	t0,2
80000310:	fe5212e3          	bne	tp,t0,800002f4 <test_13+0x8>
80000314:	00e00193          	li	gp,14
80000318:	00000213          	li	tp,0
8000031c:	00000093          	li	ra,0
80000320:	00000013          	nop
80000324:	00000013          	nop
80000328:	fff00113          	li	sp,-1
8000032c:	12208063          	beq	ra,sp,8000044c <fail>
80000330:	00120213          	addi	tp,tp,1 # 1 <__heap_size-0x1ff>
80000334:	00200293          	li	t0,2
80000338:	fe5212e3          	bne	tp,t0,8000031c <test_14+0x8>
8000033c:	00f00193          	li	gp,15
80000340:	00000213          	li	tp,0
80000344:	00000093          	li	ra,0
80000348:	fff00113          	li	sp,-1
8000034c:	10208063          	beq	ra,sp,8000044c <fail>
80000350:	00120213          	addi	tp,tp,1 # 1 <__heap_size-0x1ff>
80000354:	00200293          	li	t0,2
80000358:	fe5216e3          	bne	tp,t0,80000344 <test_15+0x8>
8000035c:	01000193          	li	gp,16
80000360:	00000213          	li	tp,0
80000364:	00000093          	li	ra,0
80000368:	fff00113          	li	sp,-1
8000036c:	00000013          	nop
80000370:	0c208e63          	beq	ra,sp,8000044c <fail>
80000374:	00120213          	addi	tp,tp,1 # 1 <__heap_size-0x1ff>
80000378:	00200293          	li	t0,2
8000037c:	fe5214e3          	bne	tp,t0,80000364 <test_16+0x8>
80000380:	01100193          	li	gp,17
80000384:	00000213          	li	tp,0
80000388:	00000093          	li	ra,0
8000038c:	fff00113          	li	sp,-1
80000390:	00000013          	nop
80000394:	00000013          	nop
80000398:	0a208a63          	beq	ra,sp,8000044c <fail>
8000039c:	00120213          	addi	tp,tp,1 # 1 <__heap_size-0x1ff>
800003a0:	00200293          	li	t0,2
800003a4:	fe5212e3          	bne	tp,t0,80000388 <test_17+0x8>
800003a8:	01200193          	li	gp,18
800003ac:	00000213          	li	tp,0
800003b0:	00000093          	li	ra,0
800003b4:	00000013          	nop
800003b8:	fff00113          	li	sp,-1
800003bc:	08208863          	beq	ra,sp,8000044c <fail>
800003c0:	00120213          	addi	tp,tp,1 # 1 <__heap_size-0x1ff>
800003c4:	00200293          	li	t0,2
800003c8:	fe5214e3          	bne	tp,t0,800003b0 <test_18+0x8>
800003cc:	01300193          	li	gp,19
800003d0:	00000213          	li	tp,0
800003d4:	00000093          	li	ra,0
800003d8:	00000013          	nop
800003dc:	fff00113          	li	sp,-1
800003e0:	00000013          	nop
800003e4:	06208463          	beq	ra,sp,8000044c <fail>
800003e8:	00120213          	addi	tp,tp,1 # 1 <__heap_size-0x1ff>
800003ec:	00200293          	li	t0,2
800003f0:	fe5212e3          	bne	tp,t0,800003d4 <test_19+0x8>
800003f4:	01400193          	li	gp,20
800003f8:	00000213          	li	tp,0
800003fc:	00000093          	li	ra,0
80000400:	00000013          	nop
80000404:	00000013          	nop
80000408:	fff00113          	li	sp,-1
8000040c:	04208063          	beq	ra,sp,8000044c <fail>
80000410:	00120213          	addi	tp,tp,1 # 1 <__heap_size-0x1ff>
80000414:	00200293          	li	t0,2
80000418:	fe5212e3          	bne	tp,t0,800003fc <test_20+0x8>
8000041c:	01500193          	li	gp,21
80000420:	00100093          	li	ra,1
80000424:	00000a63          	beqz	zero,80000438 <test_21+0x1c>
80000428:	00108093          	addi	ra,ra,1
8000042c:	00108093          	addi	ra,ra,1
80000430:	00108093          	addi	ra,ra,1
80000434:	00108093          	addi	ra,ra,1
80000438:	00108093          	addi	ra,ra,1
8000043c:	00108093          	addi	ra,ra,1
80000440:	00300393          	li	t2,3
80000444:	00709463          	bne	ra,t2,8000044c <fail>
80000448:	02301063          	bne	zero,gp,80000468 <pass>
8000044c:	0ff0000f          	fence
80000450:	00018063          	beqz	gp,80000450 <fail+0x4>
80000454:	00119193          	slli	gp,gp,0x1
80000458:	0011e193          	ori	gp,gp,1
8000045c:	05d00893          	li	a7,93
80000460:	00018513          	mv	a0,gp
80000464:	00000073          	ecall
80000468:	0ff0000f          	fence
8000046c:	00100193          	li	gp,1
80000470:	05d00893          	li	a7,93
80000474:	00000513          	li	a0,0
80000478:	00000073          	ecall
8000047c:	c0001073          	unimp
80000480:	0000                	.insn	2, 0x
80000482:	0000                	.insn	2, 0x
80000484:	0000                	.insn	2, 0x
80000486:	0000                	.insn	2, 0x
80000488:	0000                	.insn	2, 0x
8000048a:	0000                	.insn	2, 0x
8000048c:	0000                	.insn	2, 0x
8000048e:	0000                	.insn	2, 0x
80000490:	0000                	.insn	2, 0x
80000492:	0000                	.insn	2, 0x
80000494:	0000                	.insn	2, 0x
80000496:	0000                	.insn	2, 0x
80000498:	0000                	.insn	2, 0x
8000049a:	0000                	.insn	2, 0x
8000049c:	0000                	.insn	2, 0x
8000049e:	0000                	.insn	2, 0x
800004a0:	0000                	.insn	2, 0x
800004a2:	0000                	.insn	2, 0x
800004a4:	0000                	.insn	2, 0x
800004a6:	0000                	.insn	2, 0x
800004a8:	0000                	.insn	2, 0x
800004aa:	0000                	.insn	2, 0x
800004ac:	0000                	.insn	2, 0x
800004ae:	0000                	.insn	2, 0x
800004b0:	0000                	.insn	2, 0x
800004b2:	0000                	.insn	2, 0x
800004b4:	0000                	.insn	2, 0x
800004b6:	0000                	.insn	2, 0x
800004b8:	0000                	.insn	2, 0x
800004ba:	0000                	.insn	2, 0x
80000000:	0500006f          	j	80000050 <reset_vector>
80000004:	34202f73          	csrr	t5,mcause
80000008:	00800f93          	li	t6,8
8000000c:	03ff0863          	beq	t5,t6,8000003c <write_tohost>
80000010:	00900f93          	li	t6,9
80000014:	03ff0463          	beq	t5,t6,8000003c <write_tohost>
80000018:	00b00f93          	li	t6,11
8000001c:	03ff0063          	beq	t5,t6,8000003c <write_tohost>
80000020:	00000f13          	li	t5,0
80000024:	000f0463          	beqz	t5,8000002c <trap_vector+0x28>
80000028:	000f0067          	jr	t5
8000002c:	34202f73          	csrr	t5,mcause
80000030:	000f5463          	bgez	t5,80000038 <handle_exception>
80000034:	0040006f          	j	80000038 <handle_exception>
80000038:	5391e193          	ori	gp,gp,1337
8000003c:	20000f17          	auipc	t5,0x20000
80000040:	143f2223          	sw	gp,324(t5) # a0000180 <tohost>
80000044:	20000f17          	auipc	t5,0x20000
80000048:	140f2023          	sw	zero,320(t5) # a0000184 <tohost+0x4>
8000004c:	ff1ff06f          	j	8000003c <write_tohost>
80000050:	00000093          	li	ra,0
80000054:	00000113          	li	sp,0
80000058:	00000193          	li	gp,0
8000005c:	00000213          	li	tp,0
80000060:	00000293          	li	t0,0
80000064:	00000313          	li	t1,0
80000068:	00000393          	li	t2,0
8000006c:	00000413          	li	s0,0
80000070:	00000493          	li	s1,0
80000074:	00000513          	li	a0,0
80000078:	00000593          	li	a1,0
8000007c:	00000613          	li	a2,0
80000080:	00000693          	li	a3,0
80000084:	00000713          	li	a4,0
80000088:	00000793          	li	a5,0
8000008c:	00000813          	li	a6,0
80000090:	00000893          	li	a7,0
80000094:	00000913          	li	s2,0
80000098:	00000993          	li	s3,0
8000009c:	00000a13          	li	s4,0
800000a0:	00000a93          	li	s5,0
800000a4:	00000b13          	li	s6,0
800000a8:	00000b93          	li	s7,0
800000ac:	00000c13          	li	s8,0
800000b0:	00000c93          	li	s9,0
800000b4:	00000d13          	li	s10,0
800000b8:	00000d93          	li	s11,0
800000bc:	00000e13          	li	t3,0
800000c0:	00000e93          	li	t4,0
800000c4:	00000f13          	li	t5,0
800000c8:	00000f93          	li	t6,0
800000cc:	f1402573          	csrr	a0,mhartid
800000d0:	00051063          	bnez	a0,800000d0 <reset_vector+0x80>
800000d4:	00000297          	auipc	t0,0x0
800000d8:	01028293          	addi	t0,t0,16 # 800000e4 <reset_vector+0x94>
800000dc:	30529073          	csrw	mtvec,t0
800000e0:	74445073          	csrwi	0x744,8
800000e4:	00000297          	auipc	t0,0x0
800000e8:	01028293          	addi	t0,t0,16 # 800000f4 <reset_vector+0xa4>
800000ec:	30529073          	csrw	mtvec,t0
800000f0:	18005073          	csrwi	satp,0
800000f4:	00000297          	auipc	t0,0x0
800000f8:	02028293          	addi	t0,t0,32 # 80000114 <reset_vector+0xc4>
800000fc:	30529073          	csrw	mtvec,t0
80000100:	800002b7          	lui	t0,0x80000
80000104:	fff28293          	addi	t0,t0,-1 # 7fffffff <__stack_size+0x7ffff7ff>
80000108:	3b029073          	csrw	pmpaddr0,t0
8000010c:	01f00293          	li	t0,31
80000110:	3a029073          	csrw	pmpcfg0,t0
80000114:	30405073          	csrwi	mie,0
80000118:	00000297          	auipc	t0,0x0
8000011c:	01428293          	addi	t0,t0,20 # 8000012c <reset_vector+0xdc>
80000120:	30529073          	csrw	mtvec,t0
80000124:	30205073          	csrwi	medeleg,0
80000128:	30305073          	csrwi	mideleg,0
8000012c:	00000193          	li	gp,0
80000130:	00000297          	auipc	t0,0x0
80000134:	ed428293          	addi	t0,t0,-300 # 80000004 <trap_vector>
80000138:	30529073          	csrw	mtvec,t0
8000013c:	00100513          	li	a0,1
80000140:	01f51513          	slli	a0,a0,0x1f
80000144:	00054c63          	bltz	a0,8000015c <reset_vector+0x10c>
80000148:	0ff0000f          	fence
8000014c:	00100193          	li	gp,1
80000150:	05d00893          	li	a7,93
80000154:	00000513          	li	a0,0
80000158:	00000073          	ecall
8000015c:	00000293          	li	t0,0
80000160:	00028a63          	beqz	t0,80000174 <reset_vector+0x124>
80000164:	10529073          	csrw	stvec,t0
80000168:	0000b2b7          	lui	t0,0xb
8000016c:	10928293          	addi	t0,t0,265 # b109 <__stack_size+0xa909>
80000170:	30229073          	csrw	medeleg,t0
80000174:	30005073          	csrwi	mstatus,0
80000178:	00000297          	auipc	t0,0x0
8000017c:	01428293          	addi	t0,t0,20 # 8000018c <reset_vector+0x13c>
80000180:	34129073          	csrw	mepc,t0
80000184:	f1402573          	csrr	a0,mhartid
80000188:	30200073          	mret
8000018c:	20000417          	auipc	s0,0x20000
80000190:	e7440413          	addi	s0,s0,-396 # a0000000 <begin_signature>
80000194:	00100193          	li	gp,1
80000198:	20100313          	li	t1,513
8000019c:	00141383          	lh	t2,1(s0)
800001a0:	52731c63          	bne	t1,t2,800006d8 <fail>
800001a4:	00200193          	li	gp,2
800001a8:	20100313          	li	t1,513
800001ac:	00145383          	lhu	t2,1(s0)
800001b0:	52731463          	bne	t1,t2,800006d8 <fail>
800001b4:	00300193          	li	gp,3
800001b8:	04030337          	lui	t1,0x4030
800001bc:	20130313          	addi	t1,t1,513 # 4030201 <__stack_size+0x402fa01>
800001c0:	00142383          	lw	t2,1(s0)
800001c4:	50731a63          	bne	t1,t2,800006d8 <fail>
800001c8:	00400193          	li	gp,4
800001cc:	05040337          	lui	t1,0x5040
800001d0:	30230313          	addi	t1,t1,770 # 5040302 <__stack_size+0x503fb02>
800001d4:	00242383          	lw	t2,2(s0)
800001d8:	50731063          	bne	t1,t2,800006d8 <fail>
800001dc:	00500193          	li	gp,5
800001e0:	06050337          	lui	t1,0x6050
800001e4:	40330313          	addi	t1,t1,1027 # 6050403 <__stack_size+0x604fc03>
800001e8:	00342383          	lw	t2,3(s0)
800001ec:	4e731663          	bne	t1,t2,800006d8 <fail>
800001f0:	01000193          	li	gp,16
800001f4:	00002337          	lui	t1,0x2
800001f8:	01f30313          	addi	t1,t1,31 # 201f <__stack_size+0x181f>
800001fc:	01f41383          	lh	t2,31(s0)
80000200:	4c731c63          	bne	t1,t2,800006d8 <fail>
80000204:	01100193          	li	gp,17
80000208:	00002337          	lui	t1,0x2
8000020c:	01f30313          	addi	t1,t1,31 # 201f <__stack_size+0x181f>
80000210:	01f45383          	lhu	t2,31(s0)
80000214:	4c731263          	bne	t1,t2,800006d8 <fail>
80000218:	01200193          	li	gp,18
8000021c:	201f2337          	lui	t1,0x201f2
80000220:	e1d30313          	addi	t1,t1,-483 # 201f1e1d <__stack_size+0x201f161d>
80000224:	01d42383          	lw	t2,29(s0)
80000228:	4a731863          	bne	t1,t2,800006d8 <fail>
8000022c:	01300193          	li	gp,19
80000230:	21202337          	lui	t1,0x21202
80000234:	f1e30313          	addi	t1,t1,-226 # 21201f1e <__stack_size+0x2120171e>
80000238:	01e42383          	lw	t2,30(s0)
8000023c:	48731e63          	bne	t1,t2,800006d8 <fail>
80000240:	01400193          	li	gp,20
80000244:	22212337          	lui	t1,0x22212
80000248:	01f30313          	addi	t1,t1,31 # 2221201f <__stack_size+0x2221181f>
8000024c:	01f42383          	lw	t2,31(s0)
80000250:	48731463          	bne	t1,t2,800006d8 <fail>
80000254:	01f00193          	li	gp,31
80000258:	00004337          	lui	t1,0x4
8000025c:	03f30313          	addi	t1,t1,63 # 403f <__stack_size+0x383f>
80000260:	03f41383          	lh	t2,63(s0)
80000264:	46731a63          	bne	t1,t2,800006d8 <fail>
80000268:	02000193          	li	gp,32
8000026c:	00004337          	lui	t1,0x4
80000270:	03f30313          	addi	t1,t1,63 # 403f <__stack_size+0x383f>
80000274:	03f45383          	lhu	t2,63(s0)
80000278:	46731063          	bne	t1,t2,800006d8 <fail>
8000027c:	02100193          	li	gp,33
80000280:	403f4337          	lui	t1,0x403f4
80000284:	e3d30313          	addi	t1,t1,-451 # 403f3e3d <__stack_size+0x403f363d>
80000288:	03d42383          	lw	t2,61(s0)
8000028c:	44731663          	bne	t1,t2,800006d8 <fail>
80000290:	02200193          	li	gp,34
80000294:	41404337          	lui	t1,0x41404
80000298:	f3e30313          	addi	t1,t1,-194 # 41403f3e <__stack_size+0x4140373e>
8000029c:	03e42383          	lw	t2,62(s0)
800002a0:	42731c63          	bne	t1,t2,800006d8 <fail>
800002a4:	02300193          	li	gp,35
800002a8:	42414337          	lui	t1,0x42414
800002ac:	03f30313          	addi	t1,t1,63 # 4241403f <__stack_size+0x4241383f>
800002b0:	03f42383          	lw	t2,63(s0)
800002b4:	42731263          	bne	t1,t2,800006d8 <fail>
800002b8:	02e00193          	li	gp,46
800002bc:	ffff8337          	lui	t1,0xffff8
800002c0:	18030313          	addi	t1,t1,384 # ffff8180 <_end+0x5fff75b8>
800002c4:	006410a3          	sh	t1,1(s0)
800002c8:	00141383          	lh	t2,1(s0)
800002cc:	40731663          	bne	t1,t2,800006d8 <fail>
800002d0:	02f00193          	li	gp,47
800002d4:	00008337          	lui	t1,0x8
800002d8:	38230313          	addi	t1,t1,898 # 8382 <__stack_size+0x7b82>
800002dc:	006410a3          	sh	t1,1(s0)
800002e0:	00145383          	lhu	t2,1(s0)
800002e4:	3e731a63          	bne	t1,t2,800006d8 <fail>
800002e8:	03000193          	li	gp,48
800002ec:	87868337          	lui	t1,0x87868
800002f0:	58430313          	addi	t1,t1,1412 # 87868584 <pass+0x7867e90>
800002f4:	006420a3          	sw	t1,1(s0)
800002f8:	00142383          	lw	t2,1(s0)
800002fc:	3c731e63          	bne	t1,t2,800006d8 <fail>
80000300:	03100193          	li	gp,49
80000304:	8b8a9337          	lui	t1,0x8b8a9
80000308:	98830313          	addi	t1,t1,-1656 # 8b8a8988 <pass+0xb8a8294>
8000030c:	00642123          	sw	t1,2(s0)
80000310:	00242383          	lw	t2,2(s0)
80000314:	3c731263          	bne	t1,t2,800006d8 <fail>
80000318:	03200193          	li	gp,50
8000031c:	8f8e9337          	lui	t1,0x8f8e9
80000320:	d8c30313          	addi	t1,t1,-628 # 8f8e8d8c <pass+0xf8e8698>
80000324:	006421a3          	sw	t1,3(s0)
80000328:	00342383          	lw	t2,3(s0)
8000032c:	3a731663          	bne	t1,t2,800006d8 <fail>
80000330:	03d00193          	li	gp,61
80000334:	ffffd337          	lui	t1,0xffffd
80000338:	5d430313          	addi	t1,t1,1492 # ffffd5d4 <_end+0x5fffca0c>
8000033c:	00641fa3          	sh	t1,31(s0)
80000340:	01f41383          	lh	t2,31(s0)
80000344:	38731a63          	bne	t1,t2,800006d8 <fail>
80000348:	03e00193          	li	gp,62
8000034c:	0000d337          	lui	t1,0xd
80000350:	7d630313          	addi	t1,t1,2006 # d7d6 <__stack_size+0xcfd6>
80000354:	00641fa3          	sh	t1,31(s0)
80000358:	01f45383          	lhu	t2,31(s0)
8000035c:	36731e63          	bne	t1,t2,800006d8 <fail>
80000360:	03f00193          	li	gp,63
80000364:	dbdae337          	lui	t1,0xdbdae
80000368:	9d830313          	addi	t1,t1,-1576 # dbdad9d8 <_end+0x3bdace10>
8000036c:	00642ea3          	sw	t1,29(s0)
80000370:	01d42383          	lw	t2,29(s0)
80000374:	36731263          	bne	t1,t2,800006d8 <fail>
80000378:	04000193          	li	gp,64
8000037c:	dfdee337          	lui	t1,0xdfdee
80000380:	ddc30313          	addi	t1,t1,-548 # dfdedddc <_end+0x3fded214>
80000384:	00642f23          	sw	t1,30(s0)
80000388:	01e42383          	lw	t2,30(s0)
8000038c:	34731663          	bne	t1,t2,800006d8 <fail>
80000390:	04100193          	li	gp,65
80000394:	e3e2e337          	lui	t1,0xe3e2e
80000398:	1e030313          	addi	t1,t1,480 # e3e2e1e0 <_end+0x43e2d618>
8000039c:	00642fa3          	sw	t1,31(s0)
800003a0:	01f42383          	lw	t2,31(s0)
800003a4:	32731a63          	bne	t1,t2,800006d8 <fail>
800003a8:	04c00193          	li	gp,76
800003ac:	00003337          	lui	t1,0x3
800003b0:	53430313          	addi	t1,t1,1332 # 3534 <__stack_size+0x2d34>
800003b4:	02641fa3          	sh	t1,63(s0)
800003b8:	03f41383          	lh	t2,63(s0)
800003bc:	30731e63          	bne	t1,t2,800006d8 <fail>
800003c0:	04d00193          	li	gp,77
800003c4:	00003337          	lui	t1,0x3
800003c8:	73630313          	addi	t1,t1,1846 # 3736 <__stack_size+0x2f36>
800003cc:	02641fa3          	sh	t1,63(s0)
800003d0:	03f45383          	lhu	t2,63(s0)
800003d4:	30731263          	bne	t1,t2,800006d8 <fail>
800003d8:	04e00193          	li	gp,78
800003dc:	3b3a4337          	lui	t1,0x3b3a4
800003e0:	93830313          	addi	t1,t1,-1736 # 3b3a3938 <__stack_size+0x3b3a3138>
800003e4:	02642ea3          	sw	t1,61(s0)
800003e8:	03d42383          	lw	t2,61(s0)
800003ec:	2e731663          	bne	t1,t2,800006d8 <fail>
800003f0:	04f00193          	li	gp,79
800003f4:	3f3e4337          	lui	t1,0x3f3e4
800003f8:	d3c30313          	addi	t1,t1,-708 # 3f3e3d3c <__stack_size+0x3f3e353c>
800003fc:	02642f23          	sw	t1,62(s0)
80000400:	03e42383          	lw	t2,62(s0)
80000404:	2c731a63          	bne	t1,t2,800006d8 <fail>
80000408:	05000193          	li	gp,80
8000040c:	43424337          	lui	t1,0x43424
80000410:	14030313          	addi	t1,t1,320 # 43424140 <__stack_size+0x43423940>
80000414:	02642fa3          	sw	t1,63(s0)
80000418:	03f42383          	lw	t2,63(s0)
8000041c:	2a731e63          	bne	t1,t2,800006d8 <fail>
80000420:	05b00193          	li	gp,91
80000424:	0000a337          	lui	t1,0xa
80000428:	99830313          	addi	t1,t1,-1640 # 9998 <__stack_size+0x9198>
8000042c:	f9800393          	li	t2,-104
80000430:	006410a3          	sh	t1,1(s0)
80000434:	00140e03          	lb	t3,1(s0)
80000438:	2bc39063          	bne	t2,t3,800006d8 <fail>
8000043c:	05c00193          	li	gp,92
80000440:	0000a337          	lui	t1,0xa
80000444:	b9a30313          	addi	t1,t1,-1126 # 9b9a <__stack_size+0x939a>
80000448:	f9b00393          	li	t2,-101
8000044c:	006410a3          	sh	t1,1(s0)
80000450:	00240e03          	lb	t3,2(s0)
80000454:	29c39263          	bne	t2,t3,800006d8 <fail>
80000458:	05d00193          	li	gp,93
8000045c:	0000a337          	lui	t1,0xa
80000460:	d9c30313          	addi	t1,t1,-612 # 9d9c <__stack_size+0x959c>
80000464:	09c00393          	li	t2,156
80000468:	006410a3          	sh	t1,1(s0)
8000046c:	00144e03          	lbu	t3,1(s0)
80000470:	27c39463          	bne	t2,t3,800006d8 <fail>
80000474:	05e00193          	li	gp,94
80000478:	0000a337          	lui	t1,0xa
8000047c:	f9e30313          	addi	t1,t1,-98 # 9f9e <__stack_size+0x979e>
80000480:	09f00393          	li	t2,159
80000484:	006410a3          	sh	t1,1(s0)
80000488:	00244e03          	lbu	t3,2(s0)
8000048c:	25c39663          	bne	t2,t3,800006d8 <fail>
80000490:	05f00193          	li	gp,95
80000494:	a3a2a337          	lui	t1,0xa3a2a
80000498:	1a030313          	addi	t1,t1,416 # a3a2a1a0 <_end+0x3a295d8>
8000049c:	fa000393          	li	t2,-96
800004a0:	006420a3          	sw	t1,1(s0)
800004a4:	00140e03          	lb	t3,1(s0)
800004a8:	23c39863          	bne	t2,t3,800006d8 <fail>
800004ac:	06000193          	li	gp,96
800004b0:	a7a6a337          	lui	t1,0xa7a6a
800004b4:	5a430313          	addi	t1,t1,1444 # a7a6a5a4 <_end+0x7a699dc>
800004b8:	0a500393          	li	t2,165
800004bc:	00642123          	sw	t1,2(s0)
800004c0:	00344e03          	lbu	t3,3(s0)
800004c4:	21c39a63          	bne	t2,t3,800006d8 <fail>
800004c8:	06100193          	li	gp,97
800004cc:	abaab337          	lui	t1,0xabaab
800004d0:	9a830313          	addi	t1,t1,-1624 # abaaa9a8 <_end+0xbaa9de0>
800004d4:	ffffb3b7          	lui	t2,0xffffb
800004d8:	aa938393          	addi	t2,t2,-1367 # ffffaaa9 <_end+0x5fff9ee1>
800004dc:	006421a3          	sw	t1,3(s0)
800004e0:	00441e03          	lh	t3,4(s0)
800004e4:	1fc39a63          	bne	t2,t3,800006d8 <fail>
800004e8:	06200193          	li	gp,98
800004ec:	afaeb337          	lui	t1,0xafaeb
800004f0:	dac30313          	addi	t1,t1,-596 # afaeadac <_end+0xfaea1e4>
800004f4:	0000b3b7          	lui	t2,0xb
800004f8:	fae38393          	addi	t2,t2,-82 # afae <__stack_size+0xa7ae>
800004fc:	006421a3          	sw	t1,3(s0)
80000500:	00545e03          	lhu	t3,5(s0)
80000504:	1dc39a63          	bne	t2,t3,800006d8 <fail>
80000508:	06a00193          	li	gp,106
8000050c:	0000f337          	lui	t1,0xf
80000510:	9e830313          	addi	t1,t1,-1560 # e9e8 <__stack_size+0xe1e8>
80000514:	fe800393          	li	t2,-24
80000518:	00641fa3          	sh	t1,31(s0)
8000051c:	01f40e03          	lb	t3,31(s0)
80000520:	1bc39c63          	bne	t2,t3,800006d8 <fail>
80000524:	06b00193          	li	gp,107
80000528:	0000f337          	lui	t1,0xf
8000052c:	bea30313          	addi	t1,t1,-1046 # ebea <__stack_size+0xe3ea>
80000530:	feb00393          	li	t2,-21
80000534:	00641fa3          	sh	t1,31(s0)
80000538:	02040e03          	lb	t3,32(s0)
8000053c:	19c39e63          	bne	t2,t3,800006d8 <fail>
80000540:	06c00193          	li	gp,108
80000544:	0000f337          	lui	t1,0xf
80000548:	dec30313          	addi	t1,t1,-532 # edec <__stack_size+0xe5ec>
8000054c:	0ec00393          	li	t2,236
80000550:	00641fa3          	sh	t1,31(s0)
80000554:	01f44e03          	lbu	t3,31(s0)
80000558:	19c39063          	bne	t2,t3,800006d8 <fail>
8000055c:	06d00193          	li	gp,109
80000560:	0000f337          	lui	t1,0xf
80000564:	fee30313          	addi	t1,t1,-18 # efee <__stack_size+0xe7ee>
80000568:	0ef00393          	li	t2,239
8000056c:	00641fa3          	sh	t1,31(s0)
80000570:	02044e03          	lbu	t3,32(s0)
80000574:	17c39263          	bne	t2,t3,800006d8 <fail>
80000578:	06e00193          	li	gp,110
8000057c:	f3f2f337          	lui	t1,0xf3f2f
80000580:	1f030313          	addi	t1,t1,496 # f3f2f1f0 <_end+0x53f2e628>
80000584:	ff000393          	li	t2,-16
80000588:	00642ea3          	sw	t1,29(s0)
8000058c:	01d40e03          	lb	t3,29(s0)
80000590:	15c39463          	bne	t2,t3,800006d8 <fail>
80000594:	06f00193          	li	gp,111
80000598:	f7f6f337          	lui	t1,0xf7f6f
8000059c:	5f430313          	addi	t1,t1,1524 # f7f6f5f4 <_end+0x57f6ea2c>
800005a0:	0f600393          	li	t2,246
800005a4:	00642f23          	sw	t1,30(s0)
800005a8:	02044e03          	lbu	t3,32(s0)
800005ac:	13c39663          	bne	t2,t3,800006d8 <fail>
800005b0:	07000193          	li	gp,112
800005b4:	fbfb0337          	lui	t1,0xfbfb0
800005b8:	9f830313          	addi	t1,t1,-1544 # fbfaf9f8 <_end+0x5bfaee30>
800005bc:	bfa00393          	li	t2,-1030
800005c0:	00642ea3          	sw	t1,29(s0)
800005c4:	01f41e03          	lh	t3,31(s0)
800005c8:	11c39863          	bne	t2,t3,800006d8 <fail>
800005cc:	07100193          	li	gp,113
800005d0:	ffff0337          	lui	t1,0xffff0
800005d4:	dfc30313          	addi	t1,t1,-516 # fffefdfc <_end+0x5ffef234>
800005d8:	000103b7          	lui	t2,0x10
800005dc:	dfc38393          	addi	t2,t2,-516 # fdfc <__stack_size+0xf5fc>
800005e0:	00642fa3          	sw	t1,31(s0)
800005e4:	01f45e03          	lhu	t3,31(s0)
800005e8:	0fc39863          	bne	t2,t3,800006d8 <fail>
800005ec:	07900193          	li	gp,121
800005f0:	00005337          	lui	t1,0x5
800005f4:	94830313          	addi	t1,t1,-1720 # 4948 <__stack_size+0x4148>
800005f8:	04800393          	li	t2,72
800005fc:	02641fa3          	sh	t1,63(s0)
80000600:	03f40e03          	lb	t3,63(s0)
80000604:	0dc39a63          	bne	t2,t3,800006d8 <fail>
80000608:	07a00193          	li	gp,122
8000060c:	00005337          	lui	t1,0x5
80000610:	b4a30313          	addi	t1,t1,-1206 # 4b4a <__stack_size+0x434a>
80000614:	04b00393          	li	t2,75
80000618:	02641fa3          	sh	t1,63(s0)
8000061c:	04040e03          	lb	t3,64(s0)
80000620:	0bc39c63          	bne	t2,t3,800006d8 <fail>
80000624:	07b00193          	li	gp,123
80000628:	00005337          	lui	t1,0x5
8000062c:	d4c30313          	addi	t1,t1,-692 # 4d4c <__stack_size+0x454c>
80000630:	04c00393          	li	t2,76
80000634:	02641fa3          	sh	t1,63(s0)
80000638:	03f44e03          	lbu	t3,63(s0)
8000063c:	09c39e63          	bne	t2,t3,800006d8 <fail>
80000640:	07c00193          	li	gp,124
80000644:	00005337          	lui	t1,0x5
80000648:	f4e30313          	addi	t1,t1,-178 # 4f4e <__stack_size+0x474e>
8000064c:	04f00393          	li	t2,79
80000650:	02641fa3          	sh	t1,63(s0)
80000654:	04044e03          	lbu	t3,64(s0)
80000658:	09c39063          	bne	t2,t3,800006d8 <fail>
8000065c:	07d00193          	li	gp,125
80000660:	53525337          	lui	t1,0x53525
80000664:	15030313          	addi	t1,t1,336 # 53525150 <__stack_size+0x53524950>
80000668:	05000393          	li	t2,80
8000066c:	02642ea3          	sw	t1,61(s0)
80000670:	03d40e03          	lb	t3,61(s0)
80000674:	07c39263          	bne	t2,t3,800006d8 <fail>
80000678:	07e00193          	li	gp,126
8000067c:	57565337          	lui	t1,0x57565
80000680:	55430313          	addi	t1,t1,1364 # 57565554 <__stack_size+0x57564d54>
80000684:	05600393          	li	t2,86
80000688:	02642f23          	sw	t1,62(s0)
8000068c:	04044e03          	lbu	t3,64(s0)
80000690:	05c39463          	bne	t2,t3,800006d8 <fail>
80000694:	07f00193          	li	gp,127
80000698:	5b5a6337          	lui	t1,0x5b5a6
8000069c:	95830313          	addi	t1,t1,-1704 # 5b5a5958 <__stack_size+0x5b5a5158>
800006a0:	000063b7          	lui	t2,0x6
800006a4:	b5a38393          	addi	t2,t2,-1190 # 5b5a <__stack_size+0x535a>
800006a8:	02642ea3          	sw	t1,61(s0)
800006ac:	03f41e03          	lh	t3,63(s0)
800006b0:	03c39463          	bne	t2,t3,800006d8 <fail>
800006b4:	08000193          	li	gp,128
800006b8:	5f5e6337          	lui	t1,0x5f5e6
800006bc:	d5c30313          	addi	t1,t1,-676 # 5f5e5d5c <__stack_size+0x5f5e555c>
800006c0:	000063b7          	lui	t2,0x6
800006c4:	d5c38393          	addi	t2,t2,-676 # 5d5c <__stack_size+0x555c>
800006c8:	02642fa3          	sw	t1,63(s0)
800006cc:	03f45e03          	lhu	t3,63(s0)
800006d0:	01c39463          	bne	t2,t3,800006d8 <fail>
800006d4:	02301063          	bne	zero,gp,800006f4 <pass>
800006d8:	0ff0000f          	fence
800006dc:	00018063          	beqz	gp,800006dc <fail+0x4>
800006e0:	00119193          	slli	gp,gp,0x1
800006e4:	0011e193          	ori	gp,gp,1
800006e8:	05d00893          	li	a7,93
800006ec:	00018513          	mv	a0,gp
800006f0:	00000073          	ecall
800006f4:	0ff0000f          	fence
800006f8:	00100193          	li	gp,1
800006fc:	05d00893          	li	a7,93
80000700:	00000513          	li	a0,0
80000704:	00000073          	ecall
80000708:	c0001073          	unimp
8000070c:	0000                	.insn	2, 0x
8000070e:	0000                	.insn	2, 0x
80000710:	0000                	.insn	2, 0x
80000712:	0000                	.insn	2, 0x
80000714:	0000                	.insn	2, 0x
80000716:	0000                	.insn	2, 0x
80000718:	0000                	.insn	2, 0x
8000071a:	0000                	.insn	2, 0x
8000071c:	0000                	.insn	2, 0x
8000071e:	0000                	.insn	2, 0x
80000720:	0000                	.insn	2, 0x
80000722:	0000                	.insn	2, 0x
80000724:	0000                	.insn	2, 0x
80000726:	0000                	.insn	2, 0x
80000728:	0000                	.insn	2, 0x
8000072a:	0000                	.insn	2, 0x
8000072c:	0000                	.insn	2, 0x
8000072e:	0000                	.insn	2, 0x
80000730:	0000                	.insn	2, 0x
80000732:	0000                	.insn	2, 0x
80000734:	0000                	.insn	2, 0x
80000736:	0000                	.insn	2, 0x
80000738:	0000                	.insn	2, 0x
8000073a:	0000                	.insn	2, 0x
a0000000:	0100                	.insn	2, 0x0100
a0000002:	0302                	.insn	2, 0x0302
a0000004:	0504                	.insn	2, 0x0504
a0000006:	0706                	.insn	2, 0x0706
a0000008:	0908                	.insn	2, 0x0908
a000000a:	0b0a                	.insn	2, 0x0b0a
a000000c:	0d0c                	.insn	2, 0x0d0c
a000000e:	0f0e                	.insn	2, 0x0f0e
a0000010:	1110                	.insn	2, 0x1110
a0000012:	1312                	.insn	2, 0x1312
a0000014:	1514                	.insn	2, 0x1514
a0000016:	1716                	.insn	2, 0x1716
a0000018:	1918                	.insn	2, 0x1918
a000001a:	1b1a                	.insn	2, 0x1b1a
a000001c:	1d1c                	.insn	2, 0x1d1c
a000001e:	1f1e                	.insn	2, 0x1f1e
a0000020:	2120                	.insn	2, 0x2120
a0000022:	2322                	.insn	2, 0x2322
a0000024:	2524                	.insn	2, 0x2524
a0000026:	2726                	.insn	2, 0x2726
a0000028:	2928                	.insn	2, 0x2928
a000002a:	2b2a                	.insn	2, 0x2b2a
a000002c:	2d2c                	.insn	2, 0x2d2c
a000002e:	2f2e                	.insn	2, 0x2f2e
a0000030:	3130                	.insn	2, 0x3130
a0000032:	3332                	.insn	2, 0x3332
a0000034:	3534                	.insn	2, 0x3534
a0000036:	3736                	.insn	2, 0x3736
a0000038:	3938                	.insn	2, 0x3938
a000003a:	3b3a                	.insn	2, 0x3b3a
a000003c:	3d3c                	.insn	2, 0x3d3c
a000003e:	3f3e                	.insn	2, 0x3f3e
a0000040:	4140                	.insn	2, 0x4140
a0000042:	4342                	.insn	2, 0x4342
a0000044:	4544                	.insn	2, 0x4544
a0000046:	4746                	.insn	2, 0x4746
a0000048:	4948                	.insn	2, 0x4948
a000004a:	4b4a                	.insn	2, 0x4b4a
a000004c:	4d4c                	.insn	2, 0x4d4c
a000004e:	4f4e                	.insn	2, 0x4f4e
a0000050:	5150                	.insn	2, 0x5150
a0000052:	5352                	.insn	2, 0x5352
a0000054:	5554                	.insn	2, 0x5554
a0000056:	5756                	.insn	2, 0x5756
a0000058:	5958                	.insn	2, 0x5958
a000005a:	5b5a                	.insn	2, 0x5b5a
a000005c:	5d5c                	.insn	2, 0x5d5c
a000005e:	5f5e                	.insn	2, 0x5f5e
a0000060:	6160                	.insn	2, 0x6160
a0000062:	6362                	.insn	2, 0x6362
a0000064:	6564                	.insn	2, 0x6564
a0000066:	6766                	.insn	2, 0x6766
a0000068:	6968                	.insn	2, 0x6968
a000006a:	6b6a                	.insn	2, 0x6b6a
a000006c:	6d6c                	.insn	2, 0x6d6c
a000006e:	6f6e                	.insn	2, 0x6f6e
a0000070:	7170                	.insn	2, 0x7170
a0000072:	7372                	.insn	2, 0x7372
a0000074:	7574                	.insn	2, 0x7574
a0000076:	7776                	.insn	2, 0x7776
a0000078:	7978                	.insn	2, 0x7978
a000007a:	7b7a                	.insn	2, 0x7b7a
a000007c:	7d7c                	.insn	2, 0x7d7c
a000007e:	7f7e                	.insn	2, 0x7f7e
a0000080:	5050                	.insn	2, 0x5050
a0000082:	5050                	.insn	2, 0x5050
a0000084:	5050                	.insn	2, 0x5050
a0000086:	5050                	.insn	2, 0x5050
a0000088:	5050                	.insn	2, 0x5050
a000008a:	5050                	.insn	2, 0x5050
a000008c:	5050                	.insn	2, 0x5050
a000008e:	5050                	.insn	2, 0x5050
a0000090:	5050                	.insn	2, 0x5050
a0000092:	5050                	.insn	2, 0x5050
a0000094:	5050                	.insn	2, 0x5050
a0000096:	5050                	.insn	2, 0x5050
a0000098:	5050                	.insn	2, 0x5050
a000009a:	5050                	.insn	2, 0x5050
a000009c:	5050                	.insn	2, 0x5050
a000009e:	5050                	.insn	2, 0x5050
a00000a0:	5050                	.insn	2, 0x5050
a00000a2:	5050                	.insn	2, 0x5050
a00000a4:	5050                	.insn	2, 0x5050
a00000a6:	5050                	.insn	2, 0x5050
a00000a8:	5050                	.insn	2, 0x5050
a00000aa:	5050                	.insn	2, 0x5050
a00000ac:	5050                	.insn	2, 0x5050
a00000ae:	5050                	.insn	2, 0x5050
a00000b0:	5050                	.insn	2, 0x5050
a00000b2:	5050                	.insn	2, 0x5050
a00000b4:	5050                	.insn	2, 0x5050
a00000b6:	5050                	.insn	2, 0x5050
a00000b8:	5050                	.insn	2, 0x5050
a00000ba:	5050                	.insn	2, 0x5050
a00000bc:	5050                	.insn	2, 0x5050
a00000be:	5050                	.insn	2, 0x5050
a00000c0:	5050                	.insn	2, 0x5050
a00000c2:	5050                	.insn	2, 0x5050
a00000c4:	5050                	.insn	2, 0x5050
a00000c6:	5050                	.insn	2, 0x5050
a00000c8:	5050                	.insn	2, 0x5050
a00000ca:	5050                	.insn	2, 0x5050
a00000cc:	5050                	.insn	2, 0x5050
a00000ce:	5050                	.insn	2, 0x5050
a00000d0:	5050                	.insn	2, 0x5050
a00000d2:	5050                	.insn	2, 0x5050
a00000d4:	5050                	.insn	2, 0x5050
a00000d6:	5050                	.insn	2, 0x5050
a00000d8:	5050                	.insn	2, 0x5050
a00000da:	5050                	.insn	2, 0x5050
a00000dc:	5050                	.insn	2, 0x5050
a00000de:	5050                	.insn	2, 0x5050
a00000e0:	5050                	.insn	2, 0x5050
a00000e2:	5050                	.insn	2, 0x5050
a00000e4:	5050                	.insn	2, 0x5050
a00000e6:	5050                	.insn	2, 0x5050
a00000e8:	5050                	.insn	2, 0x5050
a00000ea:	5050                	.insn	2, 0x5050
a00000ec:	5050                	.insn	2, 0x5050
a00000ee:	5050                	.insn	2, 0x5050
a00000f0:	5050                	.insn	2, 0x5050
a00000f2:	5050                	.insn	2, 0x5050
a00000f4:	5050                	.insn	2, 0x5050
a00000f6:	5050                	.insn	2, 0x5050
a00000f8:	5050                	.insn	2, 0x5050
a00000fa:	5050                	.insn	2, 0x5050
a00000fc:	5050                	.insn	2, 0x5050
a00000fe:	5050                	.insn	2, 0x5050
a0000100:	5050                	.insn	2, 0x5050
a0000102:	5050                	.insn	2, 0x5050
a0000104:	5050                	.insn	2, 0x5050
a0000106:	5050                	.insn	2, 0x5050
a0000108:	5050                	.insn	2, 0x5050
a000010a:	5050                	.insn	2, 0x5050
a000010c:	5050                	.insn	2, 0x5050
a000010e:	5050                	.insn	2, 0x5050
a0000110:	5050                	.insn	2, 0x5050
a0000112:	5050                	.insn	2, 0x5050
a0000114:	5050                	.insn	2, 0x5050
a0000116:	5050                	.insn	2, 0x5050
a0000118:	5050                	.insn	2, 0x5050
a000011a:	5050                	.insn	2, 0x5050
a000011c:	5050                	.insn	2, 0x5050
a000011e:	5050                	.insn	2, 0x5050
a0000120:	5050                	.insn	2, 0x5050
a0000122:	5050                	.insn	2, 0x5050
a0000124:	5050                	.insn	2, 0x5050
a0000126:	5050                	.insn	2, 0x5050
a0000128:	5050                	.insn	2, 0x5050
a000012a:	5050                	.insn	2, 0x5050
a000012c:	5050                	.insn	2, 0x5050
a000012e:	5050                	.insn	2, 0x5050
a0000130:	5050                	.insn	2, 0x5050
a0000132:	5050                	.insn	2, 0x5050
a0000134:	5050                	.insn	2, 0x5050
a0000136:	5050                	.insn	2, 0x5050
a0000138:	5050                	.insn	2, 0x5050
a000013a:	5050                	.insn	2, 0x5050
a000013c:	5050                	.insn	2, 0x5050
a000013e:	5050                	.insn	2, 0x5050
a0000140:	5050                	.insn	2, 0x5050
a0000142:	5050                	.insn	2, 0x5050
a0000144:	5050                	.insn	2, 0x5050
a0000146:	5050                	.insn	2, 0x5050
a0000148:	5050                	.insn	2, 0x5050
a000014a:	5050                	.insn	2, 0x5050
a000014c:	5050                	.insn	2, 0x5050
a000014e:	5050                	.insn	2, 0x5050
a0000150:	5050                	.insn	2, 0x5050
a0000152:	5050                	.insn	2, 0x5050
a0000154:	5050                	.insn	2, 0x5050
a0000156:	5050                	.insn	2, 0x5050
a0000158:	5050                	.insn	2, 0x5050
a000015a:	5050                	.insn	2, 0x5050
a000015c:	5050                	.insn	2, 0x5050
a000015e:	5050                	.insn	2, 0x5050
a0000160:	5050                	.insn	2, 0x5050
a0000162:	5050                	.insn	2, 0x5050
a0000164:	5050                	.insn	2, 0x5050
a0000166:	5050                	.insn	2, 0x5050
a0000168:	5050                	.insn	2, 0x5050
a000016a:	5050                	.insn	2, 0x5050
a000016c:	5050                	.insn	2, 0x5050
a000016e:	5050                	.insn	2, 0x5050
a0000170:	5050                	.insn	2, 0x5050
a0000172:	5050                	.insn	2, 0x5050
a0000174:	5050                	.insn	2, 0x5050
a0000176:	5050                	.insn	2, 0x5050
a0000178:	5050                	.insn	2, 0x5050
a000017a:	5050                	.insn	2, 0x5050
a000017c:	5050                	.insn	2, 0x5050
a000017e:	0050                	.insn	2, 0x0050
80000000:	0500006f          	j	80000050 <reset_vector>
80000004:	34202f73          	csrr	t5,mcause
80000008:	00800f93          	li	t6,8
8000000c:	03ff0863          	beq	t5,t6,8000003c <write_tohost>
80000010:	00900f93          	li	t6,9
80000014:	03ff0463          	beq	t5,t6,8000003c <write_tohost>
80000018:	00b00f93          	li	t6,11
8000001c:	03ff0063          	beq	t5,t6,8000003c <write_tohost>
80000020:	00000f13          	li	t5,0
80000024:	000f0463          	beqz	t5,8000002c <trap_vector+0x28>
80000028:	000f0067          	jr	t5
8000002c:	34202f73          	csrr	t5,mcause
80000030:	000f5463          	bgez	t5,80000038 <handle_exception>
80000034:	0040006f          	j	80000038 <handle_exception>
80000038:	5391e193          	ori	gp,gp,1337
8000003c:	20000f17          	auipc	t5,0x20000
80000040:	fc3f2223          	sw	gp,-60(t5) # a0000000 <tohost>
80000044:	20000f17          	auipc	t5,0x20000
80000048:	fc0f2023          	sw	zero,-64(t5) # a0000004 <tohost+0x4>
8000004c:	ff1ff06f          	j	8000003c <write_tohost>
80000050:	00000093          	li	ra,0
80000054:	00000113          	li	sp,0
80000058:	00000193          	li	gp,0
8000005c:	00000213          	li	tp,0
80000060:	00000293          	li	t0,0
80000064:	00000313          	li	t1,0
80000068:	00000393          	li	t2,0
8000006c:	00000413          	li	s0,0
80000070:	00000493          	li	s1,0
80000074:	00000513          	li	a0,0
80000078:	00000593          	li	a1,0
8000007c:	00000613          	li	a2,0
80000080:	00000693          	li	a3,0
80000084:	00000713          	li	a4,0
80000088:	00000793          	li	a5,0
8000008c:	00000813          	li	a6,0
80000090:	00000893          	li	a7,0
80000094:	00000913          	li	s2,0
80000098:	00000993          	li	s3,0
8000009c:	00000a13          	li	s4,0
800000a0:	00000a93          	li	s5,0
800000a4:	00000b13          	li	s6,0
800000a8:	00000b93          	li	s7,0
800000ac:	00000c13          	li	s8,0
800000b0:	00000c93          	li	s9,0
800000b4:	00000d13          	li	s10,0
800000b8:	00000d93          	li	s11,0
800000bc:	00000e13          	li	t3,0
800000c0:	00000e93          	li	t4,0
800000c4:	00000f13          	li	t5,0
800000c8:	00000f93          	li	t6,0
800000cc:	f1402573          	csrr	a0,mhartid
800000d0:	00051063          	bnez	a0,800000d0 <reset_vector+0x80>
800000d4:	00000297          	auipc	t0,0x0
800000d8:	01028293          	addi	t0,t0,16 # 800000e4 <reset_vector+0x94>
800000dc:	30529073          	csrw	mtvec,t0
800000e0:	74445073          	csrwi	0x744,8
800000e4:	00000297          	auipc	t0,0x0
800000e8:	01028293          	addi	t0,t0,16 # 800000f4 <reset_vector+0xa4>
800000ec:	30529073          	csrw	mtvec,t0
800000f0:	18005073          	csrwi	satp,0
800000f4:	00000297          	auipc	t0,0x0
800000f8:	02028293          	addi	t0,t0,32 # 80000114 <reset_vector+0xc4>
800000fc:	30529073          	csrw	mtvec,t0
80000100:	800002b7          	lui	t0,0x80000
80000104:	fff28293          	addi	t0,t0,-1 # 7fffffff <__stack_size+0x7ffff7ff>
80000108:	3b029073          	csrw	pmpaddr0,t0
8000010c:	01f00293          	li	t0,31
80000110:	3a029073          	csrw	pmpcfg0,t0
80000114:	30405073          	csrwi	mie,0
80000118:	00000297          	auipc	t0,0x0
8000011c:	01428293          	addi	t0,t0,20 # 8000012c <reset_vector+0xdc>
80000120:	30529073          	csrw	mtvec,t0
80000124:	30205073          	csrwi	medeleg,0
80000128:	30305073          	csrwi	mideleg,0
8000012c:	00000193          	li	gp,0
80000130:	00000297          	auipc	t0,0x0
80000134:	ed428293          	addi	t0,t0,-300 # 80000004 <trap_vector>
80000138:	30529073          	csrw	mtvec,t0
8000013c:	00100513          	li	a0,1
80000140:	01f51513          	slli	a0,a0,0x1f
80000144:	00054c63          	bltz	a0,8000015c <reset_vector+0x10c>
80000148:	0ff0000f          	fence
8000014c:	00100193          	li	gp,1
80000150:	05d00893          	li	a7,93
80000154:	00000513          	li	a0,0
80000158:	00000073          	ecall
8000015c:	00000293          	li	t0,0
80000160:	00028a63          	beqz	t0,80000174 <reset_vector+0x124>
80000164:	10529073          	csrw	stvec,t0
80000168:	0000b2b7          	lui	t0,0xb
8000016c:	10928293          	addi	t0,t0,265 # b109 <__stack_size+0xa909>
80000170:	30229073          	csrw	medeleg,t0
80000174:	30005073          	csrwi	mstatus,0
80000178:	00000297          	auipc	t0,0x0
8000017c:	01428293          	addi	t0,t0,20 # 8000018c <test_2>
80000180:	34129073          	csrw	mepc,t0
80000184:	f1402573          	csrr	a0,mhartid
80000188:	30200073          	mret
8000018c:	00200193          	li	gp,2
80000190:	00000693          	li	a3,0
80000194:	0006a713          	slti	a4,a3,0
80000198:	00000393          	li	t2,0
8000019c:	26771263          	bne	a4,t2,80000400 <fail>
800001a0:	00300193          	li	gp,3
800001a4:	00100693          	li	a3,1
800001a8:	0016a713          	slti	a4,a3,1
800001ac:	00000393          	li	t2,0
800001b0:	24771863          	bne	a4,t2,80000400 <fail>
800001b4:	00400193          	li	gp,4
800001b8:	00300693          	li	a3,3
800001bc:	0076a713          	slti	a4,a3,7
800001c0:	00100393          	li	t2,1
800001c4:	22771e63          	bne	a4,t2,80000400 <fail>
800001c8:	00500193          	li	gp,5
800001cc:	00700693          	li	a3,7
800001d0:	0036a713          	slti	a4,a3,3
800001d4:	00000393          	li	t2,0
800001d8:	22771463          	bne	a4,t2,80000400 <fail>
800001dc:	00600193          	li	gp,6
800001e0:	00000693          	li	a3,0
800001e4:	8006a713          	slti	a4,a3,-2048
800001e8:	00000393          	li	t2,0
800001ec:	20771a63          	bne	a4,t2,80000400 <fail>
800001f0:	00700193          	li	gp,7
800001f4:	800006b7          	lui	a3,0x80000
800001f8:	0006a713          	slti	a4,a3,0
800001fc:	00100393          	li	t2,1
80000200:	20771063          	bne	a4,t2,80000400 <fail>
80000204:	00800193          	li	gp,8
80000208:	800006b7          	lui	a3,0x80000
8000020c:	8006a713          	slti	a4,a3,-2048
80000210:	00100393          	li	t2,1
80000214:	1e771663          	bne	a4,t2,80000400 <fail>
80000218:	00900193          	li	gp,9
8000021c:	00000693          	li	a3,0
80000220:	7ff6a713          	slti	a4,a3,2047
80000224:	00100393          	li	t2,1
80000228:	1c771c63          	bne	a4,t2,80000400 <fail>
8000022c:	00a00193          	li	gp,10
80000230:	800006b7          	lui	a3,0x80000
80000234:	fff68693          	addi	a3,a3,-1 # 7fffffff <__stack_size+0x7ffff7ff>
80000238:	0006a713          	slti	a4,a3,0
8000023c:	00000393          	li	t2,0
80000240:	1c771063          	bne	a4,t2,80000400 <fail>
80000244:	00b00193          	li	gp,11
80000248:	800006b7          	lui	a3,0x80000
8000024c:	fff68693          	addi	a3,a3,-1 # 7fffffff <__stack_size+0x7ffff7ff>
80000250:	7ff6a713          	slti	a4,a3,2047
80000254:	00000393          	li	t2,0
80000258:	1a771463          	bne	a4,t2,80000400 <fail>
8000025c:	00c00193          	li	gp,12
80000260:	800006b7          	lui	a3,0x80000
80000264:	7ff6a713          	slti	a4,a3,2047
80000268:	00100393          	li	t2,1
8000026c:	18771a63          	bne	a4,t2,80000400 <fail>
80000270:	00d00193          	li	gp,13
80000274:	800006b7          	lui	a3,0x80000
80000278:	fff68693          	addi	a3,a3,-1 # 7fffffff <__stack_size+0x7ffff7ff>
8000027c:	8006a713          	slti	a4,a3,-2048
80000280:	00000393          	li	t2,0
80000284:	16771e63          	bne	a4,t2,80000400 <fail>
80000288:	00e00193          	li	gp,14
8000028c:	00000693          	li	a3,0
80000290:	fff6a713          	slti	a4,a3,-1
80000294:	00000393          	li	t2,0
80000298:	16771463          	bne	a4,t2,80000400 <fail>
8000029c:	00f00193          	li	gp,15
800002a0:	fff00693          	li	a3,-1
800002a4:	0016a713          	slti	a4,a3,1
800002a8:	00100393          	li	t2,1
800002ac:	14771a63          	bne	a4,t2,80000400 <fail>
800002b0:	01000193          	li	gp,16
800002b4:	fff00693          	li	a3,-1
800002b8:	fff6a713          	slti	a4,a3,-1
800002bc:	00000393          	li	t2,0
800002c0:	14771063          	bne	a4,t2,80000400 <fail>
800002c4:	01100193          	li	gp,17
800002c8:	00b00593          	li	a1,11
800002cc:	00d5a593          	slti	a1,a1,13
800002d0:	00100393          	li	t2,1
800002d4:	12759663          	bne	a1,t2,80000400 <fail>
800002d8:	01200193          	li	gp,18
800002dc:	00000213          	li	tp,0
800002e0:	00f00093          	li	ra,15
800002e4:	00a0a713          	slti	a4,ra,10
800002e8:	00070313          	mv	t1,a4
800002ec:	00120213          	addi	tp,tp,1 # 1 <__heap_size-0x1ff>
800002f0:	00200293          	li	t0,2
800002f4:	fe5216e3          	bne	tp,t0,800002e0 <test_18+0x8>
800002f8:	00000393          	li	t2,0
800002fc:	10731263          	bne	t1,t2,80000400 <fail>
80000300:	01300193          	li	gp,19
80000304:	00000213          	li	tp,0
80000308:	00a00093          	li	ra,10
8000030c:	0100a713          	slti	a4,ra,16
80000310:	00000013          	nop
80000314:	00070313          	mv	t1,a4
80000318:	00120213          	addi	tp,tp,1 # 1 <__heap_size-0x1ff>
8000031c:	00200293          	li	t0,2
80000320:	fe5214e3          	bne	tp,t0,80000308 <test_19+0x8>
80000324:	00100393          	li	t2,1
80000328:	0c731c63          	bne	t1,t2,80000400 <fail>
8000032c:	01400193          	li	gp,20
80000330:	00000213          	li	tp,0
80000334:	01000093          	li	ra,16
80000338:	0090a713          	slti	a4,ra,9
8000033c:	00000013          	nop
80000340:	00000013          	nop
80000344:	00070313          	mv	t1,a4
80000348:	00120213          	addi	tp,tp,1 # 1 <__heap_size-0x1ff>
8000034c:	00200293          	li	t0,2
80000350:	fe5212e3          	bne	tp,t0,80000334 <test_20+0x8>
80000354:	00000393          	li	t2,0
80000358:	0a731463          	bne	t1,t2,80000400 <fail>
8000035c:	01500193          	li	gp,21
80000360:	00000213          	li	tp,0
80000364:	00b00093          	li	ra,11
80000368:	00f0a713          	slti	a4,ra,15
8000036c:	00120213          	addi	tp,tp,1 # 1 <__heap_size-0x1ff>
80000370:	00200293          	li	t0,2
80000374:	fe5218e3          	bne	tp,t0,80000364 <test_21+0x8>
80000378:	00100393          	li	t2,1
8000037c:	08771263          	bne	a4,t2,80000400 <fail>
80000380:	01600193          	li	gp,22
80000384:	00000213          	li	tp,0
80000388:	01100093          	li	ra,17
8000038c:	00000013          	nop
80000390:	0080a713          	slti	a4,ra,8
80000394:	00120213          	addi	tp,tp,1 # 1 <__heap_size-0x1ff>
80000398:	00200293          	li	t0,2
8000039c:	fe5216e3          	bne	tp,t0,80000388 <test_22+0x8>
800003a0:	00000393          	li	t2,0
800003a4:	04771e63          	bne	a4,t2,80000400 <fail>
800003a8:	01700193          	li	gp,23
800003ac:	00000213          	li	tp,0
800003b0:	00c00093          	li	ra,12
800003b4:	00000013          	nop
800003b8:	00000013          	nop
800003bc:	00e0a713          	slti	a4,ra,14
800003c0:	00120213          	addi	tp,tp,1 # 1 <__heap_size-0x1ff>
800003c4:	00200293          	li	t0,2
800003c8:	fe5214e3          	bne	tp,t0,800003b0 <test_23+0x8>
800003cc:	00100393          	li	t2,1
800003d0:	02771863          	bne	a4,t2,80000400 <fail>
800003d4:	01800193          	li	gp,24
800003d8:	fff02093          	slti	ra,zero,-1
800003dc:	00000393          	li	t2,0
800003e0:	02709063          	bne	ra,t2,80000400 <fail>
800003e4:	01900193          	li	gp,25
800003e8:	00ff00b7          	lui	ra,0xff0
800003ec:	0ff08093          	addi	ra,ra,255 # ff00ff <__stack_size+0xfef8ff>
800003f0:	fff0a013          	slti	zero,ra,-1
800003f4:	00000393          	li	t2,0
800003f8:	00701463          	bne	zero,t2,80000400 <fail>
800003fc:	02301063          	bne	zero,gp,8000041c <pass>
80000400:	0ff0000f          	fence
80000404:	00018063          	beqz	gp,80000404 <fail+0x4>
80000408:	00119193          	slli	gp,gp,0x1
8000040c:	0011e193          	ori	gp,gp,1
80000410:	05d00893          	li	a7,93
80000414:	00018513          	mv	a0,gp
80000418:	00000073          	ecall
8000041c:	0ff0000f          	fence
80000420:	00100193          	li	gp,1
80000424:	05d00893          	li	a7,93
80000428:	00000513          	li	a0,0
8000042c:	00000073          	ecall
80000430:	c0001073          	unimp
80000434:	0000                	.insn	2, 0x
80000436:	0000                	.insn	2, 0x
80000438:	0000                	.insn	2, 0x
8000043a:	0000                	.insn	2, 0x
80000000:	0500006f          	j	80000050 <reset_vector>
80000004:	34202f73          	csrr	t5,mcause
80000008:	00800f93          	li	t6,8
8000000c:	03ff0863          	beq	t5,t6,8000003c <write_tohost>
80000010:	00900f93          	li	t6,9
80000014:	03ff0463          	beq	t5,t6,8000003c <write_tohost>
80000018:	00b00f93          	li	t6,11
8000001c:	03ff0063          	beq	t5,t6,8000003c <write_tohost>
80000020:	00000f13          	li	t5,0
80000024:	000f0463          	beqz	t5,8000002c <trap_vector+0x28>
80000028:	000f0067          	jr	t5
8000002c:	34202f73          	csrr	t5,mcause
80000030:	000f5463          	bgez	t5,80000038 <handle_exception>
80000034:	0040006f          	j	80000038 <handle_exception>
80000038:	5391e193          	ori	gp,gp,1337
8000003c:	20000f17          	auipc	t5,0x20000
80000040:	fc3f2223          	sw	gp,-60(t5) # a0000000 <tohost>
80000044:	20000f17          	auipc	t5,0x20000
80000048:	fc0f2023          	sw	zero,-64(t5) # a0000004 <tohost+0x4>
8000004c:	ff1ff06f          	j	8000003c <write_tohost>
80000050:	00000093          	li	ra,0
80000054:	00000113          	li	sp,0
80000058:	00000193          	li	gp,0
8000005c:	00000213          	li	tp,0
80000060:	00000293          	li	t0,0
80000064:	00000313          	li	t1,0
80000068:	00000393          	li	t2,0
8000006c:	00000413          	li	s0,0
80000070:	00000493          	li	s1,0
80000074:	00000513          	li	a0,0
80000078:	00000593          	li	a1,0
8000007c:	00000613          	li	a2,0
80000080:	00000693          	li	a3,0
80000084:	00000713          	li	a4,0
80000088:	00000793          	li	a5,0
8000008c:	00000813          	li	a6,0
80000090:	00000893          	li	a7,0
80000094:	00000913          	li	s2,0
80000098:	00000993          	li	s3,0
8000009c:	00000a13          	li	s4,0
800000a0:	00000a93          	li	s5,0
800000a4:	00000b13          	li	s6,0
800000a8:	00000b93          	li	s7,0
800000ac:	00000c13          	li	s8,0
800000b0:	00000c93          	li	s9,0
800000b4:	00000d13          	li	s10,0
800000b8:	00000d93          	li	s11,0
800000bc:	00000e13          	li	t3,0
800000c0:	00000e93          	li	t4,0
800000c4:	00000f13          	li	t5,0
800000c8:	00000f93          	li	t6,0
800000cc:	f1402573          	csrr	a0,mhartid
800000d0:	00051063          	bnez	a0,800000d0 <reset_vector+0x80>
800000d4:	00000297          	auipc	t0,0x0
800000d8:	01028293          	addi	t0,t0,16 # 800000e4 <reset_vector+0x94>
800000dc:	30529073          	csrw	mtvec,t0
800000e0:	74445073          	csrwi	0x744,8
800000e4:	00000297          	auipc	t0,0x0
800000e8:	01028293          	addi	t0,t0,16 # 800000f4 <reset_vector+0xa4>
800000ec:	30529073          	csrw	mtvec,t0
800000f0:	18005073          	csrwi	satp,0
800000f4:	00000297          	auipc	t0,0x0
800000f8:	02028293          	addi	t0,t0,32 # 80000114 <reset_vector+0xc4>
800000fc:	30529073          	csrw	mtvec,t0
80000100:	800002b7          	lui	t0,0x80000
80000104:	fff28293          	addi	t0,t0,-1 # 7fffffff <__stack_size+0x7ffff7ff>
80000108:	3b029073          	csrw	pmpaddr0,t0
8000010c:	01f00293          	li	t0,31
80000110:	3a029073          	csrw	pmpcfg0,t0
80000114:	30405073          	csrwi	mie,0
80000118:	00000297          	auipc	t0,0x0
8000011c:	01428293          	addi	t0,t0,20 # 8000012c <reset_vector+0xdc>
80000120:	30529073          	csrw	mtvec,t0
80000124:	30205073          	csrwi	medeleg,0
80000128:	30305073          	csrwi	mideleg,0
8000012c:	00000193          	li	gp,0
80000130:	00000297          	auipc	t0,0x0
80000134:	ed428293          	addi	t0,t0,-300 # 80000004 <trap_vector>
80000138:	30529073          	csrw	mtvec,t0
8000013c:	00100513          	li	a0,1
80000140:	01f51513          	slli	a0,a0,0x1f
80000144:	00054c63          	bltz	a0,8000015c <reset_vector+0x10c>
80000148:	0ff0000f          	fence
8000014c:	00100193          	li	gp,1
80000150:	05d00893          	li	a7,93
80000154:	00000513          	li	a0,0
80000158:	00000073          	ecall
8000015c:	00000293          	li	t0,0
80000160:	00028a63          	beqz	t0,80000174 <reset_vector+0x124>
80000164:	10529073          	csrw	stvec,t0
80000168:	0000b2b7          	lui	t0,0xb
8000016c:	10928293          	addi	t0,t0,265 # b109 <__stack_size+0xa909>
80000170:	30229073          	csrw	medeleg,t0
80000174:	30005073          	csrwi	mstatus,0
80000178:	00000297          	auipc	t0,0x0
8000017c:	01428293          	addi	t0,t0,20 # 8000018c <test_2>
80000180:	34129073          	csrw	mepc,t0
80000184:	f1402573          	csrr	a0,mhartid
80000188:	30200073          	mret
8000018c:	00200193          	li	gp,2
80000190:	800006b7          	lui	a3,0x80000
80000194:	0006d713          	srli	a4,a3,0x0
80000198:	800003b7          	lui	t2,0x80000
8000019c:	28771863          	bne	a4,t2,8000042c <fail>
800001a0:	00300193          	li	gp,3
800001a4:	800006b7          	lui	a3,0x80000
800001a8:	0016d713          	srli	a4,a3,0x1
800001ac:	400003b7          	lui	t2,0x40000
800001b0:	26771e63          	bne	a4,t2,8000042c <fail>
800001b4:	00400193          	li	gp,4
800001b8:	800006b7          	lui	a3,0x80000
800001bc:	0076d713          	srli	a4,a3,0x7
800001c0:	010003b7          	lui	t2,0x1000
800001c4:	26771463          	bne	a4,t2,8000042c <fail>
800001c8:	00500193          	li	gp,5
800001cc:	800006b7          	lui	a3,0x80000
800001d0:	00e6d713          	srli	a4,a3,0xe
800001d4:	000203b7          	lui	t2,0x20
800001d8:	24771a63          	bne	a4,t2,8000042c <fail>
800001dc:	00600193          	li	gp,6
800001e0:	800006b7          	lui	a3,0x80000
800001e4:	00168693          	addi	a3,a3,1 # 80000001 <_start+0x1>
800001e8:	01f6d713          	srli	a4,a3,0x1f
800001ec:	00100393          	li	t2,1
800001f0:	22771e63          	bne	a4,t2,8000042c <fail>
800001f4:	00700193          	li	gp,7
800001f8:	fff00693          	li	a3,-1
800001fc:	0006d713          	srli	a4,a3,0x0
80000200:	fff00393          	li	t2,-1
80000204:	22771463          	bne	a4,t2,8000042c <fail>
80000208:	00800193          	li	gp,8
8000020c:	fff00693          	li	a3,-1
80000210:	0016d713          	srli	a4,a3,0x1
80000214:	800003b7          	lui	t2,0x80000
80000218:	fff38393          	addi	t2,t2,-1 # 7fffffff <__stack_size+0x7ffff7ff>
8000021c:	20771863          	bne	a4,t2,8000042c <fail>
80000220:	00900193          	li	gp,9
80000224:	fff00693          	li	a3,-1
80000228:	0076d713          	srli	a4,a3,0x7
8000022c:	020003b7          	lui	t2,0x2000
80000230:	fff38393          	addi	t2,t2,-1 # 1ffffff <__stack_size+0x1fff7ff>
80000234:	1e771c63          	bne	a4,t2,8000042c <fail>
80000238:	00a00193          	li	gp,10
8000023c:	fff00693          	li	a3,-1
80000240:	00e6d713          	srli	a4,a3,0xe
80000244:	000403b7          	lui	t2,0x40
80000248:	fff38393          	addi	t2,t2,-1 # 3ffff <__stack_size+0x3f7ff>
8000024c:	1e771063          	bne	a4,t2,8000042c <fail>
80000250:	00b00193          	li	gp,11
80000254:	fff00693          	li	a3,-1
80000258:	01f6d713          	srli	a4,a3,0x1f
8000025c:	00100393          	li	t2,1
80000260:	1c771663          	bne	a4,t2,8000042c <fail>
80000264:	00c00193          	li	gp,12
80000268:	212126b7          	lui	a3,0x21212
8000026c:	12168693          	addi	a3,a3,289 # 21212121 <__stack_size+0x21211921>
80000270:	0006d713          	srli	a4,a3,0x0
80000274:	212123b7          	lui	t2,0x21212
80000278:	12138393          	addi	t2,t2,289 # 21212121 <__stack_size+0x21211921>
8000027c:	1a771863          	bne	a4,t2,8000042c <fail>
80000280:	00d00193          	li	gp,13
80000284:	212126b7          	lui	a3,0x21212
80000288:	12168693          	addi	a3,a3,289 # 21212121 <__stack_size+0x21211921>
8000028c:	0016d713          	srli	a4,a3,0x1
80000290:	109093b7          	lui	t2,0x10909
80000294:	09038393          	addi	t2,t2,144 # 10909090 <__stack_size+0x10908890>
80000298:	18771a63          	bne	a4,t2,8000042c <fail>
8000029c:	00e00193          	li	gp,14
800002a0:	212126b7          	lui	a3,0x21212
800002a4:	12168693          	addi	a3,a3,289 # 21212121 <__stack_size+0x21211921>
800002a8:	0076d713          	srli	a4,a3,0x7
800002ac:	004243b7          	lui	t2,0x424
800002b0:	24238393          	addi	t2,t2,578 # 424242 <__stack_size+0x423a42>
800002b4:	16771c63          	bne	a4,t2,8000042c <fail>
800002b8:	00f00193          	li	gp,15
800002bc:	212126b7          	lui	a3,0x21212
800002c0:	12168693          	addi	a3,a3,289 # 21212121 <__stack_size+0x21211921>
800002c4:	00e6d713          	srli	a4,a3,0xe
800002c8:	000083b7          	lui	t2,0x8
800002cc:	48438393          	addi	t2,t2,1156 # 8484 <__stack_size+0x7c84>
800002d0:	14771e63          	bne	a4,t2,8000042c <fail>
800002d4:	01000193          	li	gp,16
800002d8:	212126b7          	lui	a3,0x21212
800002dc:	12168693          	addi	a3,a3,289 # 21212121 <__stack_size+0x21211921>
800002e0:	01f6d713          	srli	a4,a3,0x1f
800002e4:	00000393          	li	t2,0
800002e8:	14771263          	bne	a4,t2,8000042c <fail>
800002ec:	01100193          	li	gp,17
800002f0:	800005b7          	lui	a1,0x80000
800002f4:	0075d593          	srli	a1,a1,0x7
800002f8:	010003b7          	lui	t2,0x1000
800002fc:	12759863          	bne	a1,t2,8000042c <fail>
80000300:	01200193          	li	gp,18
80000304:	00000213          	li	tp,0
80000308:	800000b7          	lui	ra,0x80000
8000030c:	0070d713          	srli	a4,ra,0x7
80000310:	00070313          	mv	t1,a4
80000314:	00120213          	addi	tp,tp,1 # 1 <__heap_size-0x1ff>
80000318:	00200293          	li	t0,2
8000031c:	fe5216e3          	bne	tp,t0,80000308 <test_18+0x8>
80000320:	010003b7          	lui	t2,0x1000
80000324:	10731463          	bne	t1,t2,8000042c <fail>
80000328:	01300193          	li	gp,19
8000032c:	00000213          	li	tp,0
80000330:	800000b7          	lui	ra,0x80000
80000334:	00e0d713          	srli	a4,ra,0xe
80000338:	00000013          	nop
8000033c:	00070313          	mv	t1,a4
80000340:	00120213          	addi	tp,tp,1 # 1 <__heap_size-0x1ff>
80000344:	00200293          	li	t0,2
80000348:	fe5214e3          	bne	tp,t0,80000330 <test_19+0x8>
8000034c:	000203b7          	lui	t2,0x20
80000350:	0c731e63          	bne	t1,t2,8000042c <fail>
80000354:	01400193          	li	gp,20
80000358:	00000213          	li	tp,0
8000035c:	800000b7          	lui	ra,0x80000
80000360:	00108093          	addi	ra,ra,1 # 80000001 <_start+0x1>
80000364:	01f0d713          	srli	a4,ra,0x1f
80000368:	00000013          	nop
8000036c:	00000013          	nop
80000370:	00070313          	mv	t1,a4
80000374:	00120213          	addi	tp,tp,1 # 1 <__heap_size-0x1ff>
80000378:	00200293          	li	t0,2
8000037c:	fe5210e3          	bne	tp,t0,8000035c <test_20+0x8>
80000380:	00100393          	li	t2,1
80000384:	0a731463          	bne	t1,t2,8000042c <fail>
80000388:	01500193          	li	gp,21
8000038c:	00000213          	li	tp,0
80000390:	800000b7          	lui	ra,0x80000
80000394:	0070d713          	srli	a4,ra,0x7
80000398:	00120213          	addi	tp,tp,1 # 1 <__heap_size-0x1ff>
8000039c:	00200293          	li	t0,2
800003a0:	fe5218e3          	bne	tp,t0,80000390 <test_21+0x8>
800003a4:	010003b7          	lui	t2,0x1000
800003a8:	08771263          	bne	a4,t2,8000042c <fail>
800003ac:	01600193          	li	gp,22
800003b0:	00000213          	li	tp,0
800003b4:	800000b7          	lui	ra,0x80000
800003b8:	00000013          	nop
800003bc:	00e0d713          	srli	a4,ra,0xe
800003c0:	00120213          	addi	tp,tp,1 # 1 <__heap_size-0x1ff>
800003c4:	00200293          	li	t0,2
800003c8:	fe5216e3          	bne	tp,t0,800003b4 <test_22+0x8>
800003cc:	000203b7          	lui	t2,0x20
800003d0:	04771e63          	bne	a4,t2,8000042c <fail>
800003d4:	01700193          	li	gp,23
800003d8:	00000213          	li	tp,0
800003dc:	800000b7          	lui	ra,0x80000
800003e0:	00108093          	addi	ra,ra,1 # 80000001 <_start+0x1>
800003e4:	00000013          	nop
800003e8:	00000013          	nop
800003ec:	01f0d713          	srli	a4,ra,0x1f
800003f0:	00120213          	addi	tp,tp,1 # 1 <__heap_size-0x1ff>
800003f4:	00200293          	li	t0,2
800003f8:	fe5212e3          	bne	tp,t0,800003dc <test_23+0x8>
800003fc:	00100393          	li	t2,1
80000400:	02771663          	bne	a4,t2,8000042c <fail>
80000404:	01800193          	li	gp,24
80000408:	00405093          	srli	ra,zero,0x4
8000040c:	00000393          	li	t2,0
80000410:	00709e63          	bne	ra,t2,8000042c <fail>
80000414:	01900193          	li	gp,25
80000418:	02100093          	li	ra,33
8000041c:	00a0d013          	srli	zero,ra,0xa
80000420:	00000393          	li	t2,0
80000424:	00701463          	bne	zero,t2,8000042c <fail>
80000428:	02301063          	bne	zero,gp,80000448 <pass>
8000042c:	0ff0000f          	fence
80000430:	00018063          	beqz	gp,80000430 <fail+0x4>
80000434:	00119193          	slli	gp,gp,0x1
80000438:	0011e193          	ori	gp,gp,1
8000043c:	05d00893          	li	a7,93
80000440:	00018513          	mv	a0,gp
80000444:	00000073          	ecall
80000448:	0ff0000f          	fence
8000044c:	00100193          	li	gp,1
80000450:	05d00893          	li	a7,93
80000454:	00000513          	li	a0,0
80000458:	00000073          	ecall
8000045c:	c0001073          	unimp
80000460:	0000                	.insn	2, 0x
80000462:	0000                	.insn	2, 0x
80000464:	0000                	.insn	2, 0x
80000466:	0000                	.insn	2, 0x
80000468:	0000                	.insn	2, 0x
8000046a:	0000                	.insn	2, 0x
8000046c:	0000                	.insn	2, 0x
8000046e:	0000                	.insn	2, 0x
80000470:	0000                	.insn	2, 0x
80000472:	0000                	.insn	2, 0x
80000474:	0000                	.insn	2, 0x
80000476:	0000                	.insn	2, 0x
80000478:	0000                	.insn	2, 0x
8000047a:	0000                	.insn	2, 0x
80000000:	0500006f          	j	80000050 <reset_vector>
80000004:	34202f73          	csrr	t5,mcause
80000008:	00800f93          	li	t6,8
8000000c:	03ff0863          	beq	t5,t6,8000003c <write_tohost>
80000010:	00900f93          	li	t6,9
80000014:	03ff0463          	beq	t5,t6,8000003c <write_tohost>
80000018:	00b00f93          	li	t6,11
8000001c:	03ff0063          	beq	t5,t6,8000003c <write_tohost>
80000020:	00000f13          	li	t5,0
80000024:	000f0463          	beqz	t5,8000002c <trap_vector+0x28>
80000028:	000f0067          	jr	t5
8000002c:	34202f73          	csrr	t5,mcause
80000030:	000f5463          	bgez	t5,80000038 <handle_exception>
80000034:	0040006f          	j	80000038 <handle_exception>
80000038:	5391e193          	ori	gp,gp,1337
8000003c:	20000f17          	auipc	t5,0x20000
80000040:	fc3f2223          	sw	gp,-60(t5) # a0000000 <tohost>
80000044:	20000f17          	auipc	t5,0x20000
80000048:	fc0f2023          	sw	zero,-64(t5) # a0000004 <tohost+0x4>
8000004c:	ff1ff06f          	j	8000003c <write_tohost>
80000050:	00000093          	li	ra,0
80000054:	00000113          	li	sp,0
80000058:	00000193          	li	gp,0
8000005c:	00000213          	li	tp,0
80000060:	00000293          	li	t0,0
80000064:	00000313          	li	t1,0
80000068:	00000393          	li	t2,0
8000006c:	00000413          	li	s0,0
80000070:	00000493          	li	s1,0
80000074:	00000513          	li	a0,0
80000078:	00000593          	li	a1,0
8000007c:	00000613          	li	a2,0
80000080:	00000693          	li	a3,0
80000084:	00000713          	li	a4,0
80000088:	00000793          	li	a5,0
8000008c:	00000813          	li	a6,0
80000090:	00000893          	li	a7,0
80000094:	00000913          	li	s2,0
80000098:	00000993          	li	s3,0
8000009c:	00000a13          	li	s4,0
800000a0:	00000a93          	li	s5,0
800000a4:	00000b13          	li	s6,0
800000a8:	00000b93          	li	s7,0
800000ac:	00000c13          	li	s8,0
800000b0:	00000c93          	li	s9,0
800000b4:	00000d13          	li	s10,0
800000b8:	00000d93          	li	s11,0
800000bc:	00000e13          	li	t3,0
800000c0:	00000e93          	li	t4,0
800000c4:	00000f13          	li	t5,0
800000c8:	00000f93          	li	t6,0
800000cc:	f1402573          	csrr	a0,mhartid
800000d0:	00051063          	bnez	a0,800000d0 <reset_vector+0x80>
800000d4:	00000297          	auipc	t0,0x0
800000d8:	01028293          	addi	t0,t0,16 # 800000e4 <reset_vector+0x94>
800000dc:	30529073          	csrw	mtvec,t0
800000e0:	74445073          	csrwi	0x744,8
800000e4:	00000297          	auipc	t0,0x0
800000e8:	01028293          	addi	t0,t0,16 # 800000f4 <reset_vector+0xa4>
800000ec:	30529073          	csrw	mtvec,t0
800000f0:	18005073          	csrwi	satp,0
800000f4:	00000297          	auipc	t0,0x0
800000f8:	02028293          	addi	t0,t0,32 # 80000114 <reset_vector+0xc4>
800000fc:	30529073          	csrw	mtvec,t0
80000100:	800002b7          	lui	t0,0x80000
80000104:	fff28293          	addi	t0,t0,-1 # 7fffffff <__stack_size+0x7ffff7ff>
80000108:	3b029073          	csrw	pmpaddr0,t0
8000010c:	01f00293          	li	t0,31
80000110:	3a029073          	csrw	pmpcfg0,t0
80000114:	30405073          	csrwi	mie,0
80000118:	00000297          	auipc	t0,0x0
8000011c:	01428293          	addi	t0,t0,20 # 8000012c <reset_vector+0xdc>
80000120:	30529073          	csrw	mtvec,t0
80000124:	30205073          	csrwi	medeleg,0
80000128:	30305073          	csrwi	mideleg,0
8000012c:	00000193          	li	gp,0
80000130:	00000297          	auipc	t0,0x0
80000134:	ed428293          	addi	t0,t0,-300 # 80000004 <trap_vector>
80000138:	30529073          	csrw	mtvec,t0
8000013c:	00100513          	li	a0,1
80000140:	01f51513          	slli	a0,a0,0x1f
80000144:	00054c63          	bltz	a0,8000015c <reset_vector+0x10c>
80000148:	0ff0000f          	fence
8000014c:	00100193          	li	gp,1
80000150:	05d00893          	li	a7,93
80000154:	00000513          	li	a0,0
80000158:	00000073          	ecall
8000015c:	00000293          	li	t0,0
80000160:	00028a63          	beqz	t0,80000174 <reset_vector+0x124>
80000164:	10529073          	csrw	stvec,t0
80000168:	0000b2b7          	lui	t0,0xb
8000016c:	10928293          	addi	t0,t0,265 # b109 <__stack_size+0xa909>
80000170:	30229073          	csrw	medeleg,t0
80000174:	30005073          	csrwi	mstatus,0
80000178:	00000297          	auipc	t0,0x0
8000017c:	01428293          	addi	t0,t0,20 # 8000018c <test_2>
80000180:	34129073          	csrw	mepc,t0
80000184:	f1402573          	csrr	a0,mhartid
80000188:	30200073          	mret
8000018c:	00200193          	li	gp,2
80000190:	ff0106b7          	lui	a3,0xff010
80000194:	f0068693          	addi	a3,a3,-256 # ff00ff00 <_end+0x5f00f4b8>
80000198:	f0f6e713          	ori	a4,a3,-241
8000019c:	f0f00393          	li	t2,-241
800001a0:	1c771463          	bne	a4,t2,80000368 <fail>
800001a4:	00300193          	li	gp,3
800001a8:	0ff016b7          	lui	a3,0xff01
800001ac:	ff068693          	addi	a3,a3,-16 # ff00ff0 <__stack_size+0xff007f0>
800001b0:	0f06e713          	ori	a4,a3,240
800001b4:	0ff013b7          	lui	t2,0xff01
800001b8:	ff038393          	addi	t2,t2,-16 # ff00ff0 <__stack_size+0xff007f0>
800001bc:	1a771663          	bne	a4,t2,80000368 <fail>
800001c0:	00400193          	li	gp,4
800001c4:	00ff06b7          	lui	a3,0xff0
800001c8:	0ff68693          	addi	a3,a3,255 # ff00ff <__stack_size+0xfef8ff>
800001cc:	70f6e713          	ori	a4,a3,1807
800001d0:	00ff03b7          	lui	t2,0xff0
800001d4:	7ff38393          	addi	t2,t2,2047 # ff07ff <__stack_size+0xfeffff>
800001d8:	18771863          	bne	a4,t2,80000368 <fail>
800001dc:	00500193          	li	gp,5
800001e0:	f00ff6b7          	lui	a3,0xf00ff
800001e4:	00f68693          	addi	a3,a3,15 # f00ff00f <_end+0x500fe5c7>
800001e8:	0f06e713          	ori	a4,a3,240
800001ec:	f00ff3b7          	lui	t2,0xf00ff
800001f0:	0ff38393          	addi	t2,t2,255 # f00ff0ff <_end+0x500fe6b7>
800001f4:	16771a63          	bne	a4,t2,80000368 <fail>
800001f8:	00600193          	li	gp,6
800001fc:	ff0105b7          	lui	a1,0xff010
80000200:	f0058593          	addi	a1,a1,-256 # ff00ff00 <_end+0x5f00f4b8>
80000204:	0f05e593          	ori	a1,a1,240
80000208:	ff0103b7          	lui	t2,0xff010
8000020c:	ff038393          	addi	t2,t2,-16 # ff00fff0 <_end+0x5f00f5a8>
80000210:	14759c63          	bne	a1,t2,80000368 <fail>
80000214:	00700193          	li	gp,7
80000218:	00000213          	li	tp,0
8000021c:	0ff010b7          	lui	ra,0xff01
80000220:	ff008093          	addi	ra,ra,-16 # ff00ff0 <__stack_size+0xff007f0>
80000224:	0f00e713          	ori	a4,ra,240
80000228:	00070313          	mv	t1,a4
8000022c:	00120213          	addi	tp,tp,1 # 1 <__heap_size-0x1ff>
80000230:	00200293          	li	t0,2
80000234:	fe5214e3          	bne	tp,t0,8000021c <test_7+0x8>
80000238:	0ff013b7          	lui	t2,0xff01
8000023c:	ff038393          	addi	t2,t2,-16 # ff00ff0 <__stack_size+0xff007f0>
80000240:	12731463          	bne	t1,t2,80000368 <fail>
80000244:	00800193          	li	gp,8
80000248:	00000213          	li	tp,0
8000024c:	00ff00b7          	lui	ra,0xff0
80000250:	0ff08093          	addi	ra,ra,255 # ff00ff <__stack_size+0xfef8ff>
80000254:	70f0e713          	ori	a4,ra,1807
80000258:	00000013          	nop
8000025c:	00070313          	mv	t1,a4
80000260:	00120213          	addi	tp,tp,1 # 1 <__heap_size-0x1ff>
80000264:	00200293          	li	t0,2
80000268:	fe5212e3          	bne	tp,t0,8000024c <test_8+0x8>
8000026c:	00ff03b7          	lui	t2,0xff0
80000270:	7ff38393          	addi	t2,t2,2047 # ff07ff <__stack_size+0xfeffff>
80000274:	0e731a63          	bne	t1,t2,80000368 <fail>
80000278:	00900193          	li	gp,9
8000027c:	00000213          	li	tp,0
80000280:	f00ff0b7          	lui	ra,0xf00ff
80000284:	00f08093          	addi	ra,ra,15 # f00ff00f <_end+0x500fe5c7>
80000288:	0f00e713          	ori	a4,ra,240
8000028c:	00000013          	nop
80000290:	00000013          	nop
80000294:	00070313          	mv	t1,a4
80000298:	00120213          	addi	tp,tp,1 # 1 <__heap_size-0x1ff>
8000029c:	00200293          	li	t0,2
800002a0:	fe5210e3          	bne	tp,t0,80000280 <test_9+0x8>
800002a4:	f00ff3b7          	lui	t2,0xf00ff
800002a8:	0ff38393          	addi	t2,t2,255 # f00ff0ff <_end+0x500fe6b7>
800002ac:	0a731e63          	bne	t1,t2,80000368 <fail>
800002b0:	00a00193          	li	gp,10
800002b4:	00000213          	li	tp,0
800002b8:	0ff010b7          	lui	ra,0xff01
800002bc:	ff008093          	addi	ra,ra,-16 # ff00ff0 <__stack_size+0xff007f0>
800002c0:	0f00e713          	ori	a4,ra,240
800002c4:	00120213          	addi	tp,tp,1 # 1 <__heap_size-0x1ff>
800002c8:	00200293          	li	t0,2
800002cc:	fe5216e3          	bne	tp,t0,800002b8 <test_10+0x8>
800002d0:	0ff013b7          	lui	t2,0xff01
800002d4:	ff038393          	addi	t2,t2,-16 # ff00ff0 <__stack_size+0xff007f0>
800002d8:	08771863          	bne	a4,t2,80000368 <fail>
800002dc:	00b00193          	li	gp,11
800002e0:	00000213          	li	tp,0
800002e4:	00ff00b7          	lui	ra,0xff0
800002e8:	0ff08093          	addi	ra,ra,255 # ff00ff <__stack_size+0xfef8ff>
800002ec:	00000013          	nop
800002f0:	f0f0e713          	ori	a4,ra,-241
800002f4:	00120213          	addi	tp,tp,1 # 1 <__heap_size-0x1ff>
800002f8:	00200293          	li	t0,2
800002fc:	fe5214e3          	bne	tp,t0,800002e4 <test_11+0x8>
80000300:	fff00393          	li	t2,-1
80000304:	06771263          	bne	a4,t2,80000368 <fail>
80000308:	00c00193          	li	gp,12
8000030c:	00000213          	li	tp,0
80000310:	f00ff0b7          	lui	ra,0xf00ff
80000314:	00f08093          	addi	ra,ra,15 # f00ff00f <_end+0x500fe5c7>
80000318:	00000013          	nop
8000031c:	00000013          	nop
80000320:	0f00e713          	ori	a4,ra,240
80000324:	00120213          	addi	tp,tp,1 # 1 <__heap_size-0x1ff>
80000328:	00200293          	li	t0,2
8000032c:	fe5212e3          	bne	tp,t0,80000310 <test_12+0x8>
80000330:	f00ff3b7          	lui	t2,0xf00ff
80000334:	0ff38393          	addi	t2,t2,255 # f00ff0ff <_end+0x500fe6b7>
80000338:	02771863          	bne	a4,t2,80000368 <fail>
8000033c:	00d00193          	li	gp,13
80000340:	0f006093          	ori	ra,zero,240
80000344:	0f000393          	li	t2,240
80000348:	02709063          	bne	ra,t2,80000368 <fail>
8000034c:	00e00193          	li	gp,14
80000350:	00ff00b7          	lui	ra,0xff0
80000354:	0ff08093          	addi	ra,ra,255 # ff00ff <__stack_size+0xfef8ff>
80000358:	70f0e013          	ori	zero,ra,1807
8000035c:	00000393          	li	t2,0
80000360:	00701463          	bne	zero,t2,80000368 <fail>
80000364:	02301063          	bne	zero,gp,80000384 <pass>
80000368:	0ff0000f          	fence
8000036c:	00018063          	beqz	gp,8000036c <fail+0x4>
80000370:	00119193          	slli	gp,gp,0x1
80000374:	0011e193          	ori	gp,gp,1
80000378:	05d00893          	li	a7,93
8000037c:	00018513          	mv	a0,gp
80000380:	00000073          	ecall
80000384:	0ff0000f          	fence
80000388:	00100193          	li	gp,1
8000038c:	05d00893          	li	a7,93
80000390:	00000513          	li	a0,0
80000394:	00000073          	ecall
80000398:	c0001073          	unimp
8000039c:	0000                	.insn	2, 0x
8000039e:	0000                	.insn	2, 0x
800003a0:	0000                	.insn	2, 0x
800003a2:	0000                	.insn	2, 0x
800003a4:	0000                	.insn	2, 0x
800003a6:	0000                	.insn	2, 0x
800003a8:	0000                	.insn	2, 0x
800003aa:	0000                	.insn	2, 0x
800003ac:	0000                	.insn	2, 0x
800003ae:	0000                	.insn	2, 0x
800003b0:	0000                	.insn	2, 0x
800003b2:	0000                	.insn	2, 0x
800003b4:	0000                	.insn	2, 0x
800003b6:	0000                	.insn	2, 0x
800003b8:	0000                	.insn	2, 0x
800003ba:	0000                	.insn	2, 0x
80000000:	0500006f          	j	80000050 <reset_vector>
80000004:	34202f73          	csrr	t5,mcause
80000008:	00800f93          	li	t6,8
8000000c:	03ff0863          	beq	t5,t6,8000003c <write_tohost>
80000010:	00900f93          	li	t6,9
80000014:	03ff0463          	beq	t5,t6,8000003c <write_tohost>
80000018:	00b00f93          	li	t6,11
8000001c:	03ff0063          	beq	t5,t6,8000003c <write_tohost>
80000020:	00000f13          	li	t5,0
80000024:	000f0463          	beqz	t5,8000002c <trap_vector+0x28>
80000028:	000f0067          	jr	t5
8000002c:	34202f73          	csrr	t5,mcause
80000030:	000f5463          	bgez	t5,80000038 <handle_exception>
80000034:	0040006f          	j	80000038 <handle_exception>
80000038:	5391e193          	ori	gp,gp,1337
8000003c:	20000f17          	auipc	t5,0x20000
80000040:	fc3f2223          	sw	gp,-60(t5) # a0000000 <tohost>
80000044:	20000f17          	auipc	t5,0x20000
80000048:	fc0f2023          	sw	zero,-64(t5) # a0000004 <tohost+0x4>
8000004c:	ff1ff06f          	j	8000003c <write_tohost>
80000050:	00000093          	li	ra,0
80000054:	00000113          	li	sp,0
80000058:	00000193          	li	gp,0
8000005c:	00000213          	li	tp,0
80000060:	00000293          	li	t0,0
80000064:	00000313          	li	t1,0
80000068:	00000393          	li	t2,0
8000006c:	00000413          	li	s0,0
80000070:	00000493          	li	s1,0
80000074:	00000513          	li	a0,0
80000078:	00000593          	li	a1,0
8000007c:	00000613          	li	a2,0
80000080:	00000693          	li	a3,0
80000084:	00000713          	li	a4,0
80000088:	00000793          	li	a5,0
8000008c:	00000813          	li	a6,0
80000090:	00000893          	li	a7,0
80000094:	00000913          	li	s2,0
80000098:	00000993          	li	s3,0
8000009c:	00000a13          	li	s4,0
800000a0:	00000a93          	li	s5,0
800000a4:	00000b13          	li	s6,0
800000a8:	00000b93          	li	s7,0
800000ac:	00000c13          	li	s8,0
800000b0:	00000c93          	li	s9,0
800000b4:	00000d13          	li	s10,0
800000b8:	00000d93          	li	s11,0
800000bc:	00000e13          	li	t3,0
800000c0:	00000e93          	li	t4,0
800000c4:	00000f13          	li	t5,0
800000c8:	00000f93          	li	t6,0
800000cc:	f1402573          	csrr	a0,mhartid
800000d0:	00051063          	bnez	a0,800000d0 <reset_vector+0x80>
800000d4:	00000297          	auipc	t0,0x0
800000d8:	01028293          	addi	t0,t0,16 # 800000e4 <reset_vector+0x94>
800000dc:	30529073          	csrw	mtvec,t0
800000e0:	74445073          	csrwi	0x744,8
800000e4:	00000297          	auipc	t0,0x0
800000e8:	01028293          	addi	t0,t0,16 # 800000f4 <reset_vector+0xa4>
800000ec:	30529073          	csrw	mtvec,t0
800000f0:	18005073          	csrwi	satp,0
800000f4:	00000297          	auipc	t0,0x0
800000f8:	02028293          	addi	t0,t0,32 # 80000114 <reset_vector+0xc4>
800000fc:	30529073          	csrw	mtvec,t0
80000100:	800002b7          	lui	t0,0x80000
80000104:	fff28293          	addi	t0,t0,-1 # 7fffffff <__stack_size+0x7ffff7ff>
80000108:	3b029073          	csrw	pmpaddr0,t0
8000010c:	01f00293          	li	t0,31
80000110:	3a029073          	csrw	pmpcfg0,t0
80000114:	30405073          	csrwi	mie,0
80000118:	00000297          	auipc	t0,0x0
8000011c:	01428293          	addi	t0,t0,20 # 8000012c <reset_vector+0xdc>
80000120:	30529073          	csrw	mtvec,t0
80000124:	30205073          	csrwi	medeleg,0
80000128:	30305073          	csrwi	mideleg,0
8000012c:	00000193          	li	gp,0
80000130:	00000297          	auipc	t0,0x0
80000134:	ed428293          	addi	t0,t0,-300 # 80000004 <trap_vector>
80000138:	30529073          	csrw	mtvec,t0
8000013c:	00100513          	li	a0,1
80000140:	01f51513          	slli	a0,a0,0x1f
80000144:	00054c63          	bltz	a0,8000015c <reset_vector+0x10c>
80000148:	0ff0000f          	fence
8000014c:	00100193          	li	gp,1
80000150:	05d00893          	li	a7,93
80000154:	00000513          	li	a0,0
80000158:	00000073          	ecall
8000015c:	00000293          	li	t0,0
80000160:	00028a63          	beqz	t0,80000174 <reset_vector+0x124>
80000164:	10529073          	csrw	stvec,t0
80000168:	0000b2b7          	lui	t0,0xb
8000016c:	10928293          	addi	t0,t0,265 # b109 <__stack_size+0xa909>
80000170:	30229073          	csrw	medeleg,t0
80000174:	30005073          	csrwi	mstatus,0
80000178:	00000297          	auipc	t0,0x0
8000017c:	01428293          	addi	t0,t0,20 # 8000018c <test_2>
80000180:	34129073          	csrw	mepc,t0
80000184:	f1402573          	csrr	a0,mhartid
80000188:	30200073          	mret
8000018c:	00200193          	li	gp,2
80000190:	00ff16b7          	lui	a3,0xff1
80000194:	f0068693          	addi	a3,a3,-256 # ff0f00 <__stack_size+0xff0700>
80000198:	f0f6c713          	xori	a4,a3,-241
8000019c:	ff00f3b7          	lui	t2,0xff00f
800001a0:	00f38393          	addi	t2,t2,15 # ff00f00f <_end+0x5f00e5c7>
800001a4:	1c771663          	bne	a4,t2,80000370 <fail>
800001a8:	00300193          	li	gp,3
800001ac:	0ff016b7          	lui	a3,0xff01
800001b0:	ff068693          	addi	a3,a3,-16 # ff00ff0 <__stack_size+0xff007f0>
800001b4:	0f06c713          	xori	a4,a3,240
800001b8:	0ff013b7          	lui	t2,0xff01
800001bc:	f0038393          	addi	t2,t2,-256 # ff00f00 <__stack_size+0xff00700>
800001c0:	1a771863          	bne	a4,t2,80000370 <fail>
800001c4:	00400193          	li	gp,4
800001c8:	00ff16b7          	lui	a3,0xff1
800001cc:	8ff68693          	addi	a3,a3,-1793 # ff08ff <__stack_size+0xff00ff>
800001d0:	70f6c713          	xori	a4,a3,1807
800001d4:	00ff13b7          	lui	t2,0xff1
800001d8:	ff038393          	addi	t2,t2,-16 # ff0ff0 <__stack_size+0xff07f0>
800001dc:	18771a63          	bne	a4,t2,80000370 <fail>
800001e0:	00500193          	li	gp,5
800001e4:	f00ff6b7          	lui	a3,0xf00ff
800001e8:	00f68693          	addi	a3,a3,15 # f00ff00f <_end+0x500fe5c7>
800001ec:	0f06c713          	xori	a4,a3,240
800001f0:	f00ff3b7          	lui	t2,0xf00ff
800001f4:	0ff38393          	addi	t2,t2,255 # f00ff0ff <_end+0x500fe6b7>
800001f8:	16771c63          	bne	a4,t2,80000370 <fail>
800001fc:	00600193          	li	gp,6
80000200:	ff00f5b7          	lui	a1,0xff00f
80000204:	70058593          	addi	a1,a1,1792 # ff00f700 <_end+0x5f00ecb8>
80000208:	70f5c593          	xori	a1,a1,1807
8000020c:	ff00f3b7          	lui	t2,0xff00f
80000210:	00f38393          	addi	t2,t2,15 # ff00f00f <_end+0x5f00e5c7>
80000214:	14759e63          	bne	a1,t2,80000370 <fail>
80000218:	00700193          	li	gp,7
8000021c:	00000213          	li	tp,0
80000220:	0ff010b7          	lui	ra,0xff01
80000224:	ff008093          	addi	ra,ra,-16 # ff00ff0 <__stack_size+0xff007f0>
80000228:	0f00c713          	xori	a4,ra,240
8000022c:	00070313          	mv	t1,a4
80000230:	00120213          	addi	tp,tp,1 # 1 <__heap_size-0x1ff>
80000234:	00200293          	li	t0,2
80000238:	fe5214e3          	bne	tp,t0,80000220 <test_7+0x8>
8000023c:	0ff013b7          	lui	t2,0xff01
80000240:	f0038393          	addi	t2,t2,-256 # ff00f00 <__stack_size+0xff00700>
80000244:	12731663          	bne	t1,t2,80000370 <fail>
80000248:	00800193          	li	gp,8
8000024c:	00000213          	li	tp,0
80000250:	00ff10b7          	lui	ra,0xff1
80000254:	8ff08093          	addi	ra,ra,-1793 # ff08ff <__stack_size+0xff00ff>
80000258:	70f0c713          	xori	a4,ra,1807
8000025c:	00000013          	nop
80000260:	00070313          	mv	t1,a4
80000264:	00120213          	addi	tp,tp,1 # 1 <__heap_size-0x1ff>
80000268:	00200293          	li	t0,2
8000026c:	fe5212e3          	bne	tp,t0,80000250 <test_8+0x8>
80000270:	00ff13b7          	lui	t2,0xff1
80000274:	ff038393          	addi	t2,t2,-16 # ff0ff0 <__stack_size+0xff07f0>
80000278:	0e731c63          	bne	t1,t2,80000370 <fail>
8000027c:	00900193          	li	gp,9
80000280:	00000213          	li	tp,0
80000284:	f00ff0b7          	lui	ra,0xf00ff
80000288:	00f08093          	addi	ra,ra,15 # f00ff00f <_end+0x500fe5c7>
8000028c:	0f00c713          	xori	a4,ra,240
80000290:	00000013          	nop
80000294:	00000013          	nop
80000298:	00070313          	mv	t1,a4
8000029c:	00120213          	addi	tp,tp,1 # 1 <__heap_size-0x1ff>
800002a0:	00200293          	li	t0,2
800002a4:	fe5210e3          	bne	tp,t0,80000284 <test_9+0x8>
800002a8:	f00ff3b7          	lui	t2,0xf00ff
800002ac:	0ff38393          	addi	t2,t2,255 # f00ff0ff <_end+0x500fe6b7>
800002b0:	0c731063          	bne	t1,t2,80000370 <fail>
800002b4:	00a00193          	li	gp,10
800002b8:	00000213          	li	tp,0
800002bc:	0ff010b7          	lui	ra,0xff01
800002c0:	ff008093          	addi	ra,ra,-16 # ff00ff0 <__stack_size+0xff007f0>
800002c4:	0f00c713          	xori	a4,ra,240
800002c8:	00120213          	addi	tp,tp,1 # 1 <__heap_size-0x1ff>
800002cc:	00200293          	li	t0,2
800002d0:	fe5216e3          	bne	tp,t0,800002bc <test_10+0x8>
800002d4:	0ff013b7          	lui	t2,0xff01
800002d8:	f0038393          	addi	t2,t2,-256 # ff00f00 <__stack_size+0xff00700>
800002dc:	08771a63          	bne	a4,t2,80000370 <fail>
800002e0:	00b00193          	li	gp,11
800002e4:	00000213          	li	tp,0
800002e8:	00ff10b7          	lui	ra,0xff1
800002ec:	fff08093          	addi	ra,ra,-1 # ff0fff <__stack_size+0xff07ff>
800002f0:	00000013          	nop
800002f4:	00f0c713          	xori	a4,ra,15
800002f8:	00120213          	addi	tp,tp,1 # 1 <__heap_size-0x1ff>
800002fc:	00200293          	li	t0,2
80000300:	fe5214e3          	bne	tp,t0,800002e8 <test_11+0x8>
80000304:	00ff13b7          	lui	t2,0xff1
80000308:	ff038393          	addi	t2,t2,-16 # ff0ff0 <__stack_size+0xff07f0>
8000030c:	06771263          	bne	a4,t2,80000370 <fail>
80000310:	00c00193          	li	gp,12
80000314:	00000213          	li	tp,0
80000318:	f00ff0b7          	lui	ra,0xf00ff
8000031c:	00f08093          	addi	ra,ra,15 # f00ff00f <_end+0x500fe5c7>
80000320:	00000013          	nop
80000324:	00000013          	nop
80000328:	0f00c713          	xori	a4,ra,240
8000032c:	00120213          	addi	tp,tp,1 # 1 <__heap_size-0x1ff>
80000330:	00200293          	li	t0,2
80000334:	fe5212e3          	bne	tp,t0,80000318 <test_12+0x8>
80000338:	f00ff3b7          	lui	t2,0xf00ff
8000033c:	0ff38393          	addi	t2,t2,255 # f00ff0ff <_end+0x500fe6b7>
80000340:	02771863          	bne	a4,t2,80000370 <fail>
80000344:	00d00193          	li	gp,13
80000348:	0f004093          	xori	ra,zero,240
8000034c:	0f000393          	li	t2,240
80000350:	02709063          	bne	ra,t2,80000370 <fail>
80000354:	00e00193          	li	gp,14
80000358:	00ff00b7          	lui	ra,0xff0
8000035c:	0ff08093          	addi	ra,ra,255 # ff00ff <__stack_size+0xfef8ff>
80000360:	70f0c013          	xori	zero,ra,1807
80000364:	00000393          	li	t2,0
80000368:	00701463          	bne	zero,t2,80000370 <fail>
8000036c:	02301063          	bne	zero,gp,8000038c <pass>
80000370:	0ff0000f          	fence
80000374:	00018063          	beqz	gp,80000374 <fail+0x4>
80000378:	00119193          	slli	gp,gp,0x1
8000037c:	0011e193          	ori	gp,gp,1
80000380:	05d00893          	li	a7,93
80000384:	00018513          	mv	a0,gp
80000388:	00000073          	ecall
8000038c:	0ff0000f          	fence
80000390:	00100193          	li	gp,1
80000394:	05d00893          	li	a7,93
80000398:	00000513          	li	a0,0
8000039c:	00000073          	ecall
800003a0:	c0001073          	unimp
800003a4:	0000                	.insn	2, 0x
800003a6:	0000                	.insn	2, 0x
800003a8:	0000                	.insn	2, 0x
800003aa:	0000                	.insn	2, 0x
800003ac:	0000                	.insn	2, 0x
800003ae:	0000                	.insn	2, 0x
800003b0:	0000                	.insn	2, 0x
800003b2:	0000                	.insn	2, 0x
800003b4:	0000                	.insn	2, 0x
800003b6:	0000                	.insn	2, 0x
800003b8:	0000                	.insn	2, 0x
800003ba:	0000                	.insn	2, 0x
